ARM GAS  C:\Users\stefa\AppData\Local\Temp\ccFxeAQn.s 			page 1


   1              		.cpu cortex-m4
   2              		.arch armv7e-m
   3              		.fpu fpv4-sp-d16
   4              		.eabi_attribute 27, 1
   5              		.eabi_attribute 28, 1
   6              		.eabi_attribute 20, 1
   7              		.eabi_attribute 21, 1
   8              		.eabi_attribute 23, 3
   9              		.eabi_attribute 24, 1
  10              		.eabi_attribute 25, 1
  11              		.eabi_attribute 26, 1
  12              		.eabi_attribute 30, 1
  13              		.eabi_attribute 34, 1
  14              		.eabi_attribute 18, 4
  15              		.file	"stm32f4xx_hal_msp.c"
  16              		.text
  17              	.Ltext0:
  18              		.cfi_sections	.debug_frame
  19              		.section	.text.HAL_FMC_MspInit,"ax",%progbits
  20              		.align	1
  21              		.syntax unified
  22              		.thumb
  23              		.thumb_func
  25              	HAL_FMC_MspInit:
  26              	.LFB145:
  27              		.file 1 "Core/Src/stm32f4xx_hal_msp.c"
   1:Core/Src/stm32f4xx_hal_msp.c **** /* USER CODE BEGIN Header */
   2:Core/Src/stm32f4xx_hal_msp.c **** /**
   3:Core/Src/stm32f4xx_hal_msp.c ****   ******************************************************************************
   4:Core/Src/stm32f4xx_hal_msp.c ****   * @file         stm32f4xx_hal_msp.c
   5:Core/Src/stm32f4xx_hal_msp.c ****   * @brief        This file provides code for the MSP Initialization
   6:Core/Src/stm32f4xx_hal_msp.c ****   *               and de-Initialization codes.
   7:Core/Src/stm32f4xx_hal_msp.c ****   ******************************************************************************
   8:Core/Src/stm32f4xx_hal_msp.c ****   * @attention
   9:Core/Src/stm32f4xx_hal_msp.c ****   *
  10:Core/Src/stm32f4xx_hal_msp.c ****   * Copyright (c) 2022 STMicroelectronics.
  11:Core/Src/stm32f4xx_hal_msp.c ****   * All rights reserved.
  12:Core/Src/stm32f4xx_hal_msp.c ****   *
  13:Core/Src/stm32f4xx_hal_msp.c ****   * This software is licensed under terms that can be found in the LICENSE file
  14:Core/Src/stm32f4xx_hal_msp.c ****   * in the root directory of this software component.
  15:Core/Src/stm32f4xx_hal_msp.c ****   * If no LICENSE file comes with this software, it is provided AS-IS.
  16:Core/Src/stm32f4xx_hal_msp.c ****   *
  17:Core/Src/stm32f4xx_hal_msp.c ****   ******************************************************************************
  18:Core/Src/stm32f4xx_hal_msp.c ****   */
  19:Core/Src/stm32f4xx_hal_msp.c **** /* USER CODE END Header */
  20:Core/Src/stm32f4xx_hal_msp.c **** 
  21:Core/Src/stm32f4xx_hal_msp.c **** /* Includes ------------------------------------------------------------------*/
  22:Core/Src/stm32f4xx_hal_msp.c **** #include "main.h"
  23:Core/Src/stm32f4xx_hal_msp.c **** /* USER CODE BEGIN Includes */
  24:Core/Src/stm32f4xx_hal_msp.c **** 
  25:Core/Src/stm32f4xx_hal_msp.c **** /* USER CODE END Includes */
  26:Core/Src/stm32f4xx_hal_msp.c **** 
  27:Core/Src/stm32f4xx_hal_msp.c **** /* Private typedef -----------------------------------------------------------*/
  28:Core/Src/stm32f4xx_hal_msp.c **** /* USER CODE BEGIN TD */
  29:Core/Src/stm32f4xx_hal_msp.c **** 
  30:Core/Src/stm32f4xx_hal_msp.c **** /* USER CODE END TD */
  31:Core/Src/stm32f4xx_hal_msp.c **** 
ARM GAS  C:\Users\stefa\AppData\Local\Temp\ccFxeAQn.s 			page 2


  32:Core/Src/stm32f4xx_hal_msp.c **** /* Private define ------------------------------------------------------------*/
  33:Core/Src/stm32f4xx_hal_msp.c **** /* USER CODE BEGIN Define */
  34:Core/Src/stm32f4xx_hal_msp.c **** 
  35:Core/Src/stm32f4xx_hal_msp.c **** /* USER CODE END Define */
  36:Core/Src/stm32f4xx_hal_msp.c **** 
  37:Core/Src/stm32f4xx_hal_msp.c **** /* Private macro -------------------------------------------------------------*/
  38:Core/Src/stm32f4xx_hal_msp.c **** /* USER CODE BEGIN Macro */
  39:Core/Src/stm32f4xx_hal_msp.c **** 
  40:Core/Src/stm32f4xx_hal_msp.c **** /* USER CODE END Macro */
  41:Core/Src/stm32f4xx_hal_msp.c **** 
  42:Core/Src/stm32f4xx_hal_msp.c **** /* Private variables ---------------------------------------------------------*/
  43:Core/Src/stm32f4xx_hal_msp.c **** /* USER CODE BEGIN PV */
  44:Core/Src/stm32f4xx_hal_msp.c **** 
  45:Core/Src/stm32f4xx_hal_msp.c **** /* USER CODE END PV */
  46:Core/Src/stm32f4xx_hal_msp.c **** 
  47:Core/Src/stm32f4xx_hal_msp.c **** /* Private function prototypes -----------------------------------------------*/
  48:Core/Src/stm32f4xx_hal_msp.c **** /* USER CODE BEGIN PFP */
  49:Core/Src/stm32f4xx_hal_msp.c **** 
  50:Core/Src/stm32f4xx_hal_msp.c **** /* USER CODE END PFP */
  51:Core/Src/stm32f4xx_hal_msp.c **** 
  52:Core/Src/stm32f4xx_hal_msp.c **** /* External functions --------------------------------------------------------*/
  53:Core/Src/stm32f4xx_hal_msp.c **** /* USER CODE BEGIN ExternalFunctions */
  54:Core/Src/stm32f4xx_hal_msp.c **** 
  55:Core/Src/stm32f4xx_hal_msp.c **** /* USER CODE END ExternalFunctions */
  56:Core/Src/stm32f4xx_hal_msp.c **** 
  57:Core/Src/stm32f4xx_hal_msp.c **** /* USER CODE BEGIN 0 */
  58:Core/Src/stm32f4xx_hal_msp.c **** 
  59:Core/Src/stm32f4xx_hal_msp.c **** /* USER CODE END 0 */
  60:Core/Src/stm32f4xx_hal_msp.c **** /**
  61:Core/Src/stm32f4xx_hal_msp.c ****   * Initializes the Global MSP.
  62:Core/Src/stm32f4xx_hal_msp.c ****   */
  63:Core/Src/stm32f4xx_hal_msp.c **** void HAL_MspInit(void)
  64:Core/Src/stm32f4xx_hal_msp.c **** {
  65:Core/Src/stm32f4xx_hal_msp.c ****   /* USER CODE BEGIN MspInit 0 */
  66:Core/Src/stm32f4xx_hal_msp.c **** 
  67:Core/Src/stm32f4xx_hal_msp.c ****   /* USER CODE END MspInit 0 */
  68:Core/Src/stm32f4xx_hal_msp.c **** 
  69:Core/Src/stm32f4xx_hal_msp.c ****   __HAL_RCC_SYSCFG_CLK_ENABLE();
  70:Core/Src/stm32f4xx_hal_msp.c ****   __HAL_RCC_PWR_CLK_ENABLE();
  71:Core/Src/stm32f4xx_hal_msp.c **** 
  72:Core/Src/stm32f4xx_hal_msp.c ****   /* System interrupt init*/
  73:Core/Src/stm32f4xx_hal_msp.c **** 
  74:Core/Src/stm32f4xx_hal_msp.c ****   /* USER CODE BEGIN MspInit 1 */
  75:Core/Src/stm32f4xx_hal_msp.c **** 
  76:Core/Src/stm32f4xx_hal_msp.c ****   /* USER CODE END MspInit 1 */
  77:Core/Src/stm32f4xx_hal_msp.c **** }
  78:Core/Src/stm32f4xx_hal_msp.c **** 
  79:Core/Src/stm32f4xx_hal_msp.c **** /**
  80:Core/Src/stm32f4xx_hal_msp.c **** * @brief CRC MSP Initialization
  81:Core/Src/stm32f4xx_hal_msp.c **** * This function configures the hardware resources used in this example
  82:Core/Src/stm32f4xx_hal_msp.c **** * @param hcrc: CRC handle pointer
  83:Core/Src/stm32f4xx_hal_msp.c **** * @retval None
  84:Core/Src/stm32f4xx_hal_msp.c **** */
  85:Core/Src/stm32f4xx_hal_msp.c **** void HAL_CRC_MspInit(CRC_HandleTypeDef* hcrc)
  86:Core/Src/stm32f4xx_hal_msp.c **** {
  87:Core/Src/stm32f4xx_hal_msp.c ****   if(hcrc->Instance==CRC)
  88:Core/Src/stm32f4xx_hal_msp.c ****   {
ARM GAS  C:\Users\stefa\AppData\Local\Temp\ccFxeAQn.s 			page 3


  89:Core/Src/stm32f4xx_hal_msp.c ****   /* USER CODE BEGIN CRC_MspInit 0 */
  90:Core/Src/stm32f4xx_hal_msp.c **** 
  91:Core/Src/stm32f4xx_hal_msp.c ****   /* USER CODE END CRC_MspInit 0 */
  92:Core/Src/stm32f4xx_hal_msp.c ****     /* Peripheral clock enable */
  93:Core/Src/stm32f4xx_hal_msp.c ****     __HAL_RCC_CRC_CLK_ENABLE();
  94:Core/Src/stm32f4xx_hal_msp.c ****   /* USER CODE BEGIN CRC_MspInit 1 */
  95:Core/Src/stm32f4xx_hal_msp.c **** 
  96:Core/Src/stm32f4xx_hal_msp.c ****   /* USER CODE END CRC_MspInit 1 */
  97:Core/Src/stm32f4xx_hal_msp.c ****   }
  98:Core/Src/stm32f4xx_hal_msp.c **** 
  99:Core/Src/stm32f4xx_hal_msp.c **** }
 100:Core/Src/stm32f4xx_hal_msp.c **** 
 101:Core/Src/stm32f4xx_hal_msp.c **** /**
 102:Core/Src/stm32f4xx_hal_msp.c **** * @brief CRC MSP De-Initialization
 103:Core/Src/stm32f4xx_hal_msp.c **** * This function freeze the hardware resources used in this example
 104:Core/Src/stm32f4xx_hal_msp.c **** * @param hcrc: CRC handle pointer
 105:Core/Src/stm32f4xx_hal_msp.c **** * @retval None
 106:Core/Src/stm32f4xx_hal_msp.c **** */
 107:Core/Src/stm32f4xx_hal_msp.c **** void HAL_CRC_MspDeInit(CRC_HandleTypeDef* hcrc)
 108:Core/Src/stm32f4xx_hal_msp.c **** {
 109:Core/Src/stm32f4xx_hal_msp.c ****   if(hcrc->Instance==CRC)
 110:Core/Src/stm32f4xx_hal_msp.c ****   {
 111:Core/Src/stm32f4xx_hal_msp.c ****   /* USER CODE BEGIN CRC_MspDeInit 0 */
 112:Core/Src/stm32f4xx_hal_msp.c **** 
 113:Core/Src/stm32f4xx_hal_msp.c ****   /* USER CODE END CRC_MspDeInit 0 */
 114:Core/Src/stm32f4xx_hal_msp.c ****     /* Peripheral clock disable */
 115:Core/Src/stm32f4xx_hal_msp.c ****     __HAL_RCC_CRC_CLK_DISABLE();
 116:Core/Src/stm32f4xx_hal_msp.c ****   /* USER CODE BEGIN CRC_MspDeInit 1 */
 117:Core/Src/stm32f4xx_hal_msp.c **** 
 118:Core/Src/stm32f4xx_hal_msp.c ****   /* USER CODE END CRC_MspDeInit 1 */
 119:Core/Src/stm32f4xx_hal_msp.c ****   }
 120:Core/Src/stm32f4xx_hal_msp.c **** 
 121:Core/Src/stm32f4xx_hal_msp.c **** }
 122:Core/Src/stm32f4xx_hal_msp.c **** 
 123:Core/Src/stm32f4xx_hal_msp.c **** /**
 124:Core/Src/stm32f4xx_hal_msp.c **** * @brief DMA2D MSP Initialization
 125:Core/Src/stm32f4xx_hal_msp.c **** * This function configures the hardware resources used in this example
 126:Core/Src/stm32f4xx_hal_msp.c **** * @param hdma2d: DMA2D handle pointer
 127:Core/Src/stm32f4xx_hal_msp.c **** * @retval None
 128:Core/Src/stm32f4xx_hal_msp.c **** */
 129:Core/Src/stm32f4xx_hal_msp.c **** void HAL_DMA2D_MspInit(DMA2D_HandleTypeDef* hdma2d)
 130:Core/Src/stm32f4xx_hal_msp.c **** {
 131:Core/Src/stm32f4xx_hal_msp.c ****   if(hdma2d->Instance==DMA2D)
 132:Core/Src/stm32f4xx_hal_msp.c ****   {
 133:Core/Src/stm32f4xx_hal_msp.c ****   /* USER CODE BEGIN DMA2D_MspInit 0 */
 134:Core/Src/stm32f4xx_hal_msp.c **** 
 135:Core/Src/stm32f4xx_hal_msp.c ****   /* USER CODE END DMA2D_MspInit 0 */
 136:Core/Src/stm32f4xx_hal_msp.c ****     /* Peripheral clock enable */
 137:Core/Src/stm32f4xx_hal_msp.c ****     __HAL_RCC_DMA2D_CLK_ENABLE();
 138:Core/Src/stm32f4xx_hal_msp.c ****     /* DMA2D interrupt Init */
 139:Core/Src/stm32f4xx_hal_msp.c ****     HAL_NVIC_SetPriority(DMA2D_IRQn, 5, 0);
 140:Core/Src/stm32f4xx_hal_msp.c ****     HAL_NVIC_EnableIRQ(DMA2D_IRQn);
 141:Core/Src/stm32f4xx_hal_msp.c ****   /* USER CODE BEGIN DMA2D_MspInit 1 */
 142:Core/Src/stm32f4xx_hal_msp.c **** 
 143:Core/Src/stm32f4xx_hal_msp.c ****   /* USER CODE END DMA2D_MspInit 1 */
 144:Core/Src/stm32f4xx_hal_msp.c ****   }
 145:Core/Src/stm32f4xx_hal_msp.c **** 
ARM GAS  C:\Users\stefa\AppData\Local\Temp\ccFxeAQn.s 			page 4


 146:Core/Src/stm32f4xx_hal_msp.c **** }
 147:Core/Src/stm32f4xx_hal_msp.c **** 
 148:Core/Src/stm32f4xx_hal_msp.c **** /**
 149:Core/Src/stm32f4xx_hal_msp.c **** * @brief DMA2D MSP De-Initialization
 150:Core/Src/stm32f4xx_hal_msp.c **** * This function freeze the hardware resources used in this example
 151:Core/Src/stm32f4xx_hal_msp.c **** * @param hdma2d: DMA2D handle pointer
 152:Core/Src/stm32f4xx_hal_msp.c **** * @retval None
 153:Core/Src/stm32f4xx_hal_msp.c **** */
 154:Core/Src/stm32f4xx_hal_msp.c **** void HAL_DMA2D_MspDeInit(DMA2D_HandleTypeDef* hdma2d)
 155:Core/Src/stm32f4xx_hal_msp.c **** {
 156:Core/Src/stm32f4xx_hal_msp.c ****   if(hdma2d->Instance==DMA2D)
 157:Core/Src/stm32f4xx_hal_msp.c ****   {
 158:Core/Src/stm32f4xx_hal_msp.c ****   /* USER CODE BEGIN DMA2D_MspDeInit 0 */
 159:Core/Src/stm32f4xx_hal_msp.c **** 
 160:Core/Src/stm32f4xx_hal_msp.c ****   /* USER CODE END DMA2D_MspDeInit 0 */
 161:Core/Src/stm32f4xx_hal_msp.c ****     /* Peripheral clock disable */
 162:Core/Src/stm32f4xx_hal_msp.c ****     __HAL_RCC_DMA2D_CLK_DISABLE();
 163:Core/Src/stm32f4xx_hal_msp.c **** 
 164:Core/Src/stm32f4xx_hal_msp.c ****     /* DMA2D interrupt DeInit */
 165:Core/Src/stm32f4xx_hal_msp.c ****     HAL_NVIC_DisableIRQ(DMA2D_IRQn);
 166:Core/Src/stm32f4xx_hal_msp.c ****   /* USER CODE BEGIN DMA2D_MspDeInit 1 */
 167:Core/Src/stm32f4xx_hal_msp.c **** 
 168:Core/Src/stm32f4xx_hal_msp.c ****   /* USER CODE END DMA2D_MspDeInit 1 */
 169:Core/Src/stm32f4xx_hal_msp.c ****   }
 170:Core/Src/stm32f4xx_hal_msp.c **** 
 171:Core/Src/stm32f4xx_hal_msp.c **** }
 172:Core/Src/stm32f4xx_hal_msp.c **** 
 173:Core/Src/stm32f4xx_hal_msp.c **** /**
 174:Core/Src/stm32f4xx_hal_msp.c **** * @brief I2C MSP Initialization
 175:Core/Src/stm32f4xx_hal_msp.c **** * This function configures the hardware resources used in this example
 176:Core/Src/stm32f4xx_hal_msp.c **** * @param hi2c: I2C handle pointer
 177:Core/Src/stm32f4xx_hal_msp.c **** * @retval None
 178:Core/Src/stm32f4xx_hal_msp.c **** */
 179:Core/Src/stm32f4xx_hal_msp.c **** void HAL_I2C_MspInit(I2C_HandleTypeDef* hi2c)
 180:Core/Src/stm32f4xx_hal_msp.c **** {
 181:Core/Src/stm32f4xx_hal_msp.c ****   GPIO_InitTypeDef GPIO_InitStruct = {0};
 182:Core/Src/stm32f4xx_hal_msp.c ****   if(hi2c->Instance==I2C3)
 183:Core/Src/stm32f4xx_hal_msp.c ****   {
 184:Core/Src/stm32f4xx_hal_msp.c ****   /* USER CODE BEGIN I2C3_MspInit 0 */
 185:Core/Src/stm32f4xx_hal_msp.c **** 
 186:Core/Src/stm32f4xx_hal_msp.c ****   /* USER CODE END I2C3_MspInit 0 */
 187:Core/Src/stm32f4xx_hal_msp.c **** 
 188:Core/Src/stm32f4xx_hal_msp.c ****     __HAL_RCC_GPIOC_CLK_ENABLE();
 189:Core/Src/stm32f4xx_hal_msp.c ****     __HAL_RCC_GPIOA_CLK_ENABLE();
 190:Core/Src/stm32f4xx_hal_msp.c ****     /**I2C3 GPIO Configuration
 191:Core/Src/stm32f4xx_hal_msp.c ****     PC9     ------> I2C3_SDA
 192:Core/Src/stm32f4xx_hal_msp.c ****     PA8     ------> I2C3_SCL
 193:Core/Src/stm32f4xx_hal_msp.c ****     */
 194:Core/Src/stm32f4xx_hal_msp.c ****     GPIO_InitStruct.Pin = I2C3_SDA_Pin;
 195:Core/Src/stm32f4xx_hal_msp.c ****     GPIO_InitStruct.Mode = GPIO_MODE_AF_OD;
 196:Core/Src/stm32f4xx_hal_msp.c ****     GPIO_InitStruct.Pull = GPIO_PULLUP;
 197:Core/Src/stm32f4xx_hal_msp.c ****     GPIO_InitStruct.Speed = GPIO_SPEED_FREQ_LOW;
 198:Core/Src/stm32f4xx_hal_msp.c ****     GPIO_InitStruct.Alternate = GPIO_AF4_I2C3;
 199:Core/Src/stm32f4xx_hal_msp.c ****     HAL_GPIO_Init(I2C3_SDA_GPIO_Port, &GPIO_InitStruct);
 200:Core/Src/stm32f4xx_hal_msp.c **** 
 201:Core/Src/stm32f4xx_hal_msp.c ****     GPIO_InitStruct.Pin = I2C3_SCL_Pin;
 202:Core/Src/stm32f4xx_hal_msp.c ****     GPIO_InitStruct.Mode = GPIO_MODE_AF_OD;
ARM GAS  C:\Users\stefa\AppData\Local\Temp\ccFxeAQn.s 			page 5


 203:Core/Src/stm32f4xx_hal_msp.c ****     GPIO_InitStruct.Pull = GPIO_PULLUP;
 204:Core/Src/stm32f4xx_hal_msp.c ****     GPIO_InitStruct.Speed = GPIO_SPEED_FREQ_LOW;
 205:Core/Src/stm32f4xx_hal_msp.c ****     GPIO_InitStruct.Alternate = GPIO_AF4_I2C3;
 206:Core/Src/stm32f4xx_hal_msp.c ****     HAL_GPIO_Init(I2C3_SCL_GPIO_Port, &GPIO_InitStruct);
 207:Core/Src/stm32f4xx_hal_msp.c **** 
 208:Core/Src/stm32f4xx_hal_msp.c ****     /* Peripheral clock enable */
 209:Core/Src/stm32f4xx_hal_msp.c ****     __HAL_RCC_I2C3_CLK_ENABLE();
 210:Core/Src/stm32f4xx_hal_msp.c ****   /* USER CODE BEGIN I2C3_MspInit 1 */
 211:Core/Src/stm32f4xx_hal_msp.c **** 
 212:Core/Src/stm32f4xx_hal_msp.c ****   /* USER CODE END I2C3_MspInit 1 */
 213:Core/Src/stm32f4xx_hal_msp.c ****   }
 214:Core/Src/stm32f4xx_hal_msp.c **** 
 215:Core/Src/stm32f4xx_hal_msp.c **** }
 216:Core/Src/stm32f4xx_hal_msp.c **** 
 217:Core/Src/stm32f4xx_hal_msp.c **** /**
 218:Core/Src/stm32f4xx_hal_msp.c **** * @brief I2C MSP De-Initialization
 219:Core/Src/stm32f4xx_hal_msp.c **** * This function freeze the hardware resources used in this example
 220:Core/Src/stm32f4xx_hal_msp.c **** * @param hi2c: I2C handle pointer
 221:Core/Src/stm32f4xx_hal_msp.c **** * @retval None
 222:Core/Src/stm32f4xx_hal_msp.c **** */
 223:Core/Src/stm32f4xx_hal_msp.c **** void HAL_I2C_MspDeInit(I2C_HandleTypeDef* hi2c)
 224:Core/Src/stm32f4xx_hal_msp.c **** {
 225:Core/Src/stm32f4xx_hal_msp.c ****   if(hi2c->Instance==I2C3)
 226:Core/Src/stm32f4xx_hal_msp.c ****   {
 227:Core/Src/stm32f4xx_hal_msp.c ****   /* USER CODE BEGIN I2C3_MspDeInit 0 */
 228:Core/Src/stm32f4xx_hal_msp.c **** 
 229:Core/Src/stm32f4xx_hal_msp.c ****   /* USER CODE END I2C3_MspDeInit 0 */
 230:Core/Src/stm32f4xx_hal_msp.c ****     /* Peripheral clock disable */
 231:Core/Src/stm32f4xx_hal_msp.c ****     __HAL_RCC_I2C3_CLK_DISABLE();
 232:Core/Src/stm32f4xx_hal_msp.c **** 
 233:Core/Src/stm32f4xx_hal_msp.c ****     /**I2C3 GPIO Configuration
 234:Core/Src/stm32f4xx_hal_msp.c ****     PC9     ------> I2C3_SDA
 235:Core/Src/stm32f4xx_hal_msp.c ****     PA8     ------> I2C3_SCL
 236:Core/Src/stm32f4xx_hal_msp.c ****     */
 237:Core/Src/stm32f4xx_hal_msp.c ****     HAL_GPIO_DeInit(I2C3_SDA_GPIO_Port, I2C3_SDA_Pin);
 238:Core/Src/stm32f4xx_hal_msp.c **** 
 239:Core/Src/stm32f4xx_hal_msp.c ****     HAL_GPIO_DeInit(I2C3_SCL_GPIO_Port, I2C3_SCL_Pin);
 240:Core/Src/stm32f4xx_hal_msp.c **** 
 241:Core/Src/stm32f4xx_hal_msp.c ****   /* USER CODE BEGIN I2C3_MspDeInit 1 */
 242:Core/Src/stm32f4xx_hal_msp.c **** 
 243:Core/Src/stm32f4xx_hal_msp.c ****   /* USER CODE END I2C3_MspDeInit 1 */
 244:Core/Src/stm32f4xx_hal_msp.c ****   }
 245:Core/Src/stm32f4xx_hal_msp.c **** 
 246:Core/Src/stm32f4xx_hal_msp.c **** }
 247:Core/Src/stm32f4xx_hal_msp.c **** 
 248:Core/Src/stm32f4xx_hal_msp.c **** /**
 249:Core/Src/stm32f4xx_hal_msp.c **** * @brief LTDC MSP Initialization
 250:Core/Src/stm32f4xx_hal_msp.c **** * This function configures the hardware resources used in this example
 251:Core/Src/stm32f4xx_hal_msp.c **** * @param hltdc: LTDC handle pointer
 252:Core/Src/stm32f4xx_hal_msp.c **** * @retval None
 253:Core/Src/stm32f4xx_hal_msp.c **** */
 254:Core/Src/stm32f4xx_hal_msp.c **** void HAL_LTDC_MspInit(LTDC_HandleTypeDef* hltdc)
 255:Core/Src/stm32f4xx_hal_msp.c **** {
 256:Core/Src/stm32f4xx_hal_msp.c ****   GPIO_InitTypeDef GPIO_InitStruct = {0};
 257:Core/Src/stm32f4xx_hal_msp.c ****   RCC_PeriphCLKInitTypeDef PeriphClkInitStruct = {0};
 258:Core/Src/stm32f4xx_hal_msp.c ****   if(hltdc->Instance==LTDC)
 259:Core/Src/stm32f4xx_hal_msp.c ****   {
ARM GAS  C:\Users\stefa\AppData\Local\Temp\ccFxeAQn.s 			page 6


 260:Core/Src/stm32f4xx_hal_msp.c ****   /* USER CODE BEGIN LTDC_MspInit 0 */
 261:Core/Src/stm32f4xx_hal_msp.c **** 
 262:Core/Src/stm32f4xx_hal_msp.c ****   /* USER CODE END LTDC_MspInit 0 */
 263:Core/Src/stm32f4xx_hal_msp.c **** 
 264:Core/Src/stm32f4xx_hal_msp.c ****   /** Initializes the peripherals clock
 265:Core/Src/stm32f4xx_hal_msp.c ****   */
 266:Core/Src/stm32f4xx_hal_msp.c ****     PeriphClkInitStruct.PeriphClockSelection = RCC_PERIPHCLK_LTDC;
 267:Core/Src/stm32f4xx_hal_msp.c ****     PeriphClkInitStruct.PLLSAI.PLLSAIN = 50;
 268:Core/Src/stm32f4xx_hal_msp.c ****     PeriphClkInitStruct.PLLSAI.PLLSAIR = 2;
 269:Core/Src/stm32f4xx_hal_msp.c ****     PeriphClkInitStruct.PLLSAIDivR = RCC_PLLSAIDIVR_2;
 270:Core/Src/stm32f4xx_hal_msp.c ****     if (HAL_RCCEx_PeriphCLKConfig(&PeriphClkInitStruct) != HAL_OK)
 271:Core/Src/stm32f4xx_hal_msp.c ****     {
 272:Core/Src/stm32f4xx_hal_msp.c ****       Error_Handler();
 273:Core/Src/stm32f4xx_hal_msp.c ****     }
 274:Core/Src/stm32f4xx_hal_msp.c **** 
 275:Core/Src/stm32f4xx_hal_msp.c ****     /* Peripheral clock enable */
 276:Core/Src/stm32f4xx_hal_msp.c ****     __HAL_RCC_LTDC_CLK_ENABLE();
 277:Core/Src/stm32f4xx_hal_msp.c **** 
 278:Core/Src/stm32f4xx_hal_msp.c ****     __HAL_RCC_GPIOF_CLK_ENABLE();
 279:Core/Src/stm32f4xx_hal_msp.c ****     __HAL_RCC_GPIOA_CLK_ENABLE();
 280:Core/Src/stm32f4xx_hal_msp.c ****     __HAL_RCC_GPIOB_CLK_ENABLE();
 281:Core/Src/stm32f4xx_hal_msp.c ****     __HAL_RCC_GPIOG_CLK_ENABLE();
 282:Core/Src/stm32f4xx_hal_msp.c ****     __HAL_RCC_GPIOC_CLK_ENABLE();
 283:Core/Src/stm32f4xx_hal_msp.c ****     __HAL_RCC_GPIOD_CLK_ENABLE();
 284:Core/Src/stm32f4xx_hal_msp.c ****     /**LTDC GPIO Configuration
 285:Core/Src/stm32f4xx_hal_msp.c ****     PF10     ------> LTDC_DE
 286:Core/Src/stm32f4xx_hal_msp.c ****     PA3     ------> LTDC_B5
 287:Core/Src/stm32f4xx_hal_msp.c ****     PA4     ------> LTDC_VSYNC
 288:Core/Src/stm32f4xx_hal_msp.c ****     PA6     ------> LTDC_G2
 289:Core/Src/stm32f4xx_hal_msp.c ****     PB0     ------> LTDC_R3
 290:Core/Src/stm32f4xx_hal_msp.c ****     PB1     ------> LTDC_R6
 291:Core/Src/stm32f4xx_hal_msp.c ****     PB10     ------> LTDC_G4
 292:Core/Src/stm32f4xx_hal_msp.c ****     PB11     ------> LTDC_G5
 293:Core/Src/stm32f4xx_hal_msp.c ****     PG6     ------> LTDC_R7
 294:Core/Src/stm32f4xx_hal_msp.c ****     PG7     ------> LTDC_CLK
 295:Core/Src/stm32f4xx_hal_msp.c ****     PC6     ------> LTDC_HSYNC
 296:Core/Src/stm32f4xx_hal_msp.c ****     PC7     ------> LTDC_G6
 297:Core/Src/stm32f4xx_hal_msp.c ****     PA11     ------> LTDC_R4
 298:Core/Src/stm32f4xx_hal_msp.c ****     PA12     ------> LTDC_R5
 299:Core/Src/stm32f4xx_hal_msp.c ****     PC10     ------> LTDC_R2
 300:Core/Src/stm32f4xx_hal_msp.c ****     PD3     ------> LTDC_G7
 301:Core/Src/stm32f4xx_hal_msp.c ****     PD6     ------> LTDC_B2
 302:Core/Src/stm32f4xx_hal_msp.c ****     PG10     ------> LTDC_G3
 303:Core/Src/stm32f4xx_hal_msp.c ****     PG11     ------> LTDC_B3
 304:Core/Src/stm32f4xx_hal_msp.c ****     PG12     ------> LTDC_B4
 305:Core/Src/stm32f4xx_hal_msp.c ****     PB8     ------> LTDC_B6
 306:Core/Src/stm32f4xx_hal_msp.c ****     PB9     ------> LTDC_B7
 307:Core/Src/stm32f4xx_hal_msp.c ****     */
 308:Core/Src/stm32f4xx_hal_msp.c ****     GPIO_InitStruct.Pin = ENABLE_Pin;
 309:Core/Src/stm32f4xx_hal_msp.c ****     GPIO_InitStruct.Mode = GPIO_MODE_AF_PP;
 310:Core/Src/stm32f4xx_hal_msp.c ****     GPIO_InitStruct.Pull = GPIO_NOPULL;
 311:Core/Src/stm32f4xx_hal_msp.c ****     GPIO_InitStruct.Speed = GPIO_SPEED_FREQ_LOW;
 312:Core/Src/stm32f4xx_hal_msp.c ****     GPIO_InitStruct.Alternate = GPIO_AF14_LTDC;
 313:Core/Src/stm32f4xx_hal_msp.c ****     HAL_GPIO_Init(ENABLE_GPIO_Port, &GPIO_InitStruct);
 314:Core/Src/stm32f4xx_hal_msp.c **** 
 315:Core/Src/stm32f4xx_hal_msp.c ****     GPIO_InitStruct.Pin = B5_Pin|VSYNC_Pin|G2_Pin|R4_Pin
 316:Core/Src/stm32f4xx_hal_msp.c ****                           |R5_Pin;
ARM GAS  C:\Users\stefa\AppData\Local\Temp\ccFxeAQn.s 			page 7


 317:Core/Src/stm32f4xx_hal_msp.c ****     GPIO_InitStruct.Mode = GPIO_MODE_AF_PP;
 318:Core/Src/stm32f4xx_hal_msp.c ****     GPIO_InitStruct.Pull = GPIO_NOPULL;
 319:Core/Src/stm32f4xx_hal_msp.c ****     GPIO_InitStruct.Speed = GPIO_SPEED_FREQ_LOW;
 320:Core/Src/stm32f4xx_hal_msp.c ****     GPIO_InitStruct.Alternate = GPIO_AF14_LTDC;
 321:Core/Src/stm32f4xx_hal_msp.c ****     HAL_GPIO_Init(GPIOA, &GPIO_InitStruct);
 322:Core/Src/stm32f4xx_hal_msp.c **** 
 323:Core/Src/stm32f4xx_hal_msp.c ****     GPIO_InitStruct.Pin = R3_Pin|R6_Pin;
 324:Core/Src/stm32f4xx_hal_msp.c ****     GPIO_InitStruct.Mode = GPIO_MODE_AF_PP;
 325:Core/Src/stm32f4xx_hal_msp.c ****     GPIO_InitStruct.Pull = GPIO_NOPULL;
 326:Core/Src/stm32f4xx_hal_msp.c ****     GPIO_InitStruct.Speed = GPIO_SPEED_FREQ_LOW;
 327:Core/Src/stm32f4xx_hal_msp.c ****     GPIO_InitStruct.Alternate = GPIO_AF9_LTDC;
 328:Core/Src/stm32f4xx_hal_msp.c ****     HAL_GPIO_Init(GPIOB, &GPIO_InitStruct);
 329:Core/Src/stm32f4xx_hal_msp.c **** 
 330:Core/Src/stm32f4xx_hal_msp.c ****     GPIO_InitStruct.Pin = G4_Pin|G5_Pin|B6_Pin|B7_Pin;
 331:Core/Src/stm32f4xx_hal_msp.c ****     GPIO_InitStruct.Mode = GPIO_MODE_AF_PP;
 332:Core/Src/stm32f4xx_hal_msp.c ****     GPIO_InitStruct.Pull = GPIO_NOPULL;
 333:Core/Src/stm32f4xx_hal_msp.c ****     GPIO_InitStruct.Speed = GPIO_SPEED_FREQ_LOW;
 334:Core/Src/stm32f4xx_hal_msp.c ****     GPIO_InitStruct.Alternate = GPIO_AF14_LTDC;
 335:Core/Src/stm32f4xx_hal_msp.c ****     HAL_GPIO_Init(GPIOB, &GPIO_InitStruct);
 336:Core/Src/stm32f4xx_hal_msp.c **** 
 337:Core/Src/stm32f4xx_hal_msp.c ****     GPIO_InitStruct.Pin = R7_Pin|DOTCLK_Pin|B3_Pin;
 338:Core/Src/stm32f4xx_hal_msp.c ****     GPIO_InitStruct.Mode = GPIO_MODE_AF_PP;
 339:Core/Src/stm32f4xx_hal_msp.c ****     GPIO_InitStruct.Pull = GPIO_NOPULL;
 340:Core/Src/stm32f4xx_hal_msp.c ****     GPIO_InitStruct.Speed = GPIO_SPEED_FREQ_LOW;
 341:Core/Src/stm32f4xx_hal_msp.c ****     GPIO_InitStruct.Alternate = GPIO_AF14_LTDC;
 342:Core/Src/stm32f4xx_hal_msp.c ****     HAL_GPIO_Init(GPIOG, &GPIO_InitStruct);
 343:Core/Src/stm32f4xx_hal_msp.c **** 
 344:Core/Src/stm32f4xx_hal_msp.c ****     GPIO_InitStruct.Pin = HSYNC_Pin|G6_Pin|R2_Pin;
 345:Core/Src/stm32f4xx_hal_msp.c ****     GPIO_InitStruct.Mode = GPIO_MODE_AF_PP;
 346:Core/Src/stm32f4xx_hal_msp.c ****     GPIO_InitStruct.Pull = GPIO_NOPULL;
 347:Core/Src/stm32f4xx_hal_msp.c ****     GPIO_InitStruct.Speed = GPIO_SPEED_FREQ_LOW;
 348:Core/Src/stm32f4xx_hal_msp.c ****     GPIO_InitStruct.Alternate = GPIO_AF14_LTDC;
 349:Core/Src/stm32f4xx_hal_msp.c ****     HAL_GPIO_Init(GPIOC, &GPIO_InitStruct);
 350:Core/Src/stm32f4xx_hal_msp.c **** 
 351:Core/Src/stm32f4xx_hal_msp.c ****     GPIO_InitStruct.Pin = G7_Pin|B2_Pin;
 352:Core/Src/stm32f4xx_hal_msp.c ****     GPIO_InitStruct.Mode = GPIO_MODE_AF_PP;
 353:Core/Src/stm32f4xx_hal_msp.c ****     GPIO_InitStruct.Pull = GPIO_NOPULL;
 354:Core/Src/stm32f4xx_hal_msp.c ****     GPIO_InitStruct.Speed = GPIO_SPEED_FREQ_LOW;
 355:Core/Src/stm32f4xx_hal_msp.c ****     GPIO_InitStruct.Alternate = GPIO_AF14_LTDC;
 356:Core/Src/stm32f4xx_hal_msp.c ****     HAL_GPIO_Init(GPIOD, &GPIO_InitStruct);
 357:Core/Src/stm32f4xx_hal_msp.c **** 
 358:Core/Src/stm32f4xx_hal_msp.c ****     GPIO_InitStruct.Pin = G3_Pin|B4_Pin;
 359:Core/Src/stm32f4xx_hal_msp.c ****     GPIO_InitStruct.Mode = GPIO_MODE_AF_PP;
 360:Core/Src/stm32f4xx_hal_msp.c ****     GPIO_InitStruct.Pull = GPIO_NOPULL;
 361:Core/Src/stm32f4xx_hal_msp.c ****     GPIO_InitStruct.Speed = GPIO_SPEED_FREQ_LOW;
 362:Core/Src/stm32f4xx_hal_msp.c ****     GPIO_InitStruct.Alternate = GPIO_AF9_LTDC;
 363:Core/Src/stm32f4xx_hal_msp.c ****     HAL_GPIO_Init(GPIOG, &GPIO_InitStruct);
 364:Core/Src/stm32f4xx_hal_msp.c **** 
 365:Core/Src/stm32f4xx_hal_msp.c ****     /* LTDC interrupt Init */
 366:Core/Src/stm32f4xx_hal_msp.c ****     HAL_NVIC_SetPriority(LTDC_IRQn, 5, 0);
 367:Core/Src/stm32f4xx_hal_msp.c ****     HAL_NVIC_EnableIRQ(LTDC_IRQn);
 368:Core/Src/stm32f4xx_hal_msp.c ****   /* USER CODE BEGIN LTDC_MspInit 1 */
 369:Core/Src/stm32f4xx_hal_msp.c **** 
 370:Core/Src/stm32f4xx_hal_msp.c ****   /* USER CODE END LTDC_MspInit 1 */
 371:Core/Src/stm32f4xx_hal_msp.c ****   }
 372:Core/Src/stm32f4xx_hal_msp.c **** 
 373:Core/Src/stm32f4xx_hal_msp.c **** }
ARM GAS  C:\Users\stefa\AppData\Local\Temp\ccFxeAQn.s 			page 8


 374:Core/Src/stm32f4xx_hal_msp.c **** 
 375:Core/Src/stm32f4xx_hal_msp.c **** /**
 376:Core/Src/stm32f4xx_hal_msp.c **** * @brief LTDC MSP De-Initialization
 377:Core/Src/stm32f4xx_hal_msp.c **** * This function freeze the hardware resources used in this example
 378:Core/Src/stm32f4xx_hal_msp.c **** * @param hltdc: LTDC handle pointer
 379:Core/Src/stm32f4xx_hal_msp.c **** * @retval None
 380:Core/Src/stm32f4xx_hal_msp.c **** */
 381:Core/Src/stm32f4xx_hal_msp.c **** void HAL_LTDC_MspDeInit(LTDC_HandleTypeDef* hltdc)
 382:Core/Src/stm32f4xx_hal_msp.c **** {
 383:Core/Src/stm32f4xx_hal_msp.c ****   if(hltdc->Instance==LTDC)
 384:Core/Src/stm32f4xx_hal_msp.c ****   {
 385:Core/Src/stm32f4xx_hal_msp.c ****   /* USER CODE BEGIN LTDC_MspDeInit 0 */
 386:Core/Src/stm32f4xx_hal_msp.c **** 
 387:Core/Src/stm32f4xx_hal_msp.c ****   /* USER CODE END LTDC_MspDeInit 0 */
 388:Core/Src/stm32f4xx_hal_msp.c ****     /* Peripheral clock disable */
 389:Core/Src/stm32f4xx_hal_msp.c ****     __HAL_RCC_LTDC_CLK_DISABLE();
 390:Core/Src/stm32f4xx_hal_msp.c **** 
 391:Core/Src/stm32f4xx_hal_msp.c ****     /**LTDC GPIO Configuration
 392:Core/Src/stm32f4xx_hal_msp.c ****     PF10     ------> LTDC_DE
 393:Core/Src/stm32f4xx_hal_msp.c ****     PA3     ------> LTDC_B5
 394:Core/Src/stm32f4xx_hal_msp.c ****     PA4     ------> LTDC_VSYNC
 395:Core/Src/stm32f4xx_hal_msp.c ****     PA6     ------> LTDC_G2
 396:Core/Src/stm32f4xx_hal_msp.c ****     PB0     ------> LTDC_R3
 397:Core/Src/stm32f4xx_hal_msp.c ****     PB1     ------> LTDC_R6
 398:Core/Src/stm32f4xx_hal_msp.c ****     PB10     ------> LTDC_G4
 399:Core/Src/stm32f4xx_hal_msp.c ****     PB11     ------> LTDC_G5
 400:Core/Src/stm32f4xx_hal_msp.c ****     PG6     ------> LTDC_R7
 401:Core/Src/stm32f4xx_hal_msp.c ****     PG7     ------> LTDC_CLK
 402:Core/Src/stm32f4xx_hal_msp.c ****     PC6     ------> LTDC_HSYNC
 403:Core/Src/stm32f4xx_hal_msp.c ****     PC7     ------> LTDC_G6
 404:Core/Src/stm32f4xx_hal_msp.c ****     PA11     ------> LTDC_R4
 405:Core/Src/stm32f4xx_hal_msp.c ****     PA12     ------> LTDC_R5
 406:Core/Src/stm32f4xx_hal_msp.c ****     PC10     ------> LTDC_R2
 407:Core/Src/stm32f4xx_hal_msp.c ****     PD3     ------> LTDC_G7
 408:Core/Src/stm32f4xx_hal_msp.c ****     PD6     ------> LTDC_B2
 409:Core/Src/stm32f4xx_hal_msp.c ****     PG10     ------> LTDC_G3
 410:Core/Src/stm32f4xx_hal_msp.c ****     PG11     ------> LTDC_B3
 411:Core/Src/stm32f4xx_hal_msp.c ****     PG12     ------> LTDC_B4
 412:Core/Src/stm32f4xx_hal_msp.c ****     PB8     ------> LTDC_B6
 413:Core/Src/stm32f4xx_hal_msp.c ****     PB9     ------> LTDC_B7
 414:Core/Src/stm32f4xx_hal_msp.c ****     */
 415:Core/Src/stm32f4xx_hal_msp.c ****     HAL_GPIO_DeInit(ENABLE_GPIO_Port, ENABLE_Pin);
 416:Core/Src/stm32f4xx_hal_msp.c **** 
 417:Core/Src/stm32f4xx_hal_msp.c ****     HAL_GPIO_DeInit(GPIOA, B5_Pin|VSYNC_Pin|G2_Pin|R4_Pin
 418:Core/Src/stm32f4xx_hal_msp.c ****                           |R5_Pin);
 419:Core/Src/stm32f4xx_hal_msp.c **** 
 420:Core/Src/stm32f4xx_hal_msp.c ****     HAL_GPIO_DeInit(GPIOB, R3_Pin|R6_Pin|G4_Pin|G5_Pin
 421:Core/Src/stm32f4xx_hal_msp.c ****                           |B6_Pin|B7_Pin);
 422:Core/Src/stm32f4xx_hal_msp.c **** 
 423:Core/Src/stm32f4xx_hal_msp.c ****     HAL_GPIO_DeInit(GPIOG, R7_Pin|DOTCLK_Pin|G3_Pin|B3_Pin
 424:Core/Src/stm32f4xx_hal_msp.c ****                           |B4_Pin);
 425:Core/Src/stm32f4xx_hal_msp.c **** 
 426:Core/Src/stm32f4xx_hal_msp.c ****     HAL_GPIO_DeInit(GPIOC, HSYNC_Pin|G6_Pin|R2_Pin);
 427:Core/Src/stm32f4xx_hal_msp.c **** 
 428:Core/Src/stm32f4xx_hal_msp.c ****     HAL_GPIO_DeInit(GPIOD, G7_Pin|B2_Pin);
 429:Core/Src/stm32f4xx_hal_msp.c **** 
 430:Core/Src/stm32f4xx_hal_msp.c ****     /* LTDC interrupt DeInit */
ARM GAS  C:\Users\stefa\AppData\Local\Temp\ccFxeAQn.s 			page 9


 431:Core/Src/stm32f4xx_hal_msp.c ****     HAL_NVIC_DisableIRQ(LTDC_IRQn);
 432:Core/Src/stm32f4xx_hal_msp.c ****   /* USER CODE BEGIN LTDC_MspDeInit 1 */
 433:Core/Src/stm32f4xx_hal_msp.c **** 
 434:Core/Src/stm32f4xx_hal_msp.c ****   /* USER CODE END LTDC_MspDeInit 1 */
 435:Core/Src/stm32f4xx_hal_msp.c ****   }
 436:Core/Src/stm32f4xx_hal_msp.c **** 
 437:Core/Src/stm32f4xx_hal_msp.c **** }
 438:Core/Src/stm32f4xx_hal_msp.c **** 
 439:Core/Src/stm32f4xx_hal_msp.c **** /**
 440:Core/Src/stm32f4xx_hal_msp.c **** * @brief SPI MSP Initialization
 441:Core/Src/stm32f4xx_hal_msp.c **** * This function configures the hardware resources used in this example
 442:Core/Src/stm32f4xx_hal_msp.c **** * @param hspi: SPI handle pointer
 443:Core/Src/stm32f4xx_hal_msp.c **** * @retval None
 444:Core/Src/stm32f4xx_hal_msp.c **** */
 445:Core/Src/stm32f4xx_hal_msp.c **** void HAL_SPI_MspInit(SPI_HandleTypeDef* hspi)
 446:Core/Src/stm32f4xx_hal_msp.c **** {
 447:Core/Src/stm32f4xx_hal_msp.c ****   GPIO_InitTypeDef GPIO_InitStruct = {0};
 448:Core/Src/stm32f4xx_hal_msp.c ****   if(hspi->Instance==SPI5)
 449:Core/Src/stm32f4xx_hal_msp.c ****   {
 450:Core/Src/stm32f4xx_hal_msp.c ****   /* USER CODE BEGIN SPI5_MspInit 0 */
 451:Core/Src/stm32f4xx_hal_msp.c **** 
 452:Core/Src/stm32f4xx_hal_msp.c ****   /* USER CODE END SPI5_MspInit 0 */
 453:Core/Src/stm32f4xx_hal_msp.c ****     /* Peripheral clock enable */
 454:Core/Src/stm32f4xx_hal_msp.c ****     __HAL_RCC_SPI5_CLK_ENABLE();
 455:Core/Src/stm32f4xx_hal_msp.c **** 
 456:Core/Src/stm32f4xx_hal_msp.c ****     __HAL_RCC_GPIOF_CLK_ENABLE();
 457:Core/Src/stm32f4xx_hal_msp.c ****     /**SPI5 GPIO Configuration
 458:Core/Src/stm32f4xx_hal_msp.c ****     PF7     ------> SPI5_SCK
 459:Core/Src/stm32f4xx_hal_msp.c ****     PF8     ------> SPI5_MISO
 460:Core/Src/stm32f4xx_hal_msp.c ****     PF9     ------> SPI5_MOSI
 461:Core/Src/stm32f4xx_hal_msp.c ****     */
 462:Core/Src/stm32f4xx_hal_msp.c ****     GPIO_InitStruct.Pin = SPI5_SCK_Pin|SPI5_MISO_Pin|SPI5_MOSI_Pin;
 463:Core/Src/stm32f4xx_hal_msp.c ****     GPIO_InitStruct.Mode = GPIO_MODE_AF_PP;
 464:Core/Src/stm32f4xx_hal_msp.c ****     GPIO_InitStruct.Pull = GPIO_NOPULL;
 465:Core/Src/stm32f4xx_hal_msp.c ****     GPIO_InitStruct.Speed = GPIO_SPEED_FREQ_LOW;
 466:Core/Src/stm32f4xx_hal_msp.c ****     GPIO_InitStruct.Alternate = GPIO_AF5_SPI5;
 467:Core/Src/stm32f4xx_hal_msp.c ****     HAL_GPIO_Init(GPIOF, &GPIO_InitStruct);
 468:Core/Src/stm32f4xx_hal_msp.c **** 
 469:Core/Src/stm32f4xx_hal_msp.c ****   /* USER CODE BEGIN SPI5_MspInit 1 */
 470:Core/Src/stm32f4xx_hal_msp.c **** 
 471:Core/Src/stm32f4xx_hal_msp.c ****   /* USER CODE END SPI5_MspInit 1 */
 472:Core/Src/stm32f4xx_hal_msp.c ****   }
 473:Core/Src/stm32f4xx_hal_msp.c **** 
 474:Core/Src/stm32f4xx_hal_msp.c **** }
 475:Core/Src/stm32f4xx_hal_msp.c **** 
 476:Core/Src/stm32f4xx_hal_msp.c **** /**
 477:Core/Src/stm32f4xx_hal_msp.c **** * @brief SPI MSP De-Initialization
 478:Core/Src/stm32f4xx_hal_msp.c **** * This function freeze the hardware resources used in this example
 479:Core/Src/stm32f4xx_hal_msp.c **** * @param hspi: SPI handle pointer
 480:Core/Src/stm32f4xx_hal_msp.c **** * @retval None
 481:Core/Src/stm32f4xx_hal_msp.c **** */
 482:Core/Src/stm32f4xx_hal_msp.c **** void HAL_SPI_MspDeInit(SPI_HandleTypeDef* hspi)
 483:Core/Src/stm32f4xx_hal_msp.c **** {
 484:Core/Src/stm32f4xx_hal_msp.c ****   if(hspi->Instance==SPI5)
 485:Core/Src/stm32f4xx_hal_msp.c ****   {
 486:Core/Src/stm32f4xx_hal_msp.c ****   /* USER CODE BEGIN SPI5_MspDeInit 0 */
 487:Core/Src/stm32f4xx_hal_msp.c **** 
ARM GAS  C:\Users\stefa\AppData\Local\Temp\ccFxeAQn.s 			page 10


 488:Core/Src/stm32f4xx_hal_msp.c ****   /* USER CODE END SPI5_MspDeInit 0 */
 489:Core/Src/stm32f4xx_hal_msp.c ****     /* Peripheral clock disable */
 490:Core/Src/stm32f4xx_hal_msp.c ****     __HAL_RCC_SPI5_CLK_DISABLE();
 491:Core/Src/stm32f4xx_hal_msp.c **** 
 492:Core/Src/stm32f4xx_hal_msp.c ****     /**SPI5 GPIO Configuration
 493:Core/Src/stm32f4xx_hal_msp.c ****     PF7     ------> SPI5_SCK
 494:Core/Src/stm32f4xx_hal_msp.c ****     PF8     ------> SPI5_MISO
 495:Core/Src/stm32f4xx_hal_msp.c ****     PF9     ------> SPI5_MOSI
 496:Core/Src/stm32f4xx_hal_msp.c ****     */
 497:Core/Src/stm32f4xx_hal_msp.c ****     HAL_GPIO_DeInit(GPIOF, SPI5_SCK_Pin|SPI5_MISO_Pin|SPI5_MOSI_Pin);
 498:Core/Src/stm32f4xx_hal_msp.c **** 
 499:Core/Src/stm32f4xx_hal_msp.c ****   /* USER CODE BEGIN SPI5_MspDeInit 1 */
 500:Core/Src/stm32f4xx_hal_msp.c **** 
 501:Core/Src/stm32f4xx_hal_msp.c ****   /* USER CODE END SPI5_MspDeInit 1 */
 502:Core/Src/stm32f4xx_hal_msp.c ****   }
 503:Core/Src/stm32f4xx_hal_msp.c **** 
 504:Core/Src/stm32f4xx_hal_msp.c **** }
 505:Core/Src/stm32f4xx_hal_msp.c **** 
 506:Core/Src/stm32f4xx_hal_msp.c **** /**
 507:Core/Src/stm32f4xx_hal_msp.c **** * @brief TIM_Base MSP Initialization
 508:Core/Src/stm32f4xx_hal_msp.c **** * This function configures the hardware resources used in this example
 509:Core/Src/stm32f4xx_hal_msp.c **** * @param htim_base: TIM_Base handle pointer
 510:Core/Src/stm32f4xx_hal_msp.c **** * @retval None
 511:Core/Src/stm32f4xx_hal_msp.c **** */
 512:Core/Src/stm32f4xx_hal_msp.c **** void HAL_TIM_Base_MspInit(TIM_HandleTypeDef* htim_base)
 513:Core/Src/stm32f4xx_hal_msp.c **** {
 514:Core/Src/stm32f4xx_hal_msp.c ****   if(htim_base->Instance==TIM1)
 515:Core/Src/stm32f4xx_hal_msp.c ****   {
 516:Core/Src/stm32f4xx_hal_msp.c ****   /* USER CODE BEGIN TIM1_MspInit 0 */
 517:Core/Src/stm32f4xx_hal_msp.c **** 
 518:Core/Src/stm32f4xx_hal_msp.c ****   /* USER CODE END TIM1_MspInit 0 */
 519:Core/Src/stm32f4xx_hal_msp.c ****     /* Peripheral clock enable */
 520:Core/Src/stm32f4xx_hal_msp.c ****     __HAL_RCC_TIM1_CLK_ENABLE();
 521:Core/Src/stm32f4xx_hal_msp.c ****   /* USER CODE BEGIN TIM1_MspInit 1 */
 522:Core/Src/stm32f4xx_hal_msp.c **** 
 523:Core/Src/stm32f4xx_hal_msp.c ****   /* USER CODE END TIM1_MspInit 1 */
 524:Core/Src/stm32f4xx_hal_msp.c ****   }
 525:Core/Src/stm32f4xx_hal_msp.c **** 
 526:Core/Src/stm32f4xx_hal_msp.c **** }
 527:Core/Src/stm32f4xx_hal_msp.c **** 
 528:Core/Src/stm32f4xx_hal_msp.c **** /**
 529:Core/Src/stm32f4xx_hal_msp.c **** * @brief TIM_Base MSP De-Initialization
 530:Core/Src/stm32f4xx_hal_msp.c **** * This function freeze the hardware resources used in this example
 531:Core/Src/stm32f4xx_hal_msp.c **** * @param htim_base: TIM_Base handle pointer
 532:Core/Src/stm32f4xx_hal_msp.c **** * @retval None
 533:Core/Src/stm32f4xx_hal_msp.c **** */
 534:Core/Src/stm32f4xx_hal_msp.c **** void HAL_TIM_Base_MspDeInit(TIM_HandleTypeDef* htim_base)
 535:Core/Src/stm32f4xx_hal_msp.c **** {
 536:Core/Src/stm32f4xx_hal_msp.c ****   if(htim_base->Instance==TIM1)
 537:Core/Src/stm32f4xx_hal_msp.c ****   {
 538:Core/Src/stm32f4xx_hal_msp.c ****   /* USER CODE BEGIN TIM1_MspDeInit 0 */
 539:Core/Src/stm32f4xx_hal_msp.c **** 
 540:Core/Src/stm32f4xx_hal_msp.c ****   /* USER CODE END TIM1_MspDeInit 0 */
 541:Core/Src/stm32f4xx_hal_msp.c ****     /* Peripheral clock disable */
 542:Core/Src/stm32f4xx_hal_msp.c ****     __HAL_RCC_TIM1_CLK_DISABLE();
 543:Core/Src/stm32f4xx_hal_msp.c ****   /* USER CODE BEGIN TIM1_MspDeInit 1 */
 544:Core/Src/stm32f4xx_hal_msp.c **** 
ARM GAS  C:\Users\stefa\AppData\Local\Temp\ccFxeAQn.s 			page 11


 545:Core/Src/stm32f4xx_hal_msp.c ****   /* USER CODE END TIM1_MspDeInit 1 */
 546:Core/Src/stm32f4xx_hal_msp.c ****   }
 547:Core/Src/stm32f4xx_hal_msp.c **** 
 548:Core/Src/stm32f4xx_hal_msp.c **** }
 549:Core/Src/stm32f4xx_hal_msp.c **** 
 550:Core/Src/stm32f4xx_hal_msp.c **** /**
 551:Core/Src/stm32f4xx_hal_msp.c **** * @brief UART MSP Initialization
 552:Core/Src/stm32f4xx_hal_msp.c **** * This function configures the hardware resources used in this example
 553:Core/Src/stm32f4xx_hal_msp.c **** * @param huart: UART handle pointer
 554:Core/Src/stm32f4xx_hal_msp.c **** * @retval None
 555:Core/Src/stm32f4xx_hal_msp.c **** */
 556:Core/Src/stm32f4xx_hal_msp.c **** void HAL_UART_MspInit(UART_HandleTypeDef* huart)
 557:Core/Src/stm32f4xx_hal_msp.c **** {
 558:Core/Src/stm32f4xx_hal_msp.c ****   GPIO_InitTypeDef GPIO_InitStruct = {0};
 559:Core/Src/stm32f4xx_hal_msp.c ****   if(huart->Instance==USART1)
 560:Core/Src/stm32f4xx_hal_msp.c ****   {
 561:Core/Src/stm32f4xx_hal_msp.c ****   /* USER CODE BEGIN USART1_MspInit 0 */
 562:Core/Src/stm32f4xx_hal_msp.c **** 
 563:Core/Src/stm32f4xx_hal_msp.c ****   /* USER CODE END USART1_MspInit 0 */
 564:Core/Src/stm32f4xx_hal_msp.c ****     /* Peripheral clock enable */
 565:Core/Src/stm32f4xx_hal_msp.c ****     __HAL_RCC_USART1_CLK_ENABLE();
 566:Core/Src/stm32f4xx_hal_msp.c **** 
 567:Core/Src/stm32f4xx_hal_msp.c ****     __HAL_RCC_GPIOA_CLK_ENABLE();
 568:Core/Src/stm32f4xx_hal_msp.c ****     /**USART1 GPIO Configuration
 569:Core/Src/stm32f4xx_hal_msp.c ****     PA9     ------> USART1_TX
 570:Core/Src/stm32f4xx_hal_msp.c ****     PA10     ------> USART1_RX
 571:Core/Src/stm32f4xx_hal_msp.c ****     */
 572:Core/Src/stm32f4xx_hal_msp.c ****     GPIO_InitStruct.Pin = STLINK_RX_Pin|STLINK_TX_Pin;
 573:Core/Src/stm32f4xx_hal_msp.c ****     GPIO_InitStruct.Mode = GPIO_MODE_AF_PP;
 574:Core/Src/stm32f4xx_hal_msp.c ****     GPIO_InitStruct.Pull = GPIO_NOPULL;
 575:Core/Src/stm32f4xx_hal_msp.c ****     GPIO_InitStruct.Speed = GPIO_SPEED_FREQ_VERY_HIGH;
 576:Core/Src/stm32f4xx_hal_msp.c ****     GPIO_InitStruct.Alternate = GPIO_AF7_USART1;
 577:Core/Src/stm32f4xx_hal_msp.c ****     HAL_GPIO_Init(GPIOA, &GPIO_InitStruct);
 578:Core/Src/stm32f4xx_hal_msp.c **** 
 579:Core/Src/stm32f4xx_hal_msp.c ****   /* USER CODE BEGIN USART1_MspInit 1 */
 580:Core/Src/stm32f4xx_hal_msp.c **** 
 581:Core/Src/stm32f4xx_hal_msp.c ****   /* USER CODE END USART1_MspInit 1 */
 582:Core/Src/stm32f4xx_hal_msp.c ****   }
 583:Core/Src/stm32f4xx_hal_msp.c **** 
 584:Core/Src/stm32f4xx_hal_msp.c **** }
 585:Core/Src/stm32f4xx_hal_msp.c **** 
 586:Core/Src/stm32f4xx_hal_msp.c **** /**
 587:Core/Src/stm32f4xx_hal_msp.c **** * @brief UART MSP De-Initialization
 588:Core/Src/stm32f4xx_hal_msp.c **** * This function freeze the hardware resources used in this example
 589:Core/Src/stm32f4xx_hal_msp.c **** * @param huart: UART handle pointer
 590:Core/Src/stm32f4xx_hal_msp.c **** * @retval None
 591:Core/Src/stm32f4xx_hal_msp.c **** */
 592:Core/Src/stm32f4xx_hal_msp.c **** void HAL_UART_MspDeInit(UART_HandleTypeDef* huart)
 593:Core/Src/stm32f4xx_hal_msp.c **** {
 594:Core/Src/stm32f4xx_hal_msp.c ****   if(huart->Instance==USART1)
 595:Core/Src/stm32f4xx_hal_msp.c ****   {
 596:Core/Src/stm32f4xx_hal_msp.c ****   /* USER CODE BEGIN USART1_MspDeInit 0 */
 597:Core/Src/stm32f4xx_hal_msp.c **** 
 598:Core/Src/stm32f4xx_hal_msp.c ****   /* USER CODE END USART1_MspDeInit 0 */
 599:Core/Src/stm32f4xx_hal_msp.c ****     /* Peripheral clock disable */
 600:Core/Src/stm32f4xx_hal_msp.c ****     __HAL_RCC_USART1_CLK_DISABLE();
 601:Core/Src/stm32f4xx_hal_msp.c **** 
ARM GAS  C:\Users\stefa\AppData\Local\Temp\ccFxeAQn.s 			page 12


 602:Core/Src/stm32f4xx_hal_msp.c ****     /**USART1 GPIO Configuration
 603:Core/Src/stm32f4xx_hal_msp.c ****     PA9     ------> USART1_TX
 604:Core/Src/stm32f4xx_hal_msp.c ****     PA10     ------> USART1_RX
 605:Core/Src/stm32f4xx_hal_msp.c ****     */
 606:Core/Src/stm32f4xx_hal_msp.c ****     HAL_GPIO_DeInit(GPIOA, STLINK_RX_Pin|STLINK_TX_Pin);
 607:Core/Src/stm32f4xx_hal_msp.c **** 
 608:Core/Src/stm32f4xx_hal_msp.c ****   /* USER CODE BEGIN USART1_MspDeInit 1 */
 609:Core/Src/stm32f4xx_hal_msp.c **** 
 610:Core/Src/stm32f4xx_hal_msp.c ****   /* USER CODE END USART1_MspDeInit 1 */
 611:Core/Src/stm32f4xx_hal_msp.c ****   }
 612:Core/Src/stm32f4xx_hal_msp.c **** 
 613:Core/Src/stm32f4xx_hal_msp.c **** }
 614:Core/Src/stm32f4xx_hal_msp.c **** 
 615:Core/Src/stm32f4xx_hal_msp.c **** static uint32_t FMC_Initialized = 0;
 616:Core/Src/stm32f4xx_hal_msp.c **** 
 617:Core/Src/stm32f4xx_hal_msp.c **** static void HAL_FMC_MspInit(void){
  28              		.loc 1 617 34 view -0
  29              		.cfi_startproc
  30              		@ args = 0, pretend = 0, frame = 24
  31              		@ frame_needed = 0, uses_anonymous_args = 0
  32 0000 2DE9F041 		push	{r4, r5, r6, r7, r8, lr}
  33              	.LCFI0:
  34              		.cfi_def_cfa_offset 24
  35              		.cfi_offset 4, -24
  36              		.cfi_offset 5, -20
  37              		.cfi_offset 6, -16
  38              		.cfi_offset 7, -12
  39              		.cfi_offset 8, -8
  40              		.cfi_offset 14, -4
  41 0004 86B0     		sub	sp, sp, #24
  42              	.LCFI1:
  43              		.cfi_def_cfa_offset 48
 618:Core/Src/stm32f4xx_hal_msp.c ****   /* USER CODE BEGIN FMC_MspInit 0 */
 619:Core/Src/stm32f4xx_hal_msp.c **** 
 620:Core/Src/stm32f4xx_hal_msp.c ****   /* USER CODE END FMC_MspInit 0 */
 621:Core/Src/stm32f4xx_hal_msp.c ****   GPIO_InitTypeDef GPIO_InitStruct ={0};
  44              		.loc 1 621 3 view .LVU1
  45              		.loc 1 621 20 is_stmt 0 view .LVU2
  46 0006 0023     		movs	r3, #0
  47 0008 0193     		str	r3, [sp, #4]
  48 000a 0293     		str	r3, [sp, #8]
  49 000c 0393     		str	r3, [sp, #12]
  50 000e 0493     		str	r3, [sp, #16]
  51 0010 0593     		str	r3, [sp, #20]
 622:Core/Src/stm32f4xx_hal_msp.c ****   if (FMC_Initialized) {
  52              		.loc 1 622 3 is_stmt 1 view .LVU3
  53              		.loc 1 622 7 is_stmt 0 view .LVU4
  54 0012 2D4B     		ldr	r3, .L6
  55 0014 1B68     		ldr	r3, [r3]
  56              		.loc 1 622 6 view .LVU5
  57 0016 13B1     		cbz	r3, .L5
  58              	.L1:
 623:Core/Src/stm32f4xx_hal_msp.c ****     return;
 624:Core/Src/stm32f4xx_hal_msp.c ****   }
 625:Core/Src/stm32f4xx_hal_msp.c ****   FMC_Initialized = 1;
 626:Core/Src/stm32f4xx_hal_msp.c **** 
 627:Core/Src/stm32f4xx_hal_msp.c ****   /* Peripheral clock enable */
ARM GAS  C:\Users\stefa\AppData\Local\Temp\ccFxeAQn.s 			page 13


 628:Core/Src/stm32f4xx_hal_msp.c ****   __HAL_RCC_FMC_CLK_ENABLE();
 629:Core/Src/stm32f4xx_hal_msp.c **** 
 630:Core/Src/stm32f4xx_hal_msp.c ****   /** FMC GPIO Configuration
 631:Core/Src/stm32f4xx_hal_msp.c ****   PF0   ------> FMC_A0
 632:Core/Src/stm32f4xx_hal_msp.c ****   PF1   ------> FMC_A1
 633:Core/Src/stm32f4xx_hal_msp.c ****   PF2   ------> FMC_A2
 634:Core/Src/stm32f4xx_hal_msp.c ****   PF3   ------> FMC_A3
 635:Core/Src/stm32f4xx_hal_msp.c ****   PF4   ------> FMC_A4
 636:Core/Src/stm32f4xx_hal_msp.c ****   PF5   ------> FMC_A5
 637:Core/Src/stm32f4xx_hal_msp.c ****   PC0   ------> FMC_SDNWE
 638:Core/Src/stm32f4xx_hal_msp.c ****   PF11   ------> FMC_SDNRAS
 639:Core/Src/stm32f4xx_hal_msp.c ****   PF12   ------> FMC_A6
 640:Core/Src/stm32f4xx_hal_msp.c ****   PF13   ------> FMC_A7
 641:Core/Src/stm32f4xx_hal_msp.c ****   PF14   ------> FMC_A8
 642:Core/Src/stm32f4xx_hal_msp.c ****   PF15   ------> FMC_A9
 643:Core/Src/stm32f4xx_hal_msp.c ****   PG0   ------> FMC_A10
 644:Core/Src/stm32f4xx_hal_msp.c ****   PG1   ------> FMC_A11
 645:Core/Src/stm32f4xx_hal_msp.c ****   PE7   ------> FMC_D4
 646:Core/Src/stm32f4xx_hal_msp.c ****   PE8   ------> FMC_D5
 647:Core/Src/stm32f4xx_hal_msp.c ****   PE9   ------> FMC_D6
 648:Core/Src/stm32f4xx_hal_msp.c ****   PE10   ------> FMC_D7
 649:Core/Src/stm32f4xx_hal_msp.c ****   PE11   ------> FMC_D8
 650:Core/Src/stm32f4xx_hal_msp.c ****   PE12   ------> FMC_D9
 651:Core/Src/stm32f4xx_hal_msp.c ****   PE13   ------> FMC_D10
 652:Core/Src/stm32f4xx_hal_msp.c ****   PE14   ------> FMC_D11
 653:Core/Src/stm32f4xx_hal_msp.c ****   PE15   ------> FMC_D12
 654:Core/Src/stm32f4xx_hal_msp.c ****   PD8   ------> FMC_D13
 655:Core/Src/stm32f4xx_hal_msp.c ****   PD9   ------> FMC_D14
 656:Core/Src/stm32f4xx_hal_msp.c ****   PD10   ------> FMC_D15
 657:Core/Src/stm32f4xx_hal_msp.c ****   PD14   ------> FMC_D0
 658:Core/Src/stm32f4xx_hal_msp.c ****   PD15   ------> FMC_D1
 659:Core/Src/stm32f4xx_hal_msp.c ****   PG4   ------> FMC_BA0
 660:Core/Src/stm32f4xx_hal_msp.c ****   PG5   ------> FMC_BA1
 661:Core/Src/stm32f4xx_hal_msp.c ****   PG8   ------> FMC_SDCLK
 662:Core/Src/stm32f4xx_hal_msp.c ****   PD0   ------> FMC_D2
 663:Core/Src/stm32f4xx_hal_msp.c ****   PD1   ------> FMC_D3
 664:Core/Src/stm32f4xx_hal_msp.c ****   PG15   ------> FMC_SDNCAS
 665:Core/Src/stm32f4xx_hal_msp.c ****   PB5   ------> FMC_SDCKE1
 666:Core/Src/stm32f4xx_hal_msp.c ****   PB6   ------> FMC_SDNE1
 667:Core/Src/stm32f4xx_hal_msp.c ****   PE0   ------> FMC_NBL0
 668:Core/Src/stm32f4xx_hal_msp.c ****   PE1   ------> FMC_NBL1
 669:Core/Src/stm32f4xx_hal_msp.c ****   */
 670:Core/Src/stm32f4xx_hal_msp.c ****   GPIO_InitStruct.Pin = A0_Pin|A1_Pin|A2_Pin|A3_Pin
 671:Core/Src/stm32f4xx_hal_msp.c ****                           |A4_Pin|A5_Pin|SDNRAS_Pin|A6_Pin
 672:Core/Src/stm32f4xx_hal_msp.c ****                           |A7_Pin|A8_Pin|A9_Pin;
 673:Core/Src/stm32f4xx_hal_msp.c ****   GPIO_InitStruct.Mode = GPIO_MODE_AF_PP;
 674:Core/Src/stm32f4xx_hal_msp.c ****   GPIO_InitStruct.Pull = GPIO_NOPULL;
 675:Core/Src/stm32f4xx_hal_msp.c ****   GPIO_InitStruct.Speed = GPIO_SPEED_FREQ_VERY_HIGH;
 676:Core/Src/stm32f4xx_hal_msp.c ****   GPIO_InitStruct.Alternate = GPIO_AF12_FMC;
 677:Core/Src/stm32f4xx_hal_msp.c ****   HAL_GPIO_Init(GPIOF, &GPIO_InitStruct);
 678:Core/Src/stm32f4xx_hal_msp.c **** 
 679:Core/Src/stm32f4xx_hal_msp.c ****   GPIO_InitStruct.Pin = SDNWE_Pin;
 680:Core/Src/stm32f4xx_hal_msp.c ****   GPIO_InitStruct.Mode = GPIO_MODE_AF_PP;
 681:Core/Src/stm32f4xx_hal_msp.c ****   GPIO_InitStruct.Pull = GPIO_NOPULL;
 682:Core/Src/stm32f4xx_hal_msp.c ****   GPIO_InitStruct.Speed = GPIO_SPEED_FREQ_VERY_HIGH;
 683:Core/Src/stm32f4xx_hal_msp.c ****   GPIO_InitStruct.Alternate = GPIO_AF12_FMC;
 684:Core/Src/stm32f4xx_hal_msp.c ****   HAL_GPIO_Init(SDNWE_GPIO_Port, &GPIO_InitStruct);
ARM GAS  C:\Users\stefa\AppData\Local\Temp\ccFxeAQn.s 			page 14


 685:Core/Src/stm32f4xx_hal_msp.c **** 
 686:Core/Src/stm32f4xx_hal_msp.c ****   GPIO_InitStruct.Pin = A10_Pin|A11_Pin|BA0_Pin|BA1_Pin
 687:Core/Src/stm32f4xx_hal_msp.c ****                           |SDCLK_Pin|SDNCAS_Pin;
 688:Core/Src/stm32f4xx_hal_msp.c ****   GPIO_InitStruct.Mode = GPIO_MODE_AF_PP;
 689:Core/Src/stm32f4xx_hal_msp.c ****   GPIO_InitStruct.Pull = GPIO_NOPULL;
 690:Core/Src/stm32f4xx_hal_msp.c ****   GPIO_InitStruct.Speed = GPIO_SPEED_FREQ_VERY_HIGH;
 691:Core/Src/stm32f4xx_hal_msp.c ****   GPIO_InitStruct.Alternate = GPIO_AF12_FMC;
 692:Core/Src/stm32f4xx_hal_msp.c ****   HAL_GPIO_Init(GPIOG, &GPIO_InitStruct);
 693:Core/Src/stm32f4xx_hal_msp.c **** 
 694:Core/Src/stm32f4xx_hal_msp.c ****   GPIO_InitStruct.Pin = D4_Pin|D5_Pin|D6_Pin|D7_Pin
 695:Core/Src/stm32f4xx_hal_msp.c ****                           |D8_Pin|D9_Pin|D10_Pin|D11_Pin
 696:Core/Src/stm32f4xx_hal_msp.c ****                           |D12_Pin|NBL0_Pin|NBL1_Pin;
 697:Core/Src/stm32f4xx_hal_msp.c ****   GPIO_InitStruct.Mode = GPIO_MODE_AF_PP;
 698:Core/Src/stm32f4xx_hal_msp.c ****   GPIO_InitStruct.Pull = GPIO_NOPULL;
 699:Core/Src/stm32f4xx_hal_msp.c ****   GPIO_InitStruct.Speed = GPIO_SPEED_FREQ_VERY_HIGH;
 700:Core/Src/stm32f4xx_hal_msp.c ****   GPIO_InitStruct.Alternate = GPIO_AF12_FMC;
 701:Core/Src/stm32f4xx_hal_msp.c ****   HAL_GPIO_Init(GPIOE, &GPIO_InitStruct);
 702:Core/Src/stm32f4xx_hal_msp.c **** 
 703:Core/Src/stm32f4xx_hal_msp.c ****   GPIO_InitStruct.Pin = D13_Pin|D14_Pin|D15_Pin|D0_Pin
 704:Core/Src/stm32f4xx_hal_msp.c ****                           |D1_Pin|D2_Pin|D3_Pin;
 705:Core/Src/stm32f4xx_hal_msp.c ****   GPIO_InitStruct.Mode = GPIO_MODE_AF_PP;
 706:Core/Src/stm32f4xx_hal_msp.c ****   GPIO_InitStruct.Pull = GPIO_NOPULL;
 707:Core/Src/stm32f4xx_hal_msp.c ****   GPIO_InitStruct.Speed = GPIO_SPEED_FREQ_VERY_HIGH;
 708:Core/Src/stm32f4xx_hal_msp.c ****   GPIO_InitStruct.Alternate = GPIO_AF12_FMC;
 709:Core/Src/stm32f4xx_hal_msp.c ****   HAL_GPIO_Init(GPIOD, &GPIO_InitStruct);
 710:Core/Src/stm32f4xx_hal_msp.c **** 
 711:Core/Src/stm32f4xx_hal_msp.c ****   GPIO_InitStruct.Pin = SDCKE1_Pin|SDNE1_Pin;
 712:Core/Src/stm32f4xx_hal_msp.c ****   GPIO_InitStruct.Mode = GPIO_MODE_AF_PP;
 713:Core/Src/stm32f4xx_hal_msp.c ****   GPIO_InitStruct.Pull = GPIO_NOPULL;
 714:Core/Src/stm32f4xx_hal_msp.c ****   GPIO_InitStruct.Speed = GPIO_SPEED_FREQ_VERY_HIGH;
 715:Core/Src/stm32f4xx_hal_msp.c ****   GPIO_InitStruct.Alternate = GPIO_AF12_FMC;
 716:Core/Src/stm32f4xx_hal_msp.c ****   HAL_GPIO_Init(GPIOB, &GPIO_InitStruct);
 717:Core/Src/stm32f4xx_hal_msp.c **** 
 718:Core/Src/stm32f4xx_hal_msp.c ****   /* USER CODE BEGIN FMC_MspInit 1 */
 719:Core/Src/stm32f4xx_hal_msp.c **** 
 720:Core/Src/stm32f4xx_hal_msp.c ****   /* USER CODE END FMC_MspInit 1 */
 721:Core/Src/stm32f4xx_hal_msp.c **** }
  59              		.loc 1 721 1 view .LVU6
  60 0018 06B0     		add	sp, sp, #24
  61              	.LCFI2:
  62              		.cfi_remember_state
  63              		.cfi_def_cfa_offset 24
  64              		@ sp needed
  65 001a BDE8F081 		pop	{r4, r5, r6, r7, r8, pc}
  66              	.L5:
  67              	.LCFI3:
  68              		.cfi_restore_state
 625:Core/Src/stm32f4xx_hal_msp.c **** 
  69              		.loc 1 625 3 is_stmt 1 view .LVU7
 625:Core/Src/stm32f4xx_hal_msp.c **** 
  70              		.loc 1 625 19 is_stmt 0 view .LVU8
  71 001e 4FF00108 		mov	r8, #1
  72 0022 294B     		ldr	r3, .L6
  73 0024 C3F80080 		str	r8, [r3]
 628:Core/Src/stm32f4xx_hal_msp.c **** 
  74              		.loc 1 628 3 is_stmt 1 view .LVU9
  75              	.LBB2:
ARM GAS  C:\Users\stefa\AppData\Local\Temp\ccFxeAQn.s 			page 15


 628:Core/Src/stm32f4xx_hal_msp.c **** 
  76              		.loc 1 628 3 view .LVU10
  77 0028 0026     		movs	r6, #0
  78 002a 0096     		str	r6, [sp]
 628:Core/Src/stm32f4xx_hal_msp.c **** 
  79              		.loc 1 628 3 view .LVU11
  80 002c 274B     		ldr	r3, .L6+4
  81 002e 9A6B     		ldr	r2, [r3, #56]
  82 0030 42EA0802 		orr	r2, r2, r8
  83 0034 9A63     		str	r2, [r3, #56]
 628:Core/Src/stm32f4xx_hal_msp.c **** 
  84              		.loc 1 628 3 view .LVU12
  85 0036 9B6B     		ldr	r3, [r3, #56]
  86 0038 03EA0803 		and	r3, r3, r8
  87 003c 0093     		str	r3, [sp]
 628:Core/Src/stm32f4xx_hal_msp.c **** 
  88              		.loc 1 628 3 view .LVU13
  89 003e 009B     		ldr	r3, [sp]
  90              	.LBE2:
 628:Core/Src/stm32f4xx_hal_msp.c **** 
  91              		.loc 1 628 3 view .LVU14
 670:Core/Src/stm32f4xx_hal_msp.c ****                           |A4_Pin|A5_Pin|SDNRAS_Pin|A6_Pin
  92              		.loc 1 670 3 view .LVU15
 670:Core/Src/stm32f4xx_hal_msp.c ****                           |A4_Pin|A5_Pin|SDNRAS_Pin|A6_Pin
  93              		.loc 1 670 23 is_stmt 0 view .LVU16
  94 0040 4FF63F03 		movw	r3, #63551
  95 0044 0193     		str	r3, [sp, #4]
 673:Core/Src/stm32f4xx_hal_msp.c ****   GPIO_InitStruct.Pull = GPIO_NOPULL;
  96              		.loc 1 673 3 is_stmt 1 view .LVU17
 673:Core/Src/stm32f4xx_hal_msp.c ****   GPIO_InitStruct.Pull = GPIO_NOPULL;
  97              		.loc 1 673 24 is_stmt 0 view .LVU18
  98 0046 0227     		movs	r7, #2
  99 0048 0297     		str	r7, [sp, #8]
 674:Core/Src/stm32f4xx_hal_msp.c ****   GPIO_InitStruct.Speed = GPIO_SPEED_FREQ_VERY_HIGH;
 100              		.loc 1 674 3 is_stmt 1 view .LVU19
 675:Core/Src/stm32f4xx_hal_msp.c ****   GPIO_InitStruct.Alternate = GPIO_AF12_FMC;
 101              		.loc 1 675 3 view .LVU20
 675:Core/Src/stm32f4xx_hal_msp.c ****   GPIO_InitStruct.Alternate = GPIO_AF12_FMC;
 102              		.loc 1 675 25 is_stmt 0 view .LVU21
 103 004a 0325     		movs	r5, #3
 104 004c 0495     		str	r5, [sp, #16]
 676:Core/Src/stm32f4xx_hal_msp.c ****   HAL_GPIO_Init(GPIOF, &GPIO_InitStruct);
 105              		.loc 1 676 3 is_stmt 1 view .LVU22
 676:Core/Src/stm32f4xx_hal_msp.c ****   HAL_GPIO_Init(GPIOF, &GPIO_InitStruct);
 106              		.loc 1 676 29 is_stmt 0 view .LVU23
 107 004e 0C24     		movs	r4, #12
 108 0050 0594     		str	r4, [sp, #20]
 677:Core/Src/stm32f4xx_hal_msp.c **** 
 109              		.loc 1 677 3 is_stmt 1 view .LVU24
 110 0052 01A9     		add	r1, sp, #4
 111 0054 1E48     		ldr	r0, .L6+8
 112 0056 FFF7FEFF 		bl	HAL_GPIO_Init
 113              	.LVL0:
 679:Core/Src/stm32f4xx_hal_msp.c ****   GPIO_InitStruct.Mode = GPIO_MODE_AF_PP;
 114              		.loc 1 679 3 view .LVU25
 679:Core/Src/stm32f4xx_hal_msp.c ****   GPIO_InitStruct.Mode = GPIO_MODE_AF_PP;
 115              		.loc 1 679 23 is_stmt 0 view .LVU26
ARM GAS  C:\Users\stefa\AppData\Local\Temp\ccFxeAQn.s 			page 16


 116 005a CDF80480 		str	r8, [sp, #4]
 680:Core/Src/stm32f4xx_hal_msp.c ****   GPIO_InitStruct.Pull = GPIO_NOPULL;
 117              		.loc 1 680 3 is_stmt 1 view .LVU27
 680:Core/Src/stm32f4xx_hal_msp.c ****   GPIO_InitStruct.Pull = GPIO_NOPULL;
 118              		.loc 1 680 24 is_stmt 0 view .LVU28
 119 005e 0297     		str	r7, [sp, #8]
 681:Core/Src/stm32f4xx_hal_msp.c ****   GPIO_InitStruct.Speed = GPIO_SPEED_FREQ_VERY_HIGH;
 120              		.loc 1 681 3 is_stmt 1 view .LVU29
 681:Core/Src/stm32f4xx_hal_msp.c ****   GPIO_InitStruct.Speed = GPIO_SPEED_FREQ_VERY_HIGH;
 121              		.loc 1 681 24 is_stmt 0 view .LVU30
 122 0060 0396     		str	r6, [sp, #12]
 682:Core/Src/stm32f4xx_hal_msp.c ****   GPIO_InitStruct.Alternate = GPIO_AF12_FMC;
 123              		.loc 1 682 3 is_stmt 1 view .LVU31
 682:Core/Src/stm32f4xx_hal_msp.c ****   GPIO_InitStruct.Alternate = GPIO_AF12_FMC;
 124              		.loc 1 682 25 is_stmt 0 view .LVU32
 125 0062 0495     		str	r5, [sp, #16]
 683:Core/Src/stm32f4xx_hal_msp.c ****   HAL_GPIO_Init(SDNWE_GPIO_Port, &GPIO_InitStruct);
 126              		.loc 1 683 3 is_stmt 1 view .LVU33
 683:Core/Src/stm32f4xx_hal_msp.c ****   HAL_GPIO_Init(SDNWE_GPIO_Port, &GPIO_InitStruct);
 127              		.loc 1 683 29 is_stmt 0 view .LVU34
 128 0064 0594     		str	r4, [sp, #20]
 684:Core/Src/stm32f4xx_hal_msp.c **** 
 129              		.loc 1 684 3 is_stmt 1 view .LVU35
 130 0066 01A9     		add	r1, sp, #4
 131 0068 1A48     		ldr	r0, .L6+12
 132 006a FFF7FEFF 		bl	HAL_GPIO_Init
 133              	.LVL1:
 686:Core/Src/stm32f4xx_hal_msp.c ****                           |SDCLK_Pin|SDNCAS_Pin;
 134              		.loc 1 686 3 view .LVU36
 686:Core/Src/stm32f4xx_hal_msp.c ****                           |SDCLK_Pin|SDNCAS_Pin;
 135              		.loc 1 686 23 is_stmt 0 view .LVU37
 136 006e 48F23313 		movw	r3, #33075
 137 0072 0193     		str	r3, [sp, #4]
 688:Core/Src/stm32f4xx_hal_msp.c ****   GPIO_InitStruct.Pull = GPIO_NOPULL;
 138              		.loc 1 688 3 is_stmt 1 view .LVU38
 688:Core/Src/stm32f4xx_hal_msp.c ****   GPIO_InitStruct.Pull = GPIO_NOPULL;
 139              		.loc 1 688 24 is_stmt 0 view .LVU39
 140 0074 0297     		str	r7, [sp, #8]
 689:Core/Src/stm32f4xx_hal_msp.c ****   GPIO_InitStruct.Speed = GPIO_SPEED_FREQ_VERY_HIGH;
 141              		.loc 1 689 3 is_stmt 1 view .LVU40
 689:Core/Src/stm32f4xx_hal_msp.c ****   GPIO_InitStruct.Speed = GPIO_SPEED_FREQ_VERY_HIGH;
 142              		.loc 1 689 24 is_stmt 0 view .LVU41
 143 0076 0396     		str	r6, [sp, #12]
 690:Core/Src/stm32f4xx_hal_msp.c ****   GPIO_InitStruct.Alternate = GPIO_AF12_FMC;
 144              		.loc 1 690 3 is_stmt 1 view .LVU42
 690:Core/Src/stm32f4xx_hal_msp.c ****   GPIO_InitStruct.Alternate = GPIO_AF12_FMC;
 145              		.loc 1 690 25 is_stmt 0 view .LVU43
 146 0078 0495     		str	r5, [sp, #16]
 691:Core/Src/stm32f4xx_hal_msp.c ****   HAL_GPIO_Init(GPIOG, &GPIO_InitStruct);
 147              		.loc 1 691 3 is_stmt 1 view .LVU44
 691:Core/Src/stm32f4xx_hal_msp.c ****   HAL_GPIO_Init(GPIOG, &GPIO_InitStruct);
 148              		.loc 1 691 29 is_stmt 0 view .LVU45
 149 007a 0594     		str	r4, [sp, #20]
 692:Core/Src/stm32f4xx_hal_msp.c **** 
 150              		.loc 1 692 3 is_stmt 1 view .LVU46
 151 007c 01A9     		add	r1, sp, #4
 152 007e 1648     		ldr	r0, .L6+16
ARM GAS  C:\Users\stefa\AppData\Local\Temp\ccFxeAQn.s 			page 17


 153 0080 FFF7FEFF 		bl	HAL_GPIO_Init
 154              	.LVL2:
 694:Core/Src/stm32f4xx_hal_msp.c ****                           |D8_Pin|D9_Pin|D10_Pin|D11_Pin
 155              		.loc 1 694 3 view .LVU47
 694:Core/Src/stm32f4xx_hal_msp.c ****                           |D8_Pin|D9_Pin|D10_Pin|D11_Pin
 156              		.loc 1 694 23 is_stmt 0 view .LVU48
 157 0084 4FF68373 		movw	r3, #65411
 158 0088 0193     		str	r3, [sp, #4]
 697:Core/Src/stm32f4xx_hal_msp.c ****   GPIO_InitStruct.Pull = GPIO_NOPULL;
 159              		.loc 1 697 3 is_stmt 1 view .LVU49
 697:Core/Src/stm32f4xx_hal_msp.c ****   GPIO_InitStruct.Pull = GPIO_NOPULL;
 160              		.loc 1 697 24 is_stmt 0 view .LVU50
 161 008a 0297     		str	r7, [sp, #8]
 698:Core/Src/stm32f4xx_hal_msp.c ****   GPIO_InitStruct.Speed = GPIO_SPEED_FREQ_VERY_HIGH;
 162              		.loc 1 698 3 is_stmt 1 view .LVU51
 698:Core/Src/stm32f4xx_hal_msp.c ****   GPIO_InitStruct.Speed = GPIO_SPEED_FREQ_VERY_HIGH;
 163              		.loc 1 698 24 is_stmt 0 view .LVU52
 164 008c 0396     		str	r6, [sp, #12]
 699:Core/Src/stm32f4xx_hal_msp.c ****   GPIO_InitStruct.Alternate = GPIO_AF12_FMC;
 165              		.loc 1 699 3 is_stmt 1 view .LVU53
 699:Core/Src/stm32f4xx_hal_msp.c ****   GPIO_InitStruct.Alternate = GPIO_AF12_FMC;
 166              		.loc 1 699 25 is_stmt 0 view .LVU54
 167 008e 0495     		str	r5, [sp, #16]
 700:Core/Src/stm32f4xx_hal_msp.c ****   HAL_GPIO_Init(GPIOE, &GPIO_InitStruct);
 168              		.loc 1 700 3 is_stmt 1 view .LVU55
 700:Core/Src/stm32f4xx_hal_msp.c ****   HAL_GPIO_Init(GPIOE, &GPIO_InitStruct);
 169              		.loc 1 700 29 is_stmt 0 view .LVU56
 170 0090 0594     		str	r4, [sp, #20]
 701:Core/Src/stm32f4xx_hal_msp.c **** 
 171              		.loc 1 701 3 is_stmt 1 view .LVU57
 172 0092 01A9     		add	r1, sp, #4
 173 0094 1148     		ldr	r0, .L6+20
 174 0096 FFF7FEFF 		bl	HAL_GPIO_Init
 175              	.LVL3:
 703:Core/Src/stm32f4xx_hal_msp.c ****                           |D1_Pin|D2_Pin|D3_Pin;
 176              		.loc 1 703 3 view .LVU58
 703:Core/Src/stm32f4xx_hal_msp.c ****                           |D1_Pin|D2_Pin|D3_Pin;
 177              		.loc 1 703 23 is_stmt 0 view .LVU59
 178 009a 4CF20373 		movw	r3, #50947
 179 009e 0193     		str	r3, [sp, #4]
 705:Core/Src/stm32f4xx_hal_msp.c ****   GPIO_InitStruct.Pull = GPIO_NOPULL;
 180              		.loc 1 705 3 is_stmt 1 view .LVU60
 705:Core/Src/stm32f4xx_hal_msp.c ****   GPIO_InitStruct.Pull = GPIO_NOPULL;
 181              		.loc 1 705 24 is_stmt 0 view .LVU61
 182 00a0 0297     		str	r7, [sp, #8]
 706:Core/Src/stm32f4xx_hal_msp.c ****   GPIO_InitStruct.Speed = GPIO_SPEED_FREQ_VERY_HIGH;
 183              		.loc 1 706 3 is_stmt 1 view .LVU62
 706:Core/Src/stm32f4xx_hal_msp.c ****   GPIO_InitStruct.Speed = GPIO_SPEED_FREQ_VERY_HIGH;
 184              		.loc 1 706 24 is_stmt 0 view .LVU63
 185 00a2 0396     		str	r6, [sp, #12]
 707:Core/Src/stm32f4xx_hal_msp.c ****   GPIO_InitStruct.Alternate = GPIO_AF12_FMC;
 186              		.loc 1 707 3 is_stmt 1 view .LVU64
 707:Core/Src/stm32f4xx_hal_msp.c ****   GPIO_InitStruct.Alternate = GPIO_AF12_FMC;
 187              		.loc 1 707 25 is_stmt 0 view .LVU65
 188 00a4 0495     		str	r5, [sp, #16]
 708:Core/Src/stm32f4xx_hal_msp.c ****   HAL_GPIO_Init(GPIOD, &GPIO_InitStruct);
 189              		.loc 1 708 3 is_stmt 1 view .LVU66
ARM GAS  C:\Users\stefa\AppData\Local\Temp\ccFxeAQn.s 			page 18


 708:Core/Src/stm32f4xx_hal_msp.c ****   HAL_GPIO_Init(GPIOD, &GPIO_InitStruct);
 190              		.loc 1 708 29 is_stmt 0 view .LVU67
 191 00a6 0594     		str	r4, [sp, #20]
 709:Core/Src/stm32f4xx_hal_msp.c **** 
 192              		.loc 1 709 3 is_stmt 1 view .LVU68
 193 00a8 01A9     		add	r1, sp, #4
 194 00aa 0D48     		ldr	r0, .L6+24
 195 00ac FFF7FEFF 		bl	HAL_GPIO_Init
 196              	.LVL4:
 711:Core/Src/stm32f4xx_hal_msp.c ****   GPIO_InitStruct.Mode = GPIO_MODE_AF_PP;
 197              		.loc 1 711 3 view .LVU69
 711:Core/Src/stm32f4xx_hal_msp.c ****   GPIO_InitStruct.Mode = GPIO_MODE_AF_PP;
 198              		.loc 1 711 23 is_stmt 0 view .LVU70
 199 00b0 6023     		movs	r3, #96
 200 00b2 0193     		str	r3, [sp, #4]
 712:Core/Src/stm32f4xx_hal_msp.c ****   GPIO_InitStruct.Pull = GPIO_NOPULL;
 201              		.loc 1 712 3 is_stmt 1 view .LVU71
 712:Core/Src/stm32f4xx_hal_msp.c ****   GPIO_InitStruct.Pull = GPIO_NOPULL;
 202              		.loc 1 712 24 is_stmt 0 view .LVU72
 203 00b4 0297     		str	r7, [sp, #8]
 713:Core/Src/stm32f4xx_hal_msp.c ****   GPIO_InitStruct.Speed = GPIO_SPEED_FREQ_VERY_HIGH;
 204              		.loc 1 713 3 is_stmt 1 view .LVU73
 713:Core/Src/stm32f4xx_hal_msp.c ****   GPIO_InitStruct.Speed = GPIO_SPEED_FREQ_VERY_HIGH;
 205              		.loc 1 713 24 is_stmt 0 view .LVU74
 206 00b6 0396     		str	r6, [sp, #12]
 714:Core/Src/stm32f4xx_hal_msp.c ****   GPIO_InitStruct.Alternate = GPIO_AF12_FMC;
 207              		.loc 1 714 3 is_stmt 1 view .LVU75
 714:Core/Src/stm32f4xx_hal_msp.c ****   GPIO_InitStruct.Alternate = GPIO_AF12_FMC;
 208              		.loc 1 714 25 is_stmt 0 view .LVU76
 209 00b8 0495     		str	r5, [sp, #16]
 715:Core/Src/stm32f4xx_hal_msp.c ****   HAL_GPIO_Init(GPIOB, &GPIO_InitStruct);
 210              		.loc 1 715 3 is_stmt 1 view .LVU77
 715:Core/Src/stm32f4xx_hal_msp.c ****   HAL_GPIO_Init(GPIOB, &GPIO_InitStruct);
 211              		.loc 1 715 29 is_stmt 0 view .LVU78
 212 00ba 0594     		str	r4, [sp, #20]
 716:Core/Src/stm32f4xx_hal_msp.c **** 
 213              		.loc 1 716 3 is_stmt 1 view .LVU79
 214 00bc 01A9     		add	r1, sp, #4
 215 00be 0948     		ldr	r0, .L6+28
 216 00c0 FFF7FEFF 		bl	HAL_GPIO_Init
 217              	.LVL5:
 218 00c4 A8E7     		b	.L1
 219              	.L7:
 220 00c6 00BF     		.align	2
 221              	.L6:
 222 00c8 00000000 		.word	.LANCHOR0
 223 00cc 00380240 		.word	1073887232
 224 00d0 00140240 		.word	1073878016
 225 00d4 00080240 		.word	1073874944
 226 00d8 00180240 		.word	1073879040
 227 00dc 00100240 		.word	1073876992
 228 00e0 000C0240 		.word	1073875968
 229 00e4 00040240 		.word	1073873920
 230              		.cfi_endproc
 231              	.LFE145:
 233              		.section	.text.HAL_FMC_MspDeInit,"ax",%progbits
 234              		.align	1
ARM GAS  C:\Users\stefa\AppData\Local\Temp\ccFxeAQn.s 			page 19


 235              		.syntax unified
 236              		.thumb
 237              		.thumb_func
 239              	HAL_FMC_MspDeInit:
 240              	.LFB147:
 722:Core/Src/stm32f4xx_hal_msp.c **** 
 723:Core/Src/stm32f4xx_hal_msp.c **** void HAL_SDRAM_MspInit(SDRAM_HandleTypeDef* hsdram){
 724:Core/Src/stm32f4xx_hal_msp.c ****   /* USER CODE BEGIN SDRAM_MspInit 0 */
 725:Core/Src/stm32f4xx_hal_msp.c **** 
 726:Core/Src/stm32f4xx_hal_msp.c ****   /* USER CODE END SDRAM_MspInit 0 */
 727:Core/Src/stm32f4xx_hal_msp.c ****   HAL_FMC_MspInit();
 728:Core/Src/stm32f4xx_hal_msp.c ****   /* USER CODE BEGIN SDRAM_MspInit 1 */
 729:Core/Src/stm32f4xx_hal_msp.c **** 
 730:Core/Src/stm32f4xx_hal_msp.c ****   /* USER CODE END SDRAM_MspInit 1 */
 731:Core/Src/stm32f4xx_hal_msp.c **** }
 732:Core/Src/stm32f4xx_hal_msp.c **** 
 733:Core/Src/stm32f4xx_hal_msp.c **** static uint32_t FMC_DeInitialized = 0;
 734:Core/Src/stm32f4xx_hal_msp.c **** 
 735:Core/Src/stm32f4xx_hal_msp.c **** static void HAL_FMC_MspDeInit(void){
 241              		.loc 1 735 36 view -0
 242              		.cfi_startproc
 243              		@ args = 0, pretend = 0, frame = 0
 244              		@ frame_needed = 0, uses_anonymous_args = 0
 736:Core/Src/stm32f4xx_hal_msp.c ****   /* USER CODE BEGIN FMC_MspDeInit 0 */
 737:Core/Src/stm32f4xx_hal_msp.c **** 
 738:Core/Src/stm32f4xx_hal_msp.c ****   /* USER CODE END FMC_MspDeInit 0 */
 739:Core/Src/stm32f4xx_hal_msp.c ****   if (FMC_DeInitialized) {
 245              		.loc 1 739 3 view .LVU81
 246              		.loc 1 739 7 is_stmt 0 view .LVU82
 247 0000 144B     		ldr	r3, .L15
 248 0002 1B68     		ldr	r3, [r3]
 249              		.loc 1 739 6 view .LVU83
 250 0004 03B1     		cbz	r3, .L14
 251 0006 7047     		bx	lr
 252              	.L14:
 735:Core/Src/stm32f4xx_hal_msp.c ****   /* USER CODE BEGIN FMC_MspDeInit 0 */
 253              		.loc 1 735 36 view .LVU84
 254 0008 10B5     		push	{r4, lr}
 255              	.LCFI4:
 256              		.cfi_def_cfa_offset 8
 257              		.cfi_offset 4, -8
 258              		.cfi_offset 14, -4
 740:Core/Src/stm32f4xx_hal_msp.c ****     return;
 741:Core/Src/stm32f4xx_hal_msp.c ****   }
 742:Core/Src/stm32f4xx_hal_msp.c ****   FMC_DeInitialized = 1;
 259              		.loc 1 742 3 is_stmt 1 view .LVU85
 260              		.loc 1 742 21 is_stmt 0 view .LVU86
 261 000a 0124     		movs	r4, #1
 262 000c 114B     		ldr	r3, .L15
 263 000e 1C60     		str	r4, [r3]
 743:Core/Src/stm32f4xx_hal_msp.c ****   /* Peripheral clock enable */
 744:Core/Src/stm32f4xx_hal_msp.c ****   __HAL_RCC_FMC_CLK_DISABLE();
 264              		.loc 1 744 3 is_stmt 1 view .LVU87
 265 0010 114A     		ldr	r2, .L15+4
 266 0012 936B     		ldr	r3, [r2, #56]
 267 0014 23F00103 		bic	r3, r3, #1
 268 0018 9363     		str	r3, [r2, #56]
ARM GAS  C:\Users\stefa\AppData\Local\Temp\ccFxeAQn.s 			page 20


 745:Core/Src/stm32f4xx_hal_msp.c **** 
 746:Core/Src/stm32f4xx_hal_msp.c ****   /** FMC GPIO Configuration
 747:Core/Src/stm32f4xx_hal_msp.c ****   PF0   ------> FMC_A0
 748:Core/Src/stm32f4xx_hal_msp.c ****   PF1   ------> FMC_A1
 749:Core/Src/stm32f4xx_hal_msp.c ****   PF2   ------> FMC_A2
 750:Core/Src/stm32f4xx_hal_msp.c ****   PF3   ------> FMC_A3
 751:Core/Src/stm32f4xx_hal_msp.c ****   PF4   ------> FMC_A4
 752:Core/Src/stm32f4xx_hal_msp.c ****   PF5   ------> FMC_A5
 753:Core/Src/stm32f4xx_hal_msp.c ****   PC0   ------> FMC_SDNWE
 754:Core/Src/stm32f4xx_hal_msp.c ****   PF11   ------> FMC_SDNRAS
 755:Core/Src/stm32f4xx_hal_msp.c ****   PF12   ------> FMC_A6
 756:Core/Src/stm32f4xx_hal_msp.c ****   PF13   ------> FMC_A7
 757:Core/Src/stm32f4xx_hal_msp.c ****   PF14   ------> FMC_A8
 758:Core/Src/stm32f4xx_hal_msp.c ****   PF15   ------> FMC_A9
 759:Core/Src/stm32f4xx_hal_msp.c ****   PG0   ------> FMC_A10
 760:Core/Src/stm32f4xx_hal_msp.c ****   PG1   ------> FMC_A11
 761:Core/Src/stm32f4xx_hal_msp.c ****   PE7   ------> FMC_D4
 762:Core/Src/stm32f4xx_hal_msp.c ****   PE8   ------> FMC_D5
 763:Core/Src/stm32f4xx_hal_msp.c ****   PE9   ------> FMC_D6
 764:Core/Src/stm32f4xx_hal_msp.c ****   PE10   ------> FMC_D7
 765:Core/Src/stm32f4xx_hal_msp.c ****   PE11   ------> FMC_D8
 766:Core/Src/stm32f4xx_hal_msp.c ****   PE12   ------> FMC_D9
 767:Core/Src/stm32f4xx_hal_msp.c ****   PE13   ------> FMC_D10
 768:Core/Src/stm32f4xx_hal_msp.c ****   PE14   ------> FMC_D11
 769:Core/Src/stm32f4xx_hal_msp.c ****   PE15   ------> FMC_D12
 770:Core/Src/stm32f4xx_hal_msp.c ****   PD8   ------> FMC_D13
 771:Core/Src/stm32f4xx_hal_msp.c ****   PD9   ------> FMC_D14
 772:Core/Src/stm32f4xx_hal_msp.c ****   PD10   ------> FMC_D15
 773:Core/Src/stm32f4xx_hal_msp.c ****   PD14   ------> FMC_D0
 774:Core/Src/stm32f4xx_hal_msp.c ****   PD15   ------> FMC_D1
 775:Core/Src/stm32f4xx_hal_msp.c ****   PG4   ------> FMC_BA0
 776:Core/Src/stm32f4xx_hal_msp.c ****   PG5   ------> FMC_BA1
 777:Core/Src/stm32f4xx_hal_msp.c ****   PG8   ------> FMC_SDCLK
 778:Core/Src/stm32f4xx_hal_msp.c ****   PD0   ------> FMC_D2
 779:Core/Src/stm32f4xx_hal_msp.c ****   PD1   ------> FMC_D3
 780:Core/Src/stm32f4xx_hal_msp.c ****   PG15   ------> FMC_SDNCAS
 781:Core/Src/stm32f4xx_hal_msp.c ****   PB5   ------> FMC_SDCKE1
 782:Core/Src/stm32f4xx_hal_msp.c ****   PB6   ------> FMC_SDNE1
 783:Core/Src/stm32f4xx_hal_msp.c ****   PE0   ------> FMC_NBL0
 784:Core/Src/stm32f4xx_hal_msp.c ****   PE1   ------> FMC_NBL1
 785:Core/Src/stm32f4xx_hal_msp.c ****   */
 786:Core/Src/stm32f4xx_hal_msp.c ****   HAL_GPIO_DeInit(GPIOF, A0_Pin|A1_Pin|A2_Pin|A3_Pin
 269              		.loc 1 786 3 view .LVU88
 270 001a 4FF63F01 		movw	r1, #63551
 271 001e 0F48     		ldr	r0, .L15+8
 272 0020 FFF7FEFF 		bl	HAL_GPIO_DeInit
 273              	.LVL6:
 787:Core/Src/stm32f4xx_hal_msp.c ****                           |A4_Pin|A5_Pin|SDNRAS_Pin|A6_Pin
 788:Core/Src/stm32f4xx_hal_msp.c ****                           |A7_Pin|A8_Pin|A9_Pin);
 789:Core/Src/stm32f4xx_hal_msp.c **** 
 790:Core/Src/stm32f4xx_hal_msp.c ****   HAL_GPIO_DeInit(SDNWE_GPIO_Port, SDNWE_Pin);
 274              		.loc 1 790 3 view .LVU89
 275 0024 2146     		mov	r1, r4
 276 0026 0E48     		ldr	r0, .L15+12
 277 0028 FFF7FEFF 		bl	HAL_GPIO_DeInit
 278              	.LVL7:
 791:Core/Src/stm32f4xx_hal_msp.c **** 
ARM GAS  C:\Users\stefa\AppData\Local\Temp\ccFxeAQn.s 			page 21


 792:Core/Src/stm32f4xx_hal_msp.c ****   HAL_GPIO_DeInit(GPIOG, A10_Pin|A11_Pin|BA0_Pin|BA1_Pin
 279              		.loc 1 792 3 view .LVU90
 280 002c 48F23311 		movw	r1, #33075
 281 0030 0C48     		ldr	r0, .L15+16
 282 0032 FFF7FEFF 		bl	HAL_GPIO_DeInit
 283              	.LVL8:
 793:Core/Src/stm32f4xx_hal_msp.c ****                           |SDCLK_Pin|SDNCAS_Pin);
 794:Core/Src/stm32f4xx_hal_msp.c **** 
 795:Core/Src/stm32f4xx_hal_msp.c ****   HAL_GPIO_DeInit(GPIOE, D4_Pin|D5_Pin|D6_Pin|D7_Pin
 284              		.loc 1 795 3 view .LVU91
 285 0036 4FF68371 		movw	r1, #65411
 286 003a 0B48     		ldr	r0, .L15+20
 287 003c FFF7FEFF 		bl	HAL_GPIO_DeInit
 288              	.LVL9:
 796:Core/Src/stm32f4xx_hal_msp.c ****                           |D8_Pin|D9_Pin|D10_Pin|D11_Pin
 797:Core/Src/stm32f4xx_hal_msp.c ****                           |D12_Pin|NBL0_Pin|NBL1_Pin);
 798:Core/Src/stm32f4xx_hal_msp.c **** 
 799:Core/Src/stm32f4xx_hal_msp.c ****   HAL_GPIO_DeInit(GPIOD, D13_Pin|D14_Pin|D15_Pin|D0_Pin
 289              		.loc 1 799 3 view .LVU92
 290 0040 4CF20371 		movw	r1, #50947
 291 0044 0948     		ldr	r0, .L15+24
 292 0046 FFF7FEFF 		bl	HAL_GPIO_DeInit
 293              	.LVL10:
 800:Core/Src/stm32f4xx_hal_msp.c ****                           |D1_Pin|D2_Pin|D3_Pin);
 801:Core/Src/stm32f4xx_hal_msp.c **** 
 802:Core/Src/stm32f4xx_hal_msp.c ****   HAL_GPIO_DeInit(GPIOB, SDCKE1_Pin|SDNE1_Pin);
 294              		.loc 1 802 3 view .LVU93
 295 004a 6021     		movs	r1, #96
 296 004c 0848     		ldr	r0, .L15+28
 297 004e FFF7FEFF 		bl	HAL_GPIO_DeInit
 298              	.LVL11:
 803:Core/Src/stm32f4xx_hal_msp.c **** 
 804:Core/Src/stm32f4xx_hal_msp.c ****   /* USER CODE BEGIN FMC_MspDeInit 1 */
 805:Core/Src/stm32f4xx_hal_msp.c **** 
 806:Core/Src/stm32f4xx_hal_msp.c ****   /* USER CODE END FMC_MspDeInit 1 */
 807:Core/Src/stm32f4xx_hal_msp.c **** }
 299              		.loc 1 807 1 is_stmt 0 view .LVU94
 300 0052 10BD     		pop	{r4, pc}
 301              	.L16:
 302              		.align	2
 303              	.L15:
 304 0054 00000000 		.word	.LANCHOR1
 305 0058 00380240 		.word	1073887232
 306 005c 00140240 		.word	1073878016
 307 0060 00080240 		.word	1073874944
 308 0064 00180240 		.word	1073879040
 309 0068 00100240 		.word	1073876992
 310 006c 000C0240 		.word	1073875968
 311 0070 00040240 		.word	1073873920
 312              		.cfi_endproc
 313              	.LFE147:
 315              		.section	.text.HAL_MspInit,"ax",%progbits
 316              		.align	1
 317              		.global	HAL_MspInit
 318              		.syntax unified
 319              		.thumb
 320              		.thumb_func
ARM GAS  C:\Users\stefa\AppData\Local\Temp\ccFxeAQn.s 			page 22


 322              	HAL_MspInit:
 323              	.LFB130:
  64:Core/Src/stm32f4xx_hal_msp.c ****   /* USER CODE BEGIN MspInit 0 */
 324              		.loc 1 64 1 is_stmt 1 view -0
 325              		.cfi_startproc
 326              		@ args = 0, pretend = 0, frame = 8
 327              		@ frame_needed = 0, uses_anonymous_args = 0
 328              		@ link register save eliminated.
 329 0000 82B0     		sub	sp, sp, #8
 330              	.LCFI5:
 331              		.cfi_def_cfa_offset 8
  69:Core/Src/stm32f4xx_hal_msp.c ****   __HAL_RCC_PWR_CLK_ENABLE();
 332              		.loc 1 69 3 view .LVU96
 333              	.LBB3:
  69:Core/Src/stm32f4xx_hal_msp.c ****   __HAL_RCC_PWR_CLK_ENABLE();
 334              		.loc 1 69 3 view .LVU97
 335 0002 0021     		movs	r1, #0
 336 0004 0091     		str	r1, [sp]
  69:Core/Src/stm32f4xx_hal_msp.c ****   __HAL_RCC_PWR_CLK_ENABLE();
 337              		.loc 1 69 3 view .LVU98
 338 0006 0B4B     		ldr	r3, .L19
 339 0008 5A6C     		ldr	r2, [r3, #68]
 340 000a 42F48042 		orr	r2, r2, #16384
 341 000e 5A64     		str	r2, [r3, #68]
  69:Core/Src/stm32f4xx_hal_msp.c ****   __HAL_RCC_PWR_CLK_ENABLE();
 342              		.loc 1 69 3 view .LVU99
 343 0010 5A6C     		ldr	r2, [r3, #68]
 344 0012 02F48042 		and	r2, r2, #16384
 345 0016 0092     		str	r2, [sp]
  69:Core/Src/stm32f4xx_hal_msp.c ****   __HAL_RCC_PWR_CLK_ENABLE();
 346              		.loc 1 69 3 view .LVU100
 347 0018 009A     		ldr	r2, [sp]
 348              	.LBE3:
  69:Core/Src/stm32f4xx_hal_msp.c ****   __HAL_RCC_PWR_CLK_ENABLE();
 349              		.loc 1 69 3 view .LVU101
  70:Core/Src/stm32f4xx_hal_msp.c **** 
 350              		.loc 1 70 3 view .LVU102
 351              	.LBB4:
  70:Core/Src/stm32f4xx_hal_msp.c **** 
 352              		.loc 1 70 3 view .LVU103
 353 001a 0191     		str	r1, [sp, #4]
  70:Core/Src/stm32f4xx_hal_msp.c **** 
 354              		.loc 1 70 3 view .LVU104
 355 001c 1A6C     		ldr	r2, [r3, #64]
 356 001e 42F08052 		orr	r2, r2, #268435456
 357 0022 1A64     		str	r2, [r3, #64]
  70:Core/Src/stm32f4xx_hal_msp.c **** 
 358              		.loc 1 70 3 view .LVU105
 359 0024 1B6C     		ldr	r3, [r3, #64]
 360 0026 03F08053 		and	r3, r3, #268435456
 361 002a 0193     		str	r3, [sp, #4]
  70:Core/Src/stm32f4xx_hal_msp.c **** 
 362              		.loc 1 70 3 view .LVU106
 363 002c 019B     		ldr	r3, [sp, #4]
 364              	.LBE4:
  70:Core/Src/stm32f4xx_hal_msp.c **** 
 365              		.loc 1 70 3 view .LVU107
ARM GAS  C:\Users\stefa\AppData\Local\Temp\ccFxeAQn.s 			page 23


  77:Core/Src/stm32f4xx_hal_msp.c **** 
 366              		.loc 1 77 1 is_stmt 0 view .LVU108
 367 002e 02B0     		add	sp, sp, #8
 368              	.LCFI6:
 369              		.cfi_def_cfa_offset 0
 370              		@ sp needed
 371 0030 7047     		bx	lr
 372              	.L20:
 373 0032 00BF     		.align	2
 374              	.L19:
 375 0034 00380240 		.word	1073887232
 376              		.cfi_endproc
 377              	.LFE130:
 379              		.section	.text.HAL_CRC_MspInit,"ax",%progbits
 380              		.align	1
 381              		.global	HAL_CRC_MspInit
 382              		.syntax unified
 383              		.thumb
 384              		.thumb_func
 386              	HAL_CRC_MspInit:
 387              	.LVL12:
 388              	.LFB131:
  86:Core/Src/stm32f4xx_hal_msp.c ****   if(hcrc->Instance==CRC)
 389              		.loc 1 86 1 is_stmt 1 view -0
 390              		.cfi_startproc
 391              		@ args = 0, pretend = 0, frame = 8
 392              		@ frame_needed = 0, uses_anonymous_args = 0
 393              		@ link register save eliminated.
  87:Core/Src/stm32f4xx_hal_msp.c ****   {
 394              		.loc 1 87 3 view .LVU110
  87:Core/Src/stm32f4xx_hal_msp.c ****   {
 395              		.loc 1 87 10 is_stmt 0 view .LVU111
 396 0000 0268     		ldr	r2, [r0]
  87:Core/Src/stm32f4xx_hal_msp.c ****   {
 397              		.loc 1 87 5 view .LVU112
 398 0002 094B     		ldr	r3, .L28
 399 0004 9A42     		cmp	r2, r3
 400 0006 00D0     		beq	.L27
 401 0008 7047     		bx	lr
 402              	.L27:
  86:Core/Src/stm32f4xx_hal_msp.c ****   if(hcrc->Instance==CRC)
 403              		.loc 1 86 1 view .LVU113
 404 000a 82B0     		sub	sp, sp, #8
 405              	.LCFI7:
 406              		.cfi_def_cfa_offset 8
  93:Core/Src/stm32f4xx_hal_msp.c ****   /* USER CODE BEGIN CRC_MspInit 1 */
 407              		.loc 1 93 5 is_stmt 1 view .LVU114
 408              	.LBB5:
  93:Core/Src/stm32f4xx_hal_msp.c ****   /* USER CODE BEGIN CRC_MspInit 1 */
 409              		.loc 1 93 5 view .LVU115
 410 000c 0023     		movs	r3, #0
 411 000e 0193     		str	r3, [sp, #4]
  93:Core/Src/stm32f4xx_hal_msp.c ****   /* USER CODE BEGIN CRC_MspInit 1 */
 412              		.loc 1 93 5 view .LVU116
 413 0010 064B     		ldr	r3, .L28+4
 414 0012 1A6B     		ldr	r2, [r3, #48]
 415 0014 42F48052 		orr	r2, r2, #4096
ARM GAS  C:\Users\stefa\AppData\Local\Temp\ccFxeAQn.s 			page 24


 416 0018 1A63     		str	r2, [r3, #48]
  93:Core/Src/stm32f4xx_hal_msp.c ****   /* USER CODE BEGIN CRC_MspInit 1 */
 417              		.loc 1 93 5 view .LVU117
 418 001a 1B6B     		ldr	r3, [r3, #48]
 419 001c 03F48053 		and	r3, r3, #4096
 420 0020 0193     		str	r3, [sp, #4]
  93:Core/Src/stm32f4xx_hal_msp.c ****   /* USER CODE BEGIN CRC_MspInit 1 */
 421              		.loc 1 93 5 view .LVU118
 422 0022 019B     		ldr	r3, [sp, #4]
 423              	.LBE5:
  93:Core/Src/stm32f4xx_hal_msp.c ****   /* USER CODE BEGIN CRC_MspInit 1 */
 424              		.loc 1 93 5 view .LVU119
  99:Core/Src/stm32f4xx_hal_msp.c **** 
 425              		.loc 1 99 1 is_stmt 0 view .LVU120
 426 0024 02B0     		add	sp, sp, #8
 427              	.LCFI8:
 428              		.cfi_def_cfa_offset 0
 429              		@ sp needed
 430 0026 7047     		bx	lr
 431              	.L29:
 432              		.align	2
 433              	.L28:
 434 0028 00300240 		.word	1073885184
 435 002c 00380240 		.word	1073887232
 436              		.cfi_endproc
 437              	.LFE131:
 439              		.section	.text.HAL_CRC_MspDeInit,"ax",%progbits
 440              		.align	1
 441              		.global	HAL_CRC_MspDeInit
 442              		.syntax unified
 443              		.thumb
 444              		.thumb_func
 446              	HAL_CRC_MspDeInit:
 447              	.LVL13:
 448              	.LFB132:
 108:Core/Src/stm32f4xx_hal_msp.c ****   if(hcrc->Instance==CRC)
 449              		.loc 1 108 1 is_stmt 1 view -0
 450              		.cfi_startproc
 451              		@ args = 0, pretend = 0, frame = 0
 452              		@ frame_needed = 0, uses_anonymous_args = 0
 453              		@ link register save eliminated.
 109:Core/Src/stm32f4xx_hal_msp.c ****   {
 454              		.loc 1 109 3 view .LVU122
 109:Core/Src/stm32f4xx_hal_msp.c ****   {
 455              		.loc 1 109 10 is_stmt 0 view .LVU123
 456 0000 0268     		ldr	r2, [r0]
 109:Core/Src/stm32f4xx_hal_msp.c ****   {
 457              		.loc 1 109 5 view .LVU124
 458 0002 054B     		ldr	r3, .L33
 459 0004 9A42     		cmp	r2, r3
 460 0006 00D0     		beq	.L32
 461              	.L30:
 121:Core/Src/stm32f4xx_hal_msp.c **** 
 462              		.loc 1 121 1 view .LVU125
 463 0008 7047     		bx	lr
 464              	.L32:
 115:Core/Src/stm32f4xx_hal_msp.c ****   /* USER CODE BEGIN CRC_MspDeInit 1 */
ARM GAS  C:\Users\stefa\AppData\Local\Temp\ccFxeAQn.s 			page 25


 465              		.loc 1 115 5 is_stmt 1 view .LVU126
 466 000a 044A     		ldr	r2, .L33+4
 467 000c 136B     		ldr	r3, [r2, #48]
 468 000e 23F48053 		bic	r3, r3, #4096
 469 0012 1363     		str	r3, [r2, #48]
 121:Core/Src/stm32f4xx_hal_msp.c **** 
 470              		.loc 1 121 1 is_stmt 0 view .LVU127
 471 0014 F8E7     		b	.L30
 472              	.L34:
 473 0016 00BF     		.align	2
 474              	.L33:
 475 0018 00300240 		.word	1073885184
 476 001c 00380240 		.word	1073887232
 477              		.cfi_endproc
 478              	.LFE132:
 480              		.section	.text.HAL_DMA2D_MspInit,"ax",%progbits
 481              		.align	1
 482              		.global	HAL_DMA2D_MspInit
 483              		.syntax unified
 484              		.thumb
 485              		.thumb_func
 487              	HAL_DMA2D_MspInit:
 488              	.LVL14:
 489              	.LFB133:
 130:Core/Src/stm32f4xx_hal_msp.c ****   if(hdma2d->Instance==DMA2D)
 490              		.loc 1 130 1 is_stmt 1 view -0
 491              		.cfi_startproc
 492              		@ args = 0, pretend = 0, frame = 8
 493              		@ frame_needed = 0, uses_anonymous_args = 0
 131:Core/Src/stm32f4xx_hal_msp.c ****   {
 494              		.loc 1 131 3 view .LVU129
 131:Core/Src/stm32f4xx_hal_msp.c ****   {
 495              		.loc 1 131 12 is_stmt 0 view .LVU130
 496 0000 0268     		ldr	r2, [r0]
 131:Core/Src/stm32f4xx_hal_msp.c ****   {
 497              		.loc 1 131 5 view .LVU131
 498 0002 0E4B     		ldr	r3, .L42
 499 0004 9A42     		cmp	r2, r3
 500 0006 00D0     		beq	.L41
 501 0008 7047     		bx	lr
 502              	.L41:
 130:Core/Src/stm32f4xx_hal_msp.c ****   if(hdma2d->Instance==DMA2D)
 503              		.loc 1 130 1 view .LVU132
 504 000a 00B5     		push	{lr}
 505              	.LCFI9:
 506              		.cfi_def_cfa_offset 4
 507              		.cfi_offset 14, -4
 508 000c 83B0     		sub	sp, sp, #12
 509              	.LCFI10:
 510              		.cfi_def_cfa_offset 16
 137:Core/Src/stm32f4xx_hal_msp.c ****     /* DMA2D interrupt Init */
 511              		.loc 1 137 5 is_stmt 1 view .LVU133
 512              	.LBB6:
 137:Core/Src/stm32f4xx_hal_msp.c ****     /* DMA2D interrupt Init */
 513              		.loc 1 137 5 view .LVU134
 514 000e 0022     		movs	r2, #0
 515 0010 0192     		str	r2, [sp, #4]
ARM GAS  C:\Users\stefa\AppData\Local\Temp\ccFxeAQn.s 			page 26


 137:Core/Src/stm32f4xx_hal_msp.c ****     /* DMA2D interrupt Init */
 516              		.loc 1 137 5 view .LVU135
 517 0012 A3F5F043 		sub	r3, r3, #30720
 518 0016 196B     		ldr	r1, [r3, #48]
 519 0018 41F40001 		orr	r1, r1, #8388608
 520 001c 1963     		str	r1, [r3, #48]
 137:Core/Src/stm32f4xx_hal_msp.c ****     /* DMA2D interrupt Init */
 521              		.loc 1 137 5 view .LVU136
 522 001e 1B6B     		ldr	r3, [r3, #48]
 523 0020 03F40003 		and	r3, r3, #8388608
 524 0024 0193     		str	r3, [sp, #4]
 137:Core/Src/stm32f4xx_hal_msp.c ****     /* DMA2D interrupt Init */
 525              		.loc 1 137 5 view .LVU137
 526 0026 019B     		ldr	r3, [sp, #4]
 527              	.LBE6:
 137:Core/Src/stm32f4xx_hal_msp.c ****     /* DMA2D interrupt Init */
 528              		.loc 1 137 5 view .LVU138
 139:Core/Src/stm32f4xx_hal_msp.c ****     HAL_NVIC_EnableIRQ(DMA2D_IRQn);
 529              		.loc 1 139 5 view .LVU139
 530 0028 0521     		movs	r1, #5
 531 002a 5A20     		movs	r0, #90
 532              	.LVL15:
 139:Core/Src/stm32f4xx_hal_msp.c ****     HAL_NVIC_EnableIRQ(DMA2D_IRQn);
 533              		.loc 1 139 5 is_stmt 0 view .LVU140
 534 002c FFF7FEFF 		bl	HAL_NVIC_SetPriority
 535              	.LVL16:
 140:Core/Src/stm32f4xx_hal_msp.c ****   /* USER CODE BEGIN DMA2D_MspInit 1 */
 536              		.loc 1 140 5 is_stmt 1 view .LVU141
 537 0030 5A20     		movs	r0, #90
 538 0032 FFF7FEFF 		bl	HAL_NVIC_EnableIRQ
 539              	.LVL17:
 146:Core/Src/stm32f4xx_hal_msp.c **** 
 540              		.loc 1 146 1 is_stmt 0 view .LVU142
 541 0036 03B0     		add	sp, sp, #12
 542              	.LCFI11:
 543              		.cfi_def_cfa_offset 4
 544              		@ sp needed
 545 0038 5DF804FB 		ldr	pc, [sp], #4
 546              	.L43:
 547              		.align	2
 548              	.L42:
 549 003c 00B00240 		.word	1073917952
 550              		.cfi_endproc
 551              	.LFE133:
 553              		.section	.text.HAL_DMA2D_MspDeInit,"ax",%progbits
 554              		.align	1
 555              		.global	HAL_DMA2D_MspDeInit
 556              		.syntax unified
 557              		.thumb
 558              		.thumb_func
 560              	HAL_DMA2D_MspDeInit:
 561              	.LVL18:
 562              	.LFB134:
 155:Core/Src/stm32f4xx_hal_msp.c ****   if(hdma2d->Instance==DMA2D)
 563              		.loc 1 155 1 is_stmt 1 view -0
 564              		.cfi_startproc
 565              		@ args = 0, pretend = 0, frame = 0
ARM GAS  C:\Users\stefa\AppData\Local\Temp\ccFxeAQn.s 			page 27


 566              		@ frame_needed = 0, uses_anonymous_args = 0
 155:Core/Src/stm32f4xx_hal_msp.c ****   if(hdma2d->Instance==DMA2D)
 567              		.loc 1 155 1 is_stmt 0 view .LVU144
 568 0000 08B5     		push	{r3, lr}
 569              	.LCFI12:
 570              		.cfi_def_cfa_offset 8
 571              		.cfi_offset 3, -8
 572              		.cfi_offset 14, -4
 156:Core/Src/stm32f4xx_hal_msp.c ****   {
 573              		.loc 1 156 3 is_stmt 1 view .LVU145
 156:Core/Src/stm32f4xx_hal_msp.c ****   {
 574              		.loc 1 156 12 is_stmt 0 view .LVU146
 575 0002 0268     		ldr	r2, [r0]
 156:Core/Src/stm32f4xx_hal_msp.c ****   {
 576              		.loc 1 156 5 view .LVU147
 577 0004 064B     		ldr	r3, .L48
 578 0006 9A42     		cmp	r2, r3
 579 0008 00D0     		beq	.L47
 580              	.LVL19:
 581              	.L44:
 171:Core/Src/stm32f4xx_hal_msp.c **** 
 582              		.loc 1 171 1 view .LVU148
 583 000a 08BD     		pop	{r3, pc}
 584              	.LVL20:
 585              	.L47:
 162:Core/Src/stm32f4xx_hal_msp.c **** 
 586              		.loc 1 162 5 is_stmt 1 view .LVU149
 587 000c 054A     		ldr	r2, .L48+4
 588 000e 136B     		ldr	r3, [r2, #48]
 589 0010 23F40003 		bic	r3, r3, #8388608
 590 0014 1363     		str	r3, [r2, #48]
 165:Core/Src/stm32f4xx_hal_msp.c ****   /* USER CODE BEGIN DMA2D_MspDeInit 1 */
 591              		.loc 1 165 5 view .LVU150
 592 0016 5A20     		movs	r0, #90
 593              	.LVL21:
 165:Core/Src/stm32f4xx_hal_msp.c ****   /* USER CODE BEGIN DMA2D_MspDeInit 1 */
 594              		.loc 1 165 5 is_stmt 0 view .LVU151
 595 0018 FFF7FEFF 		bl	HAL_NVIC_DisableIRQ
 596              	.LVL22:
 171:Core/Src/stm32f4xx_hal_msp.c **** 
 597              		.loc 1 171 1 view .LVU152
 598 001c F5E7     		b	.L44
 599              	.L49:
 600 001e 00BF     		.align	2
 601              	.L48:
 602 0020 00B00240 		.word	1073917952
 603 0024 00380240 		.word	1073887232
 604              		.cfi_endproc
 605              	.LFE134:
 607              		.section	.text.HAL_I2C_MspInit,"ax",%progbits
 608              		.align	1
 609              		.global	HAL_I2C_MspInit
 610              		.syntax unified
 611              		.thumb
 612              		.thumb_func
 614              	HAL_I2C_MspInit:
 615              	.LVL23:
ARM GAS  C:\Users\stefa\AppData\Local\Temp\ccFxeAQn.s 			page 28


 616              	.LFB135:
 180:Core/Src/stm32f4xx_hal_msp.c ****   GPIO_InitTypeDef GPIO_InitStruct = {0};
 617              		.loc 1 180 1 is_stmt 1 view -0
 618              		.cfi_startproc
 619              		@ args = 0, pretend = 0, frame = 32
 620              		@ frame_needed = 0, uses_anonymous_args = 0
 180:Core/Src/stm32f4xx_hal_msp.c ****   GPIO_InitTypeDef GPIO_InitStruct = {0};
 621              		.loc 1 180 1 is_stmt 0 view .LVU154
 622 0000 2DE9F041 		push	{r4, r5, r6, r7, r8, lr}
 623              	.LCFI13:
 624              		.cfi_def_cfa_offset 24
 625              		.cfi_offset 4, -24
 626              		.cfi_offset 5, -20
 627              		.cfi_offset 6, -16
 628              		.cfi_offset 7, -12
 629              		.cfi_offset 8, -8
 630              		.cfi_offset 14, -4
 631 0004 88B0     		sub	sp, sp, #32
 632              	.LCFI14:
 633              		.cfi_def_cfa_offset 56
 181:Core/Src/stm32f4xx_hal_msp.c ****   if(hi2c->Instance==I2C3)
 634              		.loc 1 181 3 is_stmt 1 view .LVU155
 181:Core/Src/stm32f4xx_hal_msp.c ****   if(hi2c->Instance==I2C3)
 635              		.loc 1 181 20 is_stmt 0 view .LVU156
 636 0006 0023     		movs	r3, #0
 637 0008 0393     		str	r3, [sp, #12]
 638 000a 0493     		str	r3, [sp, #16]
 639 000c 0593     		str	r3, [sp, #20]
 640 000e 0693     		str	r3, [sp, #24]
 641 0010 0793     		str	r3, [sp, #28]
 182:Core/Src/stm32f4xx_hal_msp.c ****   {
 642              		.loc 1 182 3 is_stmt 1 view .LVU157
 182:Core/Src/stm32f4xx_hal_msp.c ****   {
 643              		.loc 1 182 10 is_stmt 0 view .LVU158
 644 0012 0268     		ldr	r2, [r0]
 182:Core/Src/stm32f4xx_hal_msp.c ****   {
 645              		.loc 1 182 5 view .LVU159
 646 0014 204B     		ldr	r3, .L54
 647 0016 9A42     		cmp	r2, r3
 648 0018 02D0     		beq	.L53
 649              	.LVL24:
 650              	.L50:
 215:Core/Src/stm32f4xx_hal_msp.c **** 
 651              		.loc 1 215 1 view .LVU160
 652 001a 08B0     		add	sp, sp, #32
 653              	.LCFI15:
 654              		.cfi_remember_state
 655              		.cfi_def_cfa_offset 24
 656              		@ sp needed
 657 001c BDE8F081 		pop	{r4, r5, r6, r7, r8, pc}
 658              	.LVL25:
 659              	.L53:
 660              	.LCFI16:
 661              		.cfi_restore_state
 188:Core/Src/stm32f4xx_hal_msp.c ****     __HAL_RCC_GPIOA_CLK_ENABLE();
 662              		.loc 1 188 5 is_stmt 1 view .LVU161
 663              	.LBB7:
ARM GAS  C:\Users\stefa\AppData\Local\Temp\ccFxeAQn.s 			page 29


 188:Core/Src/stm32f4xx_hal_msp.c ****     __HAL_RCC_GPIOA_CLK_ENABLE();
 664              		.loc 1 188 5 view .LVU162
 665 0020 0025     		movs	r5, #0
 666 0022 0095     		str	r5, [sp]
 188:Core/Src/stm32f4xx_hal_msp.c ****     __HAL_RCC_GPIOA_CLK_ENABLE();
 667              		.loc 1 188 5 view .LVU163
 668 0024 1D4C     		ldr	r4, .L54+4
 669 0026 236B     		ldr	r3, [r4, #48]
 670 0028 43F00403 		orr	r3, r3, #4
 671 002c 2363     		str	r3, [r4, #48]
 188:Core/Src/stm32f4xx_hal_msp.c ****     __HAL_RCC_GPIOA_CLK_ENABLE();
 672              		.loc 1 188 5 view .LVU164
 673 002e 236B     		ldr	r3, [r4, #48]
 674 0030 03F00403 		and	r3, r3, #4
 675 0034 0093     		str	r3, [sp]
 188:Core/Src/stm32f4xx_hal_msp.c ****     __HAL_RCC_GPIOA_CLK_ENABLE();
 676              		.loc 1 188 5 view .LVU165
 677 0036 009B     		ldr	r3, [sp]
 678              	.LBE7:
 188:Core/Src/stm32f4xx_hal_msp.c ****     __HAL_RCC_GPIOA_CLK_ENABLE();
 679              		.loc 1 188 5 view .LVU166
 189:Core/Src/stm32f4xx_hal_msp.c ****     /**I2C3 GPIO Configuration
 680              		.loc 1 189 5 view .LVU167
 681              	.LBB8:
 189:Core/Src/stm32f4xx_hal_msp.c ****     /**I2C3 GPIO Configuration
 682              		.loc 1 189 5 view .LVU168
 683 0038 0195     		str	r5, [sp, #4]
 189:Core/Src/stm32f4xx_hal_msp.c ****     /**I2C3 GPIO Configuration
 684              		.loc 1 189 5 view .LVU169
 685 003a 236B     		ldr	r3, [r4, #48]
 686 003c 43F00103 		orr	r3, r3, #1
 687 0040 2363     		str	r3, [r4, #48]
 189:Core/Src/stm32f4xx_hal_msp.c ****     /**I2C3 GPIO Configuration
 688              		.loc 1 189 5 view .LVU170
 689 0042 236B     		ldr	r3, [r4, #48]
 690 0044 03F00103 		and	r3, r3, #1
 691 0048 0193     		str	r3, [sp, #4]
 189:Core/Src/stm32f4xx_hal_msp.c ****     /**I2C3 GPIO Configuration
 692              		.loc 1 189 5 view .LVU171
 693 004a 019B     		ldr	r3, [sp, #4]
 694              	.LBE8:
 189:Core/Src/stm32f4xx_hal_msp.c ****     /**I2C3 GPIO Configuration
 695              		.loc 1 189 5 view .LVU172
 194:Core/Src/stm32f4xx_hal_msp.c ****     GPIO_InitStruct.Mode = GPIO_MODE_AF_OD;
 696              		.loc 1 194 5 view .LVU173
 194:Core/Src/stm32f4xx_hal_msp.c ****     GPIO_InitStruct.Mode = GPIO_MODE_AF_OD;
 697              		.loc 1 194 25 is_stmt 0 view .LVU174
 698 004c 4FF40073 		mov	r3, #512
 699 0050 0393     		str	r3, [sp, #12]
 195:Core/Src/stm32f4xx_hal_msp.c ****     GPIO_InitStruct.Pull = GPIO_PULLUP;
 700              		.loc 1 195 5 is_stmt 1 view .LVU175
 195:Core/Src/stm32f4xx_hal_msp.c ****     GPIO_InitStruct.Pull = GPIO_PULLUP;
 701              		.loc 1 195 26 is_stmt 0 view .LVU176
 702 0052 4FF01208 		mov	r8, #18
 703 0056 CDF81080 		str	r8, [sp, #16]
 196:Core/Src/stm32f4xx_hal_msp.c ****     GPIO_InitStruct.Speed = GPIO_SPEED_FREQ_LOW;
 704              		.loc 1 196 5 is_stmt 1 view .LVU177
ARM GAS  C:\Users\stefa\AppData\Local\Temp\ccFxeAQn.s 			page 30


 196:Core/Src/stm32f4xx_hal_msp.c ****     GPIO_InitStruct.Speed = GPIO_SPEED_FREQ_LOW;
 705              		.loc 1 196 26 is_stmt 0 view .LVU178
 706 005a 0127     		movs	r7, #1
 707 005c 0597     		str	r7, [sp, #20]
 197:Core/Src/stm32f4xx_hal_msp.c ****     GPIO_InitStruct.Alternate = GPIO_AF4_I2C3;
 708              		.loc 1 197 5 is_stmt 1 view .LVU179
 198:Core/Src/stm32f4xx_hal_msp.c ****     HAL_GPIO_Init(I2C3_SDA_GPIO_Port, &GPIO_InitStruct);
 709              		.loc 1 198 5 view .LVU180
 198:Core/Src/stm32f4xx_hal_msp.c ****     HAL_GPIO_Init(I2C3_SDA_GPIO_Port, &GPIO_InitStruct);
 710              		.loc 1 198 31 is_stmt 0 view .LVU181
 711 005e 0426     		movs	r6, #4
 712 0060 0796     		str	r6, [sp, #28]
 199:Core/Src/stm32f4xx_hal_msp.c **** 
 713              		.loc 1 199 5 is_stmt 1 view .LVU182
 714 0062 03A9     		add	r1, sp, #12
 715 0064 0E48     		ldr	r0, .L54+8
 716              	.LVL26:
 199:Core/Src/stm32f4xx_hal_msp.c **** 
 717              		.loc 1 199 5 is_stmt 0 view .LVU183
 718 0066 FFF7FEFF 		bl	HAL_GPIO_Init
 719              	.LVL27:
 201:Core/Src/stm32f4xx_hal_msp.c ****     GPIO_InitStruct.Mode = GPIO_MODE_AF_OD;
 720              		.loc 1 201 5 is_stmt 1 view .LVU184
 201:Core/Src/stm32f4xx_hal_msp.c ****     GPIO_InitStruct.Mode = GPIO_MODE_AF_OD;
 721              		.loc 1 201 25 is_stmt 0 view .LVU185
 722 006a 4FF48073 		mov	r3, #256
 723 006e 0393     		str	r3, [sp, #12]
 202:Core/Src/stm32f4xx_hal_msp.c ****     GPIO_InitStruct.Pull = GPIO_PULLUP;
 724              		.loc 1 202 5 is_stmt 1 view .LVU186
 202:Core/Src/stm32f4xx_hal_msp.c ****     GPIO_InitStruct.Pull = GPIO_PULLUP;
 725              		.loc 1 202 26 is_stmt 0 view .LVU187
 726 0070 CDF81080 		str	r8, [sp, #16]
 203:Core/Src/stm32f4xx_hal_msp.c ****     GPIO_InitStruct.Speed = GPIO_SPEED_FREQ_LOW;
 727              		.loc 1 203 5 is_stmt 1 view .LVU188
 203:Core/Src/stm32f4xx_hal_msp.c ****     GPIO_InitStruct.Speed = GPIO_SPEED_FREQ_LOW;
 728              		.loc 1 203 26 is_stmt 0 view .LVU189
 729 0074 0597     		str	r7, [sp, #20]
 204:Core/Src/stm32f4xx_hal_msp.c ****     GPIO_InitStruct.Alternate = GPIO_AF4_I2C3;
 730              		.loc 1 204 5 is_stmt 1 view .LVU190
 204:Core/Src/stm32f4xx_hal_msp.c ****     GPIO_InitStruct.Alternate = GPIO_AF4_I2C3;
 731              		.loc 1 204 27 is_stmt 0 view .LVU191
 732 0076 0695     		str	r5, [sp, #24]
 205:Core/Src/stm32f4xx_hal_msp.c ****     HAL_GPIO_Init(I2C3_SCL_GPIO_Port, &GPIO_InitStruct);
 733              		.loc 1 205 5 is_stmt 1 view .LVU192
 205:Core/Src/stm32f4xx_hal_msp.c ****     HAL_GPIO_Init(I2C3_SCL_GPIO_Port, &GPIO_InitStruct);
 734              		.loc 1 205 31 is_stmt 0 view .LVU193
 735 0078 0796     		str	r6, [sp, #28]
 206:Core/Src/stm32f4xx_hal_msp.c **** 
 736              		.loc 1 206 5 is_stmt 1 view .LVU194
 737 007a 03A9     		add	r1, sp, #12
 738 007c 0948     		ldr	r0, .L54+12
 739 007e FFF7FEFF 		bl	HAL_GPIO_Init
 740              	.LVL28:
 209:Core/Src/stm32f4xx_hal_msp.c ****   /* USER CODE BEGIN I2C3_MspInit 1 */
 741              		.loc 1 209 5 view .LVU195
 742              	.LBB9:
 209:Core/Src/stm32f4xx_hal_msp.c ****   /* USER CODE BEGIN I2C3_MspInit 1 */
ARM GAS  C:\Users\stefa\AppData\Local\Temp\ccFxeAQn.s 			page 31


 743              		.loc 1 209 5 view .LVU196
 744 0082 0295     		str	r5, [sp, #8]
 209:Core/Src/stm32f4xx_hal_msp.c ****   /* USER CODE BEGIN I2C3_MspInit 1 */
 745              		.loc 1 209 5 view .LVU197
 746 0084 236C     		ldr	r3, [r4, #64]
 747 0086 43F40003 		orr	r3, r3, #8388608
 748 008a 2364     		str	r3, [r4, #64]
 209:Core/Src/stm32f4xx_hal_msp.c ****   /* USER CODE BEGIN I2C3_MspInit 1 */
 749              		.loc 1 209 5 view .LVU198
 750 008c 236C     		ldr	r3, [r4, #64]
 751 008e 03F40003 		and	r3, r3, #8388608
 752 0092 0293     		str	r3, [sp, #8]
 209:Core/Src/stm32f4xx_hal_msp.c ****   /* USER CODE BEGIN I2C3_MspInit 1 */
 753              		.loc 1 209 5 view .LVU199
 754 0094 029B     		ldr	r3, [sp, #8]
 755              	.LBE9:
 209:Core/Src/stm32f4xx_hal_msp.c ****   /* USER CODE BEGIN I2C3_MspInit 1 */
 756              		.loc 1 209 5 view .LVU200
 215:Core/Src/stm32f4xx_hal_msp.c **** 
 757              		.loc 1 215 1 is_stmt 0 view .LVU201
 758 0096 C0E7     		b	.L50
 759              	.L55:
 760              		.align	2
 761              	.L54:
 762 0098 005C0040 		.word	1073765376
 763 009c 00380240 		.word	1073887232
 764 00a0 00080240 		.word	1073874944
 765 00a4 00000240 		.word	1073872896
 766              		.cfi_endproc
 767              	.LFE135:
 769              		.section	.text.HAL_I2C_MspDeInit,"ax",%progbits
 770              		.align	1
 771              		.global	HAL_I2C_MspDeInit
 772              		.syntax unified
 773              		.thumb
 774              		.thumb_func
 776              	HAL_I2C_MspDeInit:
 777              	.LVL29:
 778              	.LFB136:
 224:Core/Src/stm32f4xx_hal_msp.c ****   if(hi2c->Instance==I2C3)
 779              		.loc 1 224 1 is_stmt 1 view -0
 780              		.cfi_startproc
 781              		@ args = 0, pretend = 0, frame = 0
 782              		@ frame_needed = 0, uses_anonymous_args = 0
 224:Core/Src/stm32f4xx_hal_msp.c ****   if(hi2c->Instance==I2C3)
 783              		.loc 1 224 1 is_stmt 0 view .LVU203
 784 0000 08B5     		push	{r3, lr}
 785              	.LCFI17:
 786              		.cfi_def_cfa_offset 8
 787              		.cfi_offset 3, -8
 788              		.cfi_offset 14, -4
 225:Core/Src/stm32f4xx_hal_msp.c ****   {
 789              		.loc 1 225 3 is_stmt 1 view .LVU204
 225:Core/Src/stm32f4xx_hal_msp.c ****   {
 790              		.loc 1 225 10 is_stmt 0 view .LVU205
 791 0002 0268     		ldr	r2, [r0]
 225:Core/Src/stm32f4xx_hal_msp.c ****   {
ARM GAS  C:\Users\stefa\AppData\Local\Temp\ccFxeAQn.s 			page 32


 792              		.loc 1 225 5 view .LVU206
 793 0004 094B     		ldr	r3, .L60
 794 0006 9A42     		cmp	r2, r3
 795 0008 00D0     		beq	.L59
 796              	.LVL30:
 797              	.L56:
 246:Core/Src/stm32f4xx_hal_msp.c **** 
 798              		.loc 1 246 1 view .LVU207
 799 000a 08BD     		pop	{r3, pc}
 800              	.LVL31:
 801              	.L59:
 231:Core/Src/stm32f4xx_hal_msp.c **** 
 802              		.loc 1 231 5 is_stmt 1 view .LVU208
 803 000c 084A     		ldr	r2, .L60+4
 804 000e 136C     		ldr	r3, [r2, #64]
 805 0010 23F40003 		bic	r3, r3, #8388608
 806 0014 1364     		str	r3, [r2, #64]
 237:Core/Src/stm32f4xx_hal_msp.c **** 
 807              		.loc 1 237 5 view .LVU209
 808 0016 4FF40071 		mov	r1, #512
 809 001a 0648     		ldr	r0, .L60+8
 810              	.LVL32:
 237:Core/Src/stm32f4xx_hal_msp.c **** 
 811              		.loc 1 237 5 is_stmt 0 view .LVU210
 812 001c FFF7FEFF 		bl	HAL_GPIO_DeInit
 813              	.LVL33:
 239:Core/Src/stm32f4xx_hal_msp.c **** 
 814              		.loc 1 239 5 is_stmt 1 view .LVU211
 815 0020 4FF48071 		mov	r1, #256
 816 0024 0448     		ldr	r0, .L60+12
 817 0026 FFF7FEFF 		bl	HAL_GPIO_DeInit
 818              	.LVL34:
 246:Core/Src/stm32f4xx_hal_msp.c **** 
 819              		.loc 1 246 1 is_stmt 0 view .LVU212
 820 002a EEE7     		b	.L56
 821              	.L61:
 822              		.align	2
 823              	.L60:
 824 002c 005C0040 		.word	1073765376
 825 0030 00380240 		.word	1073887232
 826 0034 00080240 		.word	1073874944
 827 0038 00000240 		.word	1073872896
 828              		.cfi_endproc
 829              	.LFE136:
 831              		.section	.text.HAL_LTDC_MspInit,"ax",%progbits
 832              		.align	1
 833              		.global	HAL_LTDC_MspInit
 834              		.syntax unified
 835              		.thumb
 836              		.thumb_func
 838              	HAL_LTDC_MspInit:
 839              	.LVL35:
 840              	.LFB137:
 255:Core/Src/stm32f4xx_hal_msp.c ****   GPIO_InitTypeDef GPIO_InitStruct = {0};
 841              		.loc 1 255 1 is_stmt 1 view -0
 842              		.cfi_startproc
 843              		@ args = 0, pretend = 0, frame = 96
ARM GAS  C:\Users\stefa\AppData\Local\Temp\ccFxeAQn.s 			page 33


 844              		@ frame_needed = 0, uses_anonymous_args = 0
 255:Core/Src/stm32f4xx_hal_msp.c ****   GPIO_InitTypeDef GPIO_InitStruct = {0};
 845              		.loc 1 255 1 is_stmt 0 view .LVU214
 846 0000 2DE9F041 		push	{r4, r5, r6, r7, r8, lr}
 847              	.LCFI18:
 848              		.cfi_def_cfa_offset 24
 849              		.cfi_offset 4, -24
 850              		.cfi_offset 5, -20
 851              		.cfi_offset 6, -16
 852              		.cfi_offset 7, -12
 853              		.cfi_offset 8, -8
 854              		.cfi_offset 14, -4
 855 0004 98B0     		sub	sp, sp, #96
 856              	.LCFI19:
 857              		.cfi_def_cfa_offset 120
 858 0006 0446     		mov	r4, r0
 256:Core/Src/stm32f4xx_hal_msp.c ****   RCC_PeriphCLKInitTypeDef PeriphClkInitStruct = {0};
 859              		.loc 1 256 3 is_stmt 1 view .LVU215
 256:Core/Src/stm32f4xx_hal_msp.c ****   RCC_PeriphCLKInitTypeDef PeriphClkInitStruct = {0};
 860              		.loc 1 256 20 is_stmt 0 view .LVU216
 861 0008 0021     		movs	r1, #0
 862 000a 1391     		str	r1, [sp, #76]
 863 000c 1491     		str	r1, [sp, #80]
 864 000e 1591     		str	r1, [sp, #84]
 865 0010 1691     		str	r1, [sp, #88]
 866 0012 1791     		str	r1, [sp, #92]
 257:Core/Src/stm32f4xx_hal_msp.c ****   if(hltdc->Instance==LTDC)
 867              		.loc 1 257 3 is_stmt 1 view .LVU217
 257:Core/Src/stm32f4xx_hal_msp.c ****   if(hltdc->Instance==LTDC)
 868              		.loc 1 257 28 is_stmt 0 view .LVU218
 869 0014 3022     		movs	r2, #48
 870 0016 07A8     		add	r0, sp, #28
 871              	.LVL36:
 257:Core/Src/stm32f4xx_hal_msp.c ****   if(hltdc->Instance==LTDC)
 872              		.loc 1 257 28 view .LVU219
 873 0018 FFF7FEFF 		bl	memset
 874              	.LVL37:
 258:Core/Src/stm32f4xx_hal_msp.c ****   {
 875              		.loc 1 258 3 is_stmt 1 view .LVU220
 258:Core/Src/stm32f4xx_hal_msp.c ****   {
 876              		.loc 1 258 11 is_stmt 0 view .LVU221
 877 001c 2268     		ldr	r2, [r4]
 258:Core/Src/stm32f4xx_hal_msp.c ****   {
 878              		.loc 1 258 5 view .LVU222
 879 001e 624B     		ldr	r3, .L68
 880 0020 9A42     		cmp	r2, r3
 881 0022 02D0     		beq	.L66
 882              	.LVL38:
 883              	.L62:
 373:Core/Src/stm32f4xx_hal_msp.c **** 
 884              		.loc 1 373 1 view .LVU223
 885 0024 18B0     		add	sp, sp, #96
 886              	.LCFI20:
 887              		.cfi_remember_state
 888              		.cfi_def_cfa_offset 24
 889              		@ sp needed
 890 0026 BDE8F081 		pop	{r4, r5, r6, r7, r8, pc}
ARM GAS  C:\Users\stefa\AppData\Local\Temp\ccFxeAQn.s 			page 34


 891              	.LVL39:
 892              	.L66:
 893              	.LCFI21:
 894              		.cfi_restore_state
 266:Core/Src/stm32f4xx_hal_msp.c ****     PeriphClkInitStruct.PLLSAI.PLLSAIN = 50;
 895              		.loc 1 266 5 is_stmt 1 view .LVU224
 266:Core/Src/stm32f4xx_hal_msp.c ****     PeriphClkInitStruct.PLLSAI.PLLSAIN = 50;
 896              		.loc 1 266 46 is_stmt 0 view .LVU225
 897 002a 0823     		movs	r3, #8
 898 002c 0793     		str	r3, [sp, #28]
 267:Core/Src/stm32f4xx_hal_msp.c ****     PeriphClkInitStruct.PLLSAI.PLLSAIR = 2;
 899              		.loc 1 267 5 is_stmt 1 view .LVU226
 267:Core/Src/stm32f4xx_hal_msp.c ****     PeriphClkInitStruct.PLLSAI.PLLSAIR = 2;
 900              		.loc 1 267 40 is_stmt 0 view .LVU227
 901 002e 3223     		movs	r3, #50
 902 0030 0B93     		str	r3, [sp, #44]
 268:Core/Src/stm32f4xx_hal_msp.c ****     PeriphClkInitStruct.PLLSAIDivR = RCC_PLLSAIDIVR_2;
 903              		.loc 1 268 5 is_stmt 1 view .LVU228
 268:Core/Src/stm32f4xx_hal_msp.c ****     PeriphClkInitStruct.PLLSAIDivR = RCC_PLLSAIDIVR_2;
 904              		.loc 1 268 40 is_stmt 0 view .LVU229
 905 0032 0223     		movs	r3, #2
 906 0034 0D93     		str	r3, [sp, #52]
 269:Core/Src/stm32f4xx_hal_msp.c ****     if (HAL_RCCEx_PeriphCLKConfig(&PeriphClkInitStruct) != HAL_OK)
 907              		.loc 1 269 5 is_stmt 1 view .LVU230
 270:Core/Src/stm32f4xx_hal_msp.c ****     {
 908              		.loc 1 270 5 view .LVU231
 270:Core/Src/stm32f4xx_hal_msp.c ****     {
 909              		.loc 1 270 9 is_stmt 0 view .LVU232
 910 0036 07A8     		add	r0, sp, #28
 911 0038 FFF7FEFF 		bl	HAL_RCCEx_PeriphCLKConfig
 912              	.LVL40:
 270:Core/Src/stm32f4xx_hal_msp.c ****     {
 913              		.loc 1 270 8 view .LVU233
 914 003c 0028     		cmp	r0, #0
 915 003e 40F0B080 		bne	.L67
 916              	.L64:
 276:Core/Src/stm32f4xx_hal_msp.c **** 
 917              		.loc 1 276 5 is_stmt 1 view .LVU234
 918              	.LBB10:
 276:Core/Src/stm32f4xx_hal_msp.c **** 
 919              		.loc 1 276 5 view .LVU235
 920 0042 0024     		movs	r4, #0
 921              	.LVL41:
 276:Core/Src/stm32f4xx_hal_msp.c **** 
 922              		.loc 1 276 5 is_stmt 0 view .LVU236
 923 0044 0094     		str	r4, [sp]
 276:Core/Src/stm32f4xx_hal_msp.c **** 
 924              		.loc 1 276 5 is_stmt 1 view .LVU237
 925 0046 594B     		ldr	r3, .L68+4
 926 0048 5A6C     		ldr	r2, [r3, #68]
 927 004a 42F08062 		orr	r2, r2, #67108864
 928 004e 5A64     		str	r2, [r3, #68]
 276:Core/Src/stm32f4xx_hal_msp.c **** 
 929              		.loc 1 276 5 view .LVU238
 930 0050 5A6C     		ldr	r2, [r3, #68]
 931 0052 02F08062 		and	r2, r2, #67108864
 932 0056 0092     		str	r2, [sp]
ARM GAS  C:\Users\stefa\AppData\Local\Temp\ccFxeAQn.s 			page 35


 276:Core/Src/stm32f4xx_hal_msp.c **** 
 933              		.loc 1 276 5 view .LVU239
 934 0058 009A     		ldr	r2, [sp]
 935              	.LBE10:
 276:Core/Src/stm32f4xx_hal_msp.c **** 
 936              		.loc 1 276 5 view .LVU240
 278:Core/Src/stm32f4xx_hal_msp.c ****     __HAL_RCC_GPIOA_CLK_ENABLE();
 937              		.loc 1 278 5 view .LVU241
 938              	.LBB11:
 278:Core/Src/stm32f4xx_hal_msp.c ****     __HAL_RCC_GPIOA_CLK_ENABLE();
 939              		.loc 1 278 5 view .LVU242
 940 005a 0194     		str	r4, [sp, #4]
 278:Core/Src/stm32f4xx_hal_msp.c ****     __HAL_RCC_GPIOA_CLK_ENABLE();
 941              		.loc 1 278 5 view .LVU243
 942 005c 1A6B     		ldr	r2, [r3, #48]
 943 005e 42F02002 		orr	r2, r2, #32
 944 0062 1A63     		str	r2, [r3, #48]
 278:Core/Src/stm32f4xx_hal_msp.c ****     __HAL_RCC_GPIOA_CLK_ENABLE();
 945              		.loc 1 278 5 view .LVU244
 946 0064 1A6B     		ldr	r2, [r3, #48]
 947 0066 02F02002 		and	r2, r2, #32
 948 006a 0192     		str	r2, [sp, #4]
 278:Core/Src/stm32f4xx_hal_msp.c ****     __HAL_RCC_GPIOA_CLK_ENABLE();
 949              		.loc 1 278 5 view .LVU245
 950 006c 019A     		ldr	r2, [sp, #4]
 951              	.LBE11:
 278:Core/Src/stm32f4xx_hal_msp.c ****     __HAL_RCC_GPIOA_CLK_ENABLE();
 952              		.loc 1 278 5 view .LVU246
 279:Core/Src/stm32f4xx_hal_msp.c ****     __HAL_RCC_GPIOB_CLK_ENABLE();
 953              		.loc 1 279 5 view .LVU247
 954              	.LBB12:
 279:Core/Src/stm32f4xx_hal_msp.c ****     __HAL_RCC_GPIOB_CLK_ENABLE();
 955              		.loc 1 279 5 view .LVU248
 956 006e 0294     		str	r4, [sp, #8]
 279:Core/Src/stm32f4xx_hal_msp.c ****     __HAL_RCC_GPIOB_CLK_ENABLE();
 957              		.loc 1 279 5 view .LVU249
 958 0070 1A6B     		ldr	r2, [r3, #48]
 959 0072 42F00102 		orr	r2, r2, #1
 960 0076 1A63     		str	r2, [r3, #48]
 279:Core/Src/stm32f4xx_hal_msp.c ****     __HAL_RCC_GPIOB_CLK_ENABLE();
 961              		.loc 1 279 5 view .LVU250
 962 0078 1A6B     		ldr	r2, [r3, #48]
 963 007a 02F00102 		and	r2, r2, #1
 964 007e 0292     		str	r2, [sp, #8]
 279:Core/Src/stm32f4xx_hal_msp.c ****     __HAL_RCC_GPIOB_CLK_ENABLE();
 965              		.loc 1 279 5 view .LVU251
 966 0080 029A     		ldr	r2, [sp, #8]
 967              	.LBE12:
 279:Core/Src/stm32f4xx_hal_msp.c ****     __HAL_RCC_GPIOB_CLK_ENABLE();
 968              		.loc 1 279 5 view .LVU252
 280:Core/Src/stm32f4xx_hal_msp.c ****     __HAL_RCC_GPIOG_CLK_ENABLE();
 969              		.loc 1 280 5 view .LVU253
 970              	.LBB13:
 280:Core/Src/stm32f4xx_hal_msp.c ****     __HAL_RCC_GPIOG_CLK_ENABLE();
 971              		.loc 1 280 5 view .LVU254
 972 0082 0394     		str	r4, [sp, #12]
 280:Core/Src/stm32f4xx_hal_msp.c ****     __HAL_RCC_GPIOG_CLK_ENABLE();
ARM GAS  C:\Users\stefa\AppData\Local\Temp\ccFxeAQn.s 			page 36


 973              		.loc 1 280 5 view .LVU255
 974 0084 1A6B     		ldr	r2, [r3, #48]
 975 0086 42F00202 		orr	r2, r2, #2
 976 008a 1A63     		str	r2, [r3, #48]
 280:Core/Src/stm32f4xx_hal_msp.c ****     __HAL_RCC_GPIOG_CLK_ENABLE();
 977              		.loc 1 280 5 view .LVU256
 978 008c 1A6B     		ldr	r2, [r3, #48]
 979 008e 02F00202 		and	r2, r2, #2
 980 0092 0392     		str	r2, [sp, #12]
 280:Core/Src/stm32f4xx_hal_msp.c ****     __HAL_RCC_GPIOG_CLK_ENABLE();
 981              		.loc 1 280 5 view .LVU257
 982 0094 039A     		ldr	r2, [sp, #12]
 983              	.LBE13:
 280:Core/Src/stm32f4xx_hal_msp.c ****     __HAL_RCC_GPIOG_CLK_ENABLE();
 984              		.loc 1 280 5 view .LVU258
 281:Core/Src/stm32f4xx_hal_msp.c ****     __HAL_RCC_GPIOC_CLK_ENABLE();
 985              		.loc 1 281 5 view .LVU259
 986              	.LBB14:
 281:Core/Src/stm32f4xx_hal_msp.c ****     __HAL_RCC_GPIOC_CLK_ENABLE();
 987              		.loc 1 281 5 view .LVU260
 988 0096 0494     		str	r4, [sp, #16]
 281:Core/Src/stm32f4xx_hal_msp.c ****     __HAL_RCC_GPIOC_CLK_ENABLE();
 989              		.loc 1 281 5 view .LVU261
 990 0098 1A6B     		ldr	r2, [r3, #48]
 991 009a 42F04002 		orr	r2, r2, #64
 992 009e 1A63     		str	r2, [r3, #48]
 281:Core/Src/stm32f4xx_hal_msp.c ****     __HAL_RCC_GPIOC_CLK_ENABLE();
 993              		.loc 1 281 5 view .LVU262
 994 00a0 1A6B     		ldr	r2, [r3, #48]
 995 00a2 02F04002 		and	r2, r2, #64
 996 00a6 0492     		str	r2, [sp, #16]
 281:Core/Src/stm32f4xx_hal_msp.c ****     __HAL_RCC_GPIOC_CLK_ENABLE();
 997              		.loc 1 281 5 view .LVU263
 998 00a8 049A     		ldr	r2, [sp, #16]
 999              	.LBE14:
 281:Core/Src/stm32f4xx_hal_msp.c ****     __HAL_RCC_GPIOC_CLK_ENABLE();
 1000              		.loc 1 281 5 view .LVU264
 282:Core/Src/stm32f4xx_hal_msp.c ****     __HAL_RCC_GPIOD_CLK_ENABLE();
 1001              		.loc 1 282 5 view .LVU265
 1002              	.LBB15:
 282:Core/Src/stm32f4xx_hal_msp.c ****     __HAL_RCC_GPIOD_CLK_ENABLE();
 1003              		.loc 1 282 5 view .LVU266
 1004 00aa 0594     		str	r4, [sp, #20]
 282:Core/Src/stm32f4xx_hal_msp.c ****     __HAL_RCC_GPIOD_CLK_ENABLE();
 1005              		.loc 1 282 5 view .LVU267
 1006 00ac 1A6B     		ldr	r2, [r3, #48]
 1007 00ae 42F00402 		orr	r2, r2, #4
 1008 00b2 1A63     		str	r2, [r3, #48]
 282:Core/Src/stm32f4xx_hal_msp.c ****     __HAL_RCC_GPIOD_CLK_ENABLE();
 1009              		.loc 1 282 5 view .LVU268
 1010 00b4 1A6B     		ldr	r2, [r3, #48]
 1011 00b6 02F00402 		and	r2, r2, #4
 1012 00ba 0592     		str	r2, [sp, #20]
 282:Core/Src/stm32f4xx_hal_msp.c ****     __HAL_RCC_GPIOD_CLK_ENABLE();
 1013              		.loc 1 282 5 view .LVU269
 1014 00bc 059A     		ldr	r2, [sp, #20]
 1015              	.LBE15:
ARM GAS  C:\Users\stefa\AppData\Local\Temp\ccFxeAQn.s 			page 37


 282:Core/Src/stm32f4xx_hal_msp.c ****     __HAL_RCC_GPIOD_CLK_ENABLE();
 1016              		.loc 1 282 5 view .LVU270
 283:Core/Src/stm32f4xx_hal_msp.c ****     /**LTDC GPIO Configuration
 1017              		.loc 1 283 5 view .LVU271
 1018              	.LBB16:
 283:Core/Src/stm32f4xx_hal_msp.c ****     /**LTDC GPIO Configuration
 1019              		.loc 1 283 5 view .LVU272
 1020 00be 0694     		str	r4, [sp, #24]
 283:Core/Src/stm32f4xx_hal_msp.c ****     /**LTDC GPIO Configuration
 1021              		.loc 1 283 5 view .LVU273
 1022 00c0 1A6B     		ldr	r2, [r3, #48]
 1023 00c2 42F00802 		orr	r2, r2, #8
 1024 00c6 1A63     		str	r2, [r3, #48]
 283:Core/Src/stm32f4xx_hal_msp.c ****     /**LTDC GPIO Configuration
 1025              		.loc 1 283 5 view .LVU274
 1026 00c8 1B6B     		ldr	r3, [r3, #48]
 1027 00ca 03F00803 		and	r3, r3, #8
 1028 00ce 0693     		str	r3, [sp, #24]
 283:Core/Src/stm32f4xx_hal_msp.c ****     /**LTDC GPIO Configuration
 1029              		.loc 1 283 5 view .LVU275
 1030 00d0 069B     		ldr	r3, [sp, #24]
 1031              	.LBE16:
 283:Core/Src/stm32f4xx_hal_msp.c ****     /**LTDC GPIO Configuration
 1032              		.loc 1 283 5 view .LVU276
 308:Core/Src/stm32f4xx_hal_msp.c ****     GPIO_InitStruct.Mode = GPIO_MODE_AF_PP;
 1033              		.loc 1 308 5 view .LVU277
 308:Core/Src/stm32f4xx_hal_msp.c ****     GPIO_InitStruct.Mode = GPIO_MODE_AF_PP;
 1034              		.loc 1 308 25 is_stmt 0 view .LVU278
 1035 00d2 4FF48063 		mov	r3, #1024
 1036 00d6 1393     		str	r3, [sp, #76]
 309:Core/Src/stm32f4xx_hal_msp.c ****     GPIO_InitStruct.Pull = GPIO_NOPULL;
 1037              		.loc 1 309 5 is_stmt 1 view .LVU279
 309:Core/Src/stm32f4xx_hal_msp.c ****     GPIO_InitStruct.Pull = GPIO_NOPULL;
 1038              		.loc 1 309 26 is_stmt 0 view .LVU280
 1039 00d8 0225     		movs	r5, #2
 1040 00da 1495     		str	r5, [sp, #80]
 310:Core/Src/stm32f4xx_hal_msp.c ****     GPIO_InitStruct.Speed = GPIO_SPEED_FREQ_LOW;
 1041              		.loc 1 310 5 is_stmt 1 view .LVU281
 310:Core/Src/stm32f4xx_hal_msp.c ****     GPIO_InitStruct.Speed = GPIO_SPEED_FREQ_LOW;
 1042              		.loc 1 310 26 is_stmt 0 view .LVU282
 1043 00dc 1594     		str	r4, [sp, #84]
 311:Core/Src/stm32f4xx_hal_msp.c ****     GPIO_InitStruct.Alternate = GPIO_AF14_LTDC;
 1044              		.loc 1 311 5 is_stmt 1 view .LVU283
 311:Core/Src/stm32f4xx_hal_msp.c ****     GPIO_InitStruct.Alternate = GPIO_AF14_LTDC;
 1045              		.loc 1 311 27 is_stmt 0 view .LVU284
 1046 00de 1694     		str	r4, [sp, #88]
 312:Core/Src/stm32f4xx_hal_msp.c ****     HAL_GPIO_Init(ENABLE_GPIO_Port, &GPIO_InitStruct);
 1047              		.loc 1 312 5 is_stmt 1 view .LVU285
 312:Core/Src/stm32f4xx_hal_msp.c ****     HAL_GPIO_Init(ENABLE_GPIO_Port, &GPIO_InitStruct);
 1048              		.loc 1 312 31 is_stmt 0 view .LVU286
 1049 00e0 0E26     		movs	r6, #14
 1050 00e2 1796     		str	r6, [sp, #92]
 313:Core/Src/stm32f4xx_hal_msp.c **** 
 1051              		.loc 1 313 5 is_stmt 1 view .LVU287
 1052 00e4 13A9     		add	r1, sp, #76
 1053 00e6 3248     		ldr	r0, .L68+8
 1054 00e8 FFF7FEFF 		bl	HAL_GPIO_Init
ARM GAS  C:\Users\stefa\AppData\Local\Temp\ccFxeAQn.s 			page 38


 1055              	.LVL42:
 315:Core/Src/stm32f4xx_hal_msp.c ****                           |R5_Pin;
 1056              		.loc 1 315 5 view .LVU288
 315:Core/Src/stm32f4xx_hal_msp.c ****                           |R5_Pin;
 1057              		.loc 1 315 25 is_stmt 0 view .LVU289
 1058 00ec 41F65803 		movw	r3, #6232
 1059 00f0 1393     		str	r3, [sp, #76]
 317:Core/Src/stm32f4xx_hal_msp.c ****     GPIO_InitStruct.Pull = GPIO_NOPULL;
 1060              		.loc 1 317 5 is_stmt 1 view .LVU290
 317:Core/Src/stm32f4xx_hal_msp.c ****     GPIO_InitStruct.Pull = GPIO_NOPULL;
 1061              		.loc 1 317 26 is_stmt 0 view .LVU291
 1062 00f2 1495     		str	r5, [sp, #80]
 318:Core/Src/stm32f4xx_hal_msp.c ****     GPIO_InitStruct.Speed = GPIO_SPEED_FREQ_LOW;
 1063              		.loc 1 318 5 is_stmt 1 view .LVU292
 318:Core/Src/stm32f4xx_hal_msp.c ****     GPIO_InitStruct.Speed = GPIO_SPEED_FREQ_LOW;
 1064              		.loc 1 318 26 is_stmt 0 view .LVU293
 1065 00f4 1594     		str	r4, [sp, #84]
 319:Core/Src/stm32f4xx_hal_msp.c ****     GPIO_InitStruct.Alternate = GPIO_AF14_LTDC;
 1066              		.loc 1 319 5 is_stmt 1 view .LVU294
 319:Core/Src/stm32f4xx_hal_msp.c ****     GPIO_InitStruct.Alternate = GPIO_AF14_LTDC;
 1067              		.loc 1 319 27 is_stmt 0 view .LVU295
 1068 00f6 1694     		str	r4, [sp, #88]
 320:Core/Src/stm32f4xx_hal_msp.c ****     HAL_GPIO_Init(GPIOA, &GPIO_InitStruct);
 1069              		.loc 1 320 5 is_stmt 1 view .LVU296
 320:Core/Src/stm32f4xx_hal_msp.c ****     HAL_GPIO_Init(GPIOA, &GPIO_InitStruct);
 1070              		.loc 1 320 31 is_stmt 0 view .LVU297
 1071 00f8 1796     		str	r6, [sp, #92]
 321:Core/Src/stm32f4xx_hal_msp.c **** 
 1072              		.loc 1 321 5 is_stmt 1 view .LVU298
 1073 00fa 13A9     		add	r1, sp, #76
 1074 00fc 2D48     		ldr	r0, .L68+12
 1075 00fe FFF7FEFF 		bl	HAL_GPIO_Init
 1076              	.LVL43:
 323:Core/Src/stm32f4xx_hal_msp.c ****     GPIO_InitStruct.Mode = GPIO_MODE_AF_PP;
 1077              		.loc 1 323 5 view .LVU299
 323:Core/Src/stm32f4xx_hal_msp.c ****     GPIO_InitStruct.Mode = GPIO_MODE_AF_PP;
 1078              		.loc 1 323 25 is_stmt 0 view .LVU300
 1079 0102 0323     		movs	r3, #3
 1080 0104 1393     		str	r3, [sp, #76]
 324:Core/Src/stm32f4xx_hal_msp.c ****     GPIO_InitStruct.Pull = GPIO_NOPULL;
 1081              		.loc 1 324 5 is_stmt 1 view .LVU301
 324:Core/Src/stm32f4xx_hal_msp.c ****     GPIO_InitStruct.Pull = GPIO_NOPULL;
 1082              		.loc 1 324 26 is_stmt 0 view .LVU302
 1083 0106 1495     		str	r5, [sp, #80]
 325:Core/Src/stm32f4xx_hal_msp.c ****     GPIO_InitStruct.Speed = GPIO_SPEED_FREQ_LOW;
 1084              		.loc 1 325 5 is_stmt 1 view .LVU303
 325:Core/Src/stm32f4xx_hal_msp.c ****     GPIO_InitStruct.Speed = GPIO_SPEED_FREQ_LOW;
 1085              		.loc 1 325 26 is_stmt 0 view .LVU304
 1086 0108 1594     		str	r4, [sp, #84]
 326:Core/Src/stm32f4xx_hal_msp.c ****     GPIO_InitStruct.Alternate = GPIO_AF9_LTDC;
 1087              		.loc 1 326 5 is_stmt 1 view .LVU305
 326:Core/Src/stm32f4xx_hal_msp.c ****     GPIO_InitStruct.Alternate = GPIO_AF9_LTDC;
 1088              		.loc 1 326 27 is_stmt 0 view .LVU306
 1089 010a 1694     		str	r4, [sp, #88]
 327:Core/Src/stm32f4xx_hal_msp.c ****     HAL_GPIO_Init(GPIOB, &GPIO_InitStruct);
 1090              		.loc 1 327 5 is_stmt 1 view .LVU307
 327:Core/Src/stm32f4xx_hal_msp.c ****     HAL_GPIO_Init(GPIOB, &GPIO_InitStruct);
ARM GAS  C:\Users\stefa\AppData\Local\Temp\ccFxeAQn.s 			page 39


 1091              		.loc 1 327 31 is_stmt 0 view .LVU308
 1092 010c 4FF00908 		mov	r8, #9
 1093 0110 CDF85C80 		str	r8, [sp, #92]
 328:Core/Src/stm32f4xx_hal_msp.c **** 
 1094              		.loc 1 328 5 is_stmt 1 view .LVU309
 1095 0114 284F     		ldr	r7, .L68+16
 1096 0116 13A9     		add	r1, sp, #76
 1097 0118 3846     		mov	r0, r7
 1098 011a FFF7FEFF 		bl	HAL_GPIO_Init
 1099              	.LVL44:
 330:Core/Src/stm32f4xx_hal_msp.c ****     GPIO_InitStruct.Mode = GPIO_MODE_AF_PP;
 1100              		.loc 1 330 5 view .LVU310
 330:Core/Src/stm32f4xx_hal_msp.c ****     GPIO_InitStruct.Mode = GPIO_MODE_AF_PP;
 1101              		.loc 1 330 25 is_stmt 0 view .LVU311
 1102 011e 4FF47063 		mov	r3, #3840
 1103 0122 1393     		str	r3, [sp, #76]
 331:Core/Src/stm32f4xx_hal_msp.c ****     GPIO_InitStruct.Pull = GPIO_NOPULL;
 1104              		.loc 1 331 5 is_stmt 1 view .LVU312
 331:Core/Src/stm32f4xx_hal_msp.c ****     GPIO_InitStruct.Pull = GPIO_NOPULL;
 1105              		.loc 1 331 26 is_stmt 0 view .LVU313
 1106 0124 1495     		str	r5, [sp, #80]
 332:Core/Src/stm32f4xx_hal_msp.c ****     GPIO_InitStruct.Speed = GPIO_SPEED_FREQ_LOW;
 1107              		.loc 1 332 5 is_stmt 1 view .LVU314
 332:Core/Src/stm32f4xx_hal_msp.c ****     GPIO_InitStruct.Speed = GPIO_SPEED_FREQ_LOW;
 1108              		.loc 1 332 26 is_stmt 0 view .LVU315
 1109 0126 1594     		str	r4, [sp, #84]
 333:Core/Src/stm32f4xx_hal_msp.c ****     GPIO_InitStruct.Alternate = GPIO_AF14_LTDC;
 1110              		.loc 1 333 5 is_stmt 1 view .LVU316
 333:Core/Src/stm32f4xx_hal_msp.c ****     GPIO_InitStruct.Alternate = GPIO_AF14_LTDC;
 1111              		.loc 1 333 27 is_stmt 0 view .LVU317
 1112 0128 1694     		str	r4, [sp, #88]
 334:Core/Src/stm32f4xx_hal_msp.c ****     HAL_GPIO_Init(GPIOB, &GPIO_InitStruct);
 1113              		.loc 1 334 5 is_stmt 1 view .LVU318
 334:Core/Src/stm32f4xx_hal_msp.c ****     HAL_GPIO_Init(GPIOB, &GPIO_InitStruct);
 1114              		.loc 1 334 31 is_stmt 0 view .LVU319
 1115 012a 1796     		str	r6, [sp, #92]
 335:Core/Src/stm32f4xx_hal_msp.c **** 
 1116              		.loc 1 335 5 is_stmt 1 view .LVU320
 1117 012c 13A9     		add	r1, sp, #76
 1118 012e 3846     		mov	r0, r7
 1119 0130 FFF7FEFF 		bl	HAL_GPIO_Init
 1120              	.LVL45:
 337:Core/Src/stm32f4xx_hal_msp.c ****     GPIO_InitStruct.Mode = GPIO_MODE_AF_PP;
 1121              		.loc 1 337 5 view .LVU321
 337:Core/Src/stm32f4xx_hal_msp.c ****     GPIO_InitStruct.Mode = GPIO_MODE_AF_PP;
 1122              		.loc 1 337 25 is_stmt 0 view .LVU322
 1123 0134 4FF40C63 		mov	r3, #2240
 1124 0138 1393     		str	r3, [sp, #76]
 338:Core/Src/stm32f4xx_hal_msp.c ****     GPIO_InitStruct.Pull = GPIO_NOPULL;
 1125              		.loc 1 338 5 is_stmt 1 view .LVU323
 338:Core/Src/stm32f4xx_hal_msp.c ****     GPIO_InitStruct.Pull = GPIO_NOPULL;
 1126              		.loc 1 338 26 is_stmt 0 view .LVU324
 1127 013a 1495     		str	r5, [sp, #80]
 339:Core/Src/stm32f4xx_hal_msp.c ****     GPIO_InitStruct.Speed = GPIO_SPEED_FREQ_LOW;
 1128              		.loc 1 339 5 is_stmt 1 view .LVU325
 339:Core/Src/stm32f4xx_hal_msp.c ****     GPIO_InitStruct.Speed = GPIO_SPEED_FREQ_LOW;
 1129              		.loc 1 339 26 is_stmt 0 view .LVU326
ARM GAS  C:\Users\stefa\AppData\Local\Temp\ccFxeAQn.s 			page 40


 1130 013c 1594     		str	r4, [sp, #84]
 340:Core/Src/stm32f4xx_hal_msp.c ****     GPIO_InitStruct.Alternate = GPIO_AF14_LTDC;
 1131              		.loc 1 340 5 is_stmt 1 view .LVU327
 340:Core/Src/stm32f4xx_hal_msp.c ****     GPIO_InitStruct.Alternate = GPIO_AF14_LTDC;
 1132              		.loc 1 340 27 is_stmt 0 view .LVU328
 1133 013e 1694     		str	r4, [sp, #88]
 341:Core/Src/stm32f4xx_hal_msp.c ****     HAL_GPIO_Init(GPIOG, &GPIO_InitStruct);
 1134              		.loc 1 341 5 is_stmt 1 view .LVU329
 341:Core/Src/stm32f4xx_hal_msp.c ****     HAL_GPIO_Init(GPIOG, &GPIO_InitStruct);
 1135              		.loc 1 341 31 is_stmt 0 view .LVU330
 1136 0140 1796     		str	r6, [sp, #92]
 342:Core/Src/stm32f4xx_hal_msp.c **** 
 1137              		.loc 1 342 5 is_stmt 1 view .LVU331
 1138 0142 07F5A057 		add	r7, r7, #5120
 1139 0146 13A9     		add	r1, sp, #76
 1140 0148 3846     		mov	r0, r7
 1141 014a FFF7FEFF 		bl	HAL_GPIO_Init
 1142              	.LVL46:
 344:Core/Src/stm32f4xx_hal_msp.c ****     GPIO_InitStruct.Mode = GPIO_MODE_AF_PP;
 1143              		.loc 1 344 5 view .LVU332
 344:Core/Src/stm32f4xx_hal_msp.c ****     GPIO_InitStruct.Mode = GPIO_MODE_AF_PP;
 1144              		.loc 1 344 25 is_stmt 0 view .LVU333
 1145 014e 4FF49863 		mov	r3, #1216
 1146 0152 1393     		str	r3, [sp, #76]
 345:Core/Src/stm32f4xx_hal_msp.c ****     GPIO_InitStruct.Pull = GPIO_NOPULL;
 1147              		.loc 1 345 5 is_stmt 1 view .LVU334
 345:Core/Src/stm32f4xx_hal_msp.c ****     GPIO_InitStruct.Pull = GPIO_NOPULL;
 1148              		.loc 1 345 26 is_stmt 0 view .LVU335
 1149 0154 1495     		str	r5, [sp, #80]
 346:Core/Src/stm32f4xx_hal_msp.c ****     GPIO_InitStruct.Speed = GPIO_SPEED_FREQ_LOW;
 1150              		.loc 1 346 5 is_stmt 1 view .LVU336
 346:Core/Src/stm32f4xx_hal_msp.c ****     GPIO_InitStruct.Speed = GPIO_SPEED_FREQ_LOW;
 1151              		.loc 1 346 26 is_stmt 0 view .LVU337
 1152 0156 1594     		str	r4, [sp, #84]
 347:Core/Src/stm32f4xx_hal_msp.c ****     GPIO_InitStruct.Alternate = GPIO_AF14_LTDC;
 1153              		.loc 1 347 5 is_stmt 1 view .LVU338
 347:Core/Src/stm32f4xx_hal_msp.c ****     GPIO_InitStruct.Alternate = GPIO_AF14_LTDC;
 1154              		.loc 1 347 27 is_stmt 0 view .LVU339
 1155 0158 1694     		str	r4, [sp, #88]
 348:Core/Src/stm32f4xx_hal_msp.c ****     HAL_GPIO_Init(GPIOC, &GPIO_InitStruct);
 1156              		.loc 1 348 5 is_stmt 1 view .LVU340
 348:Core/Src/stm32f4xx_hal_msp.c ****     HAL_GPIO_Init(GPIOC, &GPIO_InitStruct);
 1157              		.loc 1 348 31 is_stmt 0 view .LVU341
 1158 015a 1796     		str	r6, [sp, #92]
 349:Core/Src/stm32f4xx_hal_msp.c **** 
 1159              		.loc 1 349 5 is_stmt 1 view .LVU342
 1160 015c 13A9     		add	r1, sp, #76
 1161 015e 1748     		ldr	r0, .L68+20
 1162 0160 FFF7FEFF 		bl	HAL_GPIO_Init
 1163              	.LVL47:
 351:Core/Src/stm32f4xx_hal_msp.c ****     GPIO_InitStruct.Mode = GPIO_MODE_AF_PP;
 1164              		.loc 1 351 5 view .LVU343
 351:Core/Src/stm32f4xx_hal_msp.c ****     GPIO_InitStruct.Mode = GPIO_MODE_AF_PP;
 1165              		.loc 1 351 25 is_stmt 0 view .LVU344
 1166 0164 4823     		movs	r3, #72
 1167 0166 1393     		str	r3, [sp, #76]
 352:Core/Src/stm32f4xx_hal_msp.c ****     GPIO_InitStruct.Pull = GPIO_NOPULL;
ARM GAS  C:\Users\stefa\AppData\Local\Temp\ccFxeAQn.s 			page 41


 1168              		.loc 1 352 5 is_stmt 1 view .LVU345
 352:Core/Src/stm32f4xx_hal_msp.c ****     GPIO_InitStruct.Pull = GPIO_NOPULL;
 1169              		.loc 1 352 26 is_stmt 0 view .LVU346
 1170 0168 1495     		str	r5, [sp, #80]
 353:Core/Src/stm32f4xx_hal_msp.c ****     GPIO_InitStruct.Speed = GPIO_SPEED_FREQ_LOW;
 1171              		.loc 1 353 5 is_stmt 1 view .LVU347
 353:Core/Src/stm32f4xx_hal_msp.c ****     GPIO_InitStruct.Speed = GPIO_SPEED_FREQ_LOW;
 1172              		.loc 1 353 26 is_stmt 0 view .LVU348
 1173 016a 1594     		str	r4, [sp, #84]
 354:Core/Src/stm32f4xx_hal_msp.c ****     GPIO_InitStruct.Alternate = GPIO_AF14_LTDC;
 1174              		.loc 1 354 5 is_stmt 1 view .LVU349
 354:Core/Src/stm32f4xx_hal_msp.c ****     GPIO_InitStruct.Alternate = GPIO_AF14_LTDC;
 1175              		.loc 1 354 27 is_stmt 0 view .LVU350
 1176 016c 1694     		str	r4, [sp, #88]
 355:Core/Src/stm32f4xx_hal_msp.c ****     HAL_GPIO_Init(GPIOD, &GPIO_InitStruct);
 1177              		.loc 1 355 5 is_stmt 1 view .LVU351
 355:Core/Src/stm32f4xx_hal_msp.c ****     HAL_GPIO_Init(GPIOD, &GPIO_InitStruct);
 1178              		.loc 1 355 31 is_stmt 0 view .LVU352
 1179 016e 1796     		str	r6, [sp, #92]
 356:Core/Src/stm32f4xx_hal_msp.c **** 
 1180              		.loc 1 356 5 is_stmt 1 view .LVU353
 1181 0170 13A9     		add	r1, sp, #76
 1182 0172 1348     		ldr	r0, .L68+24
 1183 0174 FFF7FEFF 		bl	HAL_GPIO_Init
 1184              	.LVL48:
 358:Core/Src/stm32f4xx_hal_msp.c ****     GPIO_InitStruct.Mode = GPIO_MODE_AF_PP;
 1185              		.loc 1 358 5 view .LVU354
 358:Core/Src/stm32f4xx_hal_msp.c ****     GPIO_InitStruct.Mode = GPIO_MODE_AF_PP;
 1186              		.loc 1 358 25 is_stmt 0 view .LVU355
 1187 0178 4FF4A053 		mov	r3, #5120
 1188 017c 1393     		str	r3, [sp, #76]
 359:Core/Src/stm32f4xx_hal_msp.c ****     GPIO_InitStruct.Pull = GPIO_NOPULL;
 1189              		.loc 1 359 5 is_stmt 1 view .LVU356
 359:Core/Src/stm32f4xx_hal_msp.c ****     GPIO_InitStruct.Pull = GPIO_NOPULL;
 1190              		.loc 1 359 26 is_stmt 0 view .LVU357
 1191 017e 1495     		str	r5, [sp, #80]
 360:Core/Src/stm32f4xx_hal_msp.c ****     GPIO_InitStruct.Speed = GPIO_SPEED_FREQ_LOW;
 1192              		.loc 1 360 5 is_stmt 1 view .LVU358
 360:Core/Src/stm32f4xx_hal_msp.c ****     GPIO_InitStruct.Speed = GPIO_SPEED_FREQ_LOW;
 1193              		.loc 1 360 26 is_stmt 0 view .LVU359
 1194 0180 1594     		str	r4, [sp, #84]
 361:Core/Src/stm32f4xx_hal_msp.c ****     GPIO_InitStruct.Alternate = GPIO_AF9_LTDC;
 1195              		.loc 1 361 5 is_stmt 1 view .LVU360
 361:Core/Src/stm32f4xx_hal_msp.c ****     GPIO_InitStruct.Alternate = GPIO_AF9_LTDC;
 1196              		.loc 1 361 27 is_stmt 0 view .LVU361
 1197 0182 1694     		str	r4, [sp, #88]
 362:Core/Src/stm32f4xx_hal_msp.c ****     HAL_GPIO_Init(GPIOG, &GPIO_InitStruct);
 1198              		.loc 1 362 5 is_stmt 1 view .LVU362
 362:Core/Src/stm32f4xx_hal_msp.c ****     HAL_GPIO_Init(GPIOG, &GPIO_InitStruct);
 1199              		.loc 1 362 31 is_stmt 0 view .LVU363
 1200 0184 CDF85C80 		str	r8, [sp, #92]
 363:Core/Src/stm32f4xx_hal_msp.c **** 
 1201              		.loc 1 363 5 is_stmt 1 view .LVU364
 1202 0188 13A9     		add	r1, sp, #76
 1203 018a 3846     		mov	r0, r7
 1204 018c FFF7FEFF 		bl	HAL_GPIO_Init
 1205              	.LVL49:
ARM GAS  C:\Users\stefa\AppData\Local\Temp\ccFxeAQn.s 			page 42


 366:Core/Src/stm32f4xx_hal_msp.c ****     HAL_NVIC_EnableIRQ(LTDC_IRQn);
 1206              		.loc 1 366 5 view .LVU365
 1207 0190 2246     		mov	r2, r4
 1208 0192 0521     		movs	r1, #5
 1209 0194 5820     		movs	r0, #88
 1210 0196 FFF7FEFF 		bl	HAL_NVIC_SetPriority
 1211              	.LVL50:
 367:Core/Src/stm32f4xx_hal_msp.c ****   /* USER CODE BEGIN LTDC_MspInit 1 */
 1212              		.loc 1 367 5 view .LVU366
 1213 019a 5820     		movs	r0, #88
 1214 019c FFF7FEFF 		bl	HAL_NVIC_EnableIRQ
 1215              	.LVL51:
 373:Core/Src/stm32f4xx_hal_msp.c **** 
 1216              		.loc 1 373 1 is_stmt 0 view .LVU367
 1217 01a0 40E7     		b	.L62
 1218              	.LVL52:
 1219              	.L67:
 272:Core/Src/stm32f4xx_hal_msp.c ****     }
 1220              		.loc 1 272 7 is_stmt 1 view .LVU368
 1221 01a2 FFF7FEFF 		bl	Error_Handler
 1222              	.LVL53:
 1223 01a6 4CE7     		b	.L64
 1224              	.L69:
 1225              		.align	2
 1226              	.L68:
 1227 01a8 00680140 		.word	1073833984
 1228 01ac 00380240 		.word	1073887232
 1229 01b0 00140240 		.word	1073878016
 1230 01b4 00000240 		.word	1073872896
 1231 01b8 00040240 		.word	1073873920
 1232 01bc 00080240 		.word	1073874944
 1233 01c0 000C0240 		.word	1073875968
 1234              		.cfi_endproc
 1235              	.LFE137:
 1237              		.section	.text.HAL_LTDC_MspDeInit,"ax",%progbits
 1238              		.align	1
 1239              		.global	HAL_LTDC_MspDeInit
 1240              		.syntax unified
 1241              		.thumb
 1242              		.thumb_func
 1244              	HAL_LTDC_MspDeInit:
 1245              	.LVL54:
 1246              	.LFB138:
 382:Core/Src/stm32f4xx_hal_msp.c ****   if(hltdc->Instance==LTDC)
 1247              		.loc 1 382 1 view -0
 1248              		.cfi_startproc
 1249              		@ args = 0, pretend = 0, frame = 0
 1250              		@ frame_needed = 0, uses_anonymous_args = 0
 382:Core/Src/stm32f4xx_hal_msp.c ****   if(hltdc->Instance==LTDC)
 1251              		.loc 1 382 1 is_stmt 0 view .LVU370
 1252 0000 08B5     		push	{r3, lr}
 1253              	.LCFI22:
 1254              		.cfi_def_cfa_offset 8
 1255              		.cfi_offset 3, -8
 1256              		.cfi_offset 14, -4
 383:Core/Src/stm32f4xx_hal_msp.c ****   {
 1257              		.loc 1 383 3 is_stmt 1 view .LVU371
ARM GAS  C:\Users\stefa\AppData\Local\Temp\ccFxeAQn.s 			page 43


 383:Core/Src/stm32f4xx_hal_msp.c ****   {
 1258              		.loc 1 383 11 is_stmt 0 view .LVU372
 1259 0002 0268     		ldr	r2, [r0]
 383:Core/Src/stm32f4xx_hal_msp.c ****   {
 1260              		.loc 1 383 5 view .LVU373
 1261 0004 144B     		ldr	r3, .L74
 1262 0006 9A42     		cmp	r2, r3
 1263 0008 00D0     		beq	.L73
 1264              	.LVL55:
 1265              	.L70:
 437:Core/Src/stm32f4xx_hal_msp.c **** 
 1266              		.loc 1 437 1 view .LVU374
 1267 000a 08BD     		pop	{r3, pc}
 1268              	.LVL56:
 1269              	.L73:
 389:Core/Src/stm32f4xx_hal_msp.c **** 
 1270              		.loc 1 389 5 is_stmt 1 view .LVU375
 1271 000c 134A     		ldr	r2, .L74+4
 1272 000e 536C     		ldr	r3, [r2, #68]
 1273 0010 23F08063 		bic	r3, r3, #67108864
 1274 0014 5364     		str	r3, [r2, #68]
 415:Core/Src/stm32f4xx_hal_msp.c **** 
 1275              		.loc 1 415 5 view .LVU376
 1276 0016 4FF48061 		mov	r1, #1024
 1277 001a 1148     		ldr	r0, .L74+8
 1278              	.LVL57:
 415:Core/Src/stm32f4xx_hal_msp.c **** 
 1279              		.loc 1 415 5 is_stmt 0 view .LVU377
 1280 001c FFF7FEFF 		bl	HAL_GPIO_DeInit
 1281              	.LVL58:
 417:Core/Src/stm32f4xx_hal_msp.c ****                           |R5_Pin);
 1282              		.loc 1 417 5 is_stmt 1 view .LVU378
 1283 0020 41F65801 		movw	r1, #6232
 1284 0024 0F48     		ldr	r0, .L74+12
 1285 0026 FFF7FEFF 		bl	HAL_GPIO_DeInit
 1286              	.LVL59:
 420:Core/Src/stm32f4xx_hal_msp.c ****                           |B6_Pin|B7_Pin);
 1287              		.loc 1 420 5 view .LVU379
 1288 002a 40F60371 		movw	r1, #3843
 1289 002e 0E48     		ldr	r0, .L74+16
 1290 0030 FFF7FEFF 		bl	HAL_GPIO_DeInit
 1291              	.LVL60:
 423:Core/Src/stm32f4xx_hal_msp.c ****                           |B4_Pin);
 1292              		.loc 1 423 5 view .LVU380
 1293 0034 4FF4E651 		mov	r1, #7360
 1294 0038 0C48     		ldr	r0, .L74+20
 1295 003a FFF7FEFF 		bl	HAL_GPIO_DeInit
 1296              	.LVL61:
 426:Core/Src/stm32f4xx_hal_msp.c **** 
 1297              		.loc 1 426 5 view .LVU381
 1298 003e 4FF49861 		mov	r1, #1216
 1299 0042 0B48     		ldr	r0, .L74+24
 1300 0044 FFF7FEFF 		bl	HAL_GPIO_DeInit
 1301              	.LVL62:
 428:Core/Src/stm32f4xx_hal_msp.c **** 
 1302              		.loc 1 428 5 view .LVU382
 1303 0048 4821     		movs	r1, #72
ARM GAS  C:\Users\stefa\AppData\Local\Temp\ccFxeAQn.s 			page 44


 1304 004a 0A48     		ldr	r0, .L74+28
 1305 004c FFF7FEFF 		bl	HAL_GPIO_DeInit
 1306              	.LVL63:
 431:Core/Src/stm32f4xx_hal_msp.c ****   /* USER CODE BEGIN LTDC_MspDeInit 1 */
 1307              		.loc 1 431 5 view .LVU383
 1308 0050 5820     		movs	r0, #88
 1309 0052 FFF7FEFF 		bl	HAL_NVIC_DisableIRQ
 1310              	.LVL64:
 437:Core/Src/stm32f4xx_hal_msp.c **** 
 1311              		.loc 1 437 1 is_stmt 0 view .LVU384
 1312 0056 D8E7     		b	.L70
 1313              	.L75:
 1314              		.align	2
 1315              	.L74:
 1316 0058 00680140 		.word	1073833984
 1317 005c 00380240 		.word	1073887232
 1318 0060 00140240 		.word	1073878016
 1319 0064 00000240 		.word	1073872896
 1320 0068 00040240 		.word	1073873920
 1321 006c 00180240 		.word	1073879040
 1322 0070 00080240 		.word	1073874944
 1323 0074 000C0240 		.word	1073875968
 1324              		.cfi_endproc
 1325              	.LFE138:
 1327              		.section	.text.HAL_SPI_MspInit,"ax",%progbits
 1328              		.align	1
 1329              		.global	HAL_SPI_MspInit
 1330              		.syntax unified
 1331              		.thumb
 1332              		.thumb_func
 1334              	HAL_SPI_MspInit:
 1335              	.LVL65:
 1336              	.LFB139:
 446:Core/Src/stm32f4xx_hal_msp.c ****   GPIO_InitTypeDef GPIO_InitStruct = {0};
 1337              		.loc 1 446 1 is_stmt 1 view -0
 1338              		.cfi_startproc
 1339              		@ args = 0, pretend = 0, frame = 32
 1340              		@ frame_needed = 0, uses_anonymous_args = 0
 446:Core/Src/stm32f4xx_hal_msp.c ****   GPIO_InitTypeDef GPIO_InitStruct = {0};
 1341              		.loc 1 446 1 is_stmt 0 view .LVU386
 1342 0000 00B5     		push	{lr}
 1343              	.LCFI23:
 1344              		.cfi_def_cfa_offset 4
 1345              		.cfi_offset 14, -4
 1346 0002 89B0     		sub	sp, sp, #36
 1347              	.LCFI24:
 1348              		.cfi_def_cfa_offset 40
 447:Core/Src/stm32f4xx_hal_msp.c ****   if(hspi->Instance==SPI5)
 1349              		.loc 1 447 3 is_stmt 1 view .LVU387
 447:Core/Src/stm32f4xx_hal_msp.c ****   if(hspi->Instance==SPI5)
 1350              		.loc 1 447 20 is_stmt 0 view .LVU388
 1351 0004 0023     		movs	r3, #0
 1352 0006 0393     		str	r3, [sp, #12]
 1353 0008 0493     		str	r3, [sp, #16]
 1354 000a 0593     		str	r3, [sp, #20]
 1355 000c 0693     		str	r3, [sp, #24]
 1356 000e 0793     		str	r3, [sp, #28]
ARM GAS  C:\Users\stefa\AppData\Local\Temp\ccFxeAQn.s 			page 45


 448:Core/Src/stm32f4xx_hal_msp.c ****   {
 1357              		.loc 1 448 3 is_stmt 1 view .LVU389
 448:Core/Src/stm32f4xx_hal_msp.c ****   {
 1358              		.loc 1 448 10 is_stmt 0 view .LVU390
 1359 0010 0268     		ldr	r2, [r0]
 448:Core/Src/stm32f4xx_hal_msp.c ****   {
 1360              		.loc 1 448 5 view .LVU391
 1361 0012 144B     		ldr	r3, .L80
 1362 0014 9A42     		cmp	r2, r3
 1363 0016 02D0     		beq	.L79
 1364              	.LVL66:
 1365              	.L76:
 474:Core/Src/stm32f4xx_hal_msp.c **** 
 1366              		.loc 1 474 1 view .LVU392
 1367 0018 09B0     		add	sp, sp, #36
 1368              	.LCFI25:
 1369              		.cfi_remember_state
 1370              		.cfi_def_cfa_offset 4
 1371              		@ sp needed
 1372 001a 5DF804FB 		ldr	pc, [sp], #4
 1373              	.LVL67:
 1374              	.L79:
 1375              	.LCFI26:
 1376              		.cfi_restore_state
 454:Core/Src/stm32f4xx_hal_msp.c **** 
 1377              		.loc 1 454 5 is_stmt 1 view .LVU393
 1378              	.LBB17:
 454:Core/Src/stm32f4xx_hal_msp.c **** 
 1379              		.loc 1 454 5 view .LVU394
 1380 001e 0021     		movs	r1, #0
 1381 0020 0191     		str	r1, [sp, #4]
 454:Core/Src/stm32f4xx_hal_msp.c **** 
 1382              		.loc 1 454 5 view .LVU395
 1383 0022 03F56843 		add	r3, r3, #59392
 1384 0026 5A6C     		ldr	r2, [r3, #68]
 1385 0028 42F48012 		orr	r2, r2, #1048576
 1386 002c 5A64     		str	r2, [r3, #68]
 454:Core/Src/stm32f4xx_hal_msp.c **** 
 1387              		.loc 1 454 5 view .LVU396
 1388 002e 5A6C     		ldr	r2, [r3, #68]
 1389 0030 02F48012 		and	r2, r2, #1048576
 1390 0034 0192     		str	r2, [sp, #4]
 454:Core/Src/stm32f4xx_hal_msp.c **** 
 1391              		.loc 1 454 5 view .LVU397
 1392 0036 019A     		ldr	r2, [sp, #4]
 1393              	.LBE17:
 454:Core/Src/stm32f4xx_hal_msp.c **** 
 1394              		.loc 1 454 5 view .LVU398
 456:Core/Src/stm32f4xx_hal_msp.c ****     /**SPI5 GPIO Configuration
 1395              		.loc 1 456 5 view .LVU399
 1396              	.LBB18:
 456:Core/Src/stm32f4xx_hal_msp.c ****     /**SPI5 GPIO Configuration
 1397              		.loc 1 456 5 view .LVU400
 1398 0038 0291     		str	r1, [sp, #8]
 456:Core/Src/stm32f4xx_hal_msp.c ****     /**SPI5 GPIO Configuration
 1399              		.loc 1 456 5 view .LVU401
 1400 003a 1A6B     		ldr	r2, [r3, #48]
ARM GAS  C:\Users\stefa\AppData\Local\Temp\ccFxeAQn.s 			page 46


 1401 003c 42F02002 		orr	r2, r2, #32
 1402 0040 1A63     		str	r2, [r3, #48]
 456:Core/Src/stm32f4xx_hal_msp.c ****     /**SPI5 GPIO Configuration
 1403              		.loc 1 456 5 view .LVU402
 1404 0042 1B6B     		ldr	r3, [r3, #48]
 1405 0044 03F02003 		and	r3, r3, #32
 1406 0048 0293     		str	r3, [sp, #8]
 456:Core/Src/stm32f4xx_hal_msp.c ****     /**SPI5 GPIO Configuration
 1407              		.loc 1 456 5 view .LVU403
 1408 004a 029B     		ldr	r3, [sp, #8]
 1409              	.LBE18:
 456:Core/Src/stm32f4xx_hal_msp.c ****     /**SPI5 GPIO Configuration
 1410              		.loc 1 456 5 view .LVU404
 462:Core/Src/stm32f4xx_hal_msp.c ****     GPIO_InitStruct.Mode = GPIO_MODE_AF_PP;
 1411              		.loc 1 462 5 view .LVU405
 462:Core/Src/stm32f4xx_hal_msp.c ****     GPIO_InitStruct.Mode = GPIO_MODE_AF_PP;
 1412              		.loc 1 462 25 is_stmt 0 view .LVU406
 1413 004c 4FF46073 		mov	r3, #896
 1414 0050 0393     		str	r3, [sp, #12]
 463:Core/Src/stm32f4xx_hal_msp.c ****     GPIO_InitStruct.Pull = GPIO_NOPULL;
 1415              		.loc 1 463 5 is_stmt 1 view .LVU407
 463:Core/Src/stm32f4xx_hal_msp.c ****     GPIO_InitStruct.Pull = GPIO_NOPULL;
 1416              		.loc 1 463 26 is_stmt 0 view .LVU408
 1417 0052 0223     		movs	r3, #2
 1418 0054 0493     		str	r3, [sp, #16]
 464:Core/Src/stm32f4xx_hal_msp.c ****     GPIO_InitStruct.Speed = GPIO_SPEED_FREQ_LOW;
 1419              		.loc 1 464 5 is_stmt 1 view .LVU409
 465:Core/Src/stm32f4xx_hal_msp.c ****     GPIO_InitStruct.Alternate = GPIO_AF5_SPI5;
 1420              		.loc 1 465 5 view .LVU410
 466:Core/Src/stm32f4xx_hal_msp.c ****     HAL_GPIO_Init(GPIOF, &GPIO_InitStruct);
 1421              		.loc 1 466 5 view .LVU411
 466:Core/Src/stm32f4xx_hal_msp.c ****     HAL_GPIO_Init(GPIOF, &GPIO_InitStruct);
 1422              		.loc 1 466 31 is_stmt 0 view .LVU412
 1423 0056 0523     		movs	r3, #5
 1424 0058 0793     		str	r3, [sp, #28]
 467:Core/Src/stm32f4xx_hal_msp.c **** 
 1425              		.loc 1 467 5 is_stmt 1 view .LVU413
 1426 005a 03A9     		add	r1, sp, #12
 1427 005c 0248     		ldr	r0, .L80+4
 1428              	.LVL68:
 467:Core/Src/stm32f4xx_hal_msp.c **** 
 1429              		.loc 1 467 5 is_stmt 0 view .LVU414
 1430 005e FFF7FEFF 		bl	HAL_GPIO_Init
 1431              	.LVL69:
 474:Core/Src/stm32f4xx_hal_msp.c **** 
 1432              		.loc 1 474 1 view .LVU415
 1433 0062 D9E7     		b	.L76
 1434              	.L81:
 1435              		.align	2
 1436              	.L80:
 1437 0064 00500140 		.word	1073827840
 1438 0068 00140240 		.word	1073878016
 1439              		.cfi_endproc
 1440              	.LFE139:
 1442              		.section	.text.HAL_SPI_MspDeInit,"ax",%progbits
 1443              		.align	1
 1444              		.global	HAL_SPI_MspDeInit
ARM GAS  C:\Users\stefa\AppData\Local\Temp\ccFxeAQn.s 			page 47


 1445              		.syntax unified
 1446              		.thumb
 1447              		.thumb_func
 1449              	HAL_SPI_MspDeInit:
 1450              	.LVL70:
 1451              	.LFB140:
 483:Core/Src/stm32f4xx_hal_msp.c ****   if(hspi->Instance==SPI5)
 1452              		.loc 1 483 1 is_stmt 1 view -0
 1453              		.cfi_startproc
 1454              		@ args = 0, pretend = 0, frame = 0
 1455              		@ frame_needed = 0, uses_anonymous_args = 0
 483:Core/Src/stm32f4xx_hal_msp.c ****   if(hspi->Instance==SPI5)
 1456              		.loc 1 483 1 is_stmt 0 view .LVU417
 1457 0000 08B5     		push	{r3, lr}
 1458              	.LCFI27:
 1459              		.cfi_def_cfa_offset 8
 1460              		.cfi_offset 3, -8
 1461              		.cfi_offset 14, -4
 484:Core/Src/stm32f4xx_hal_msp.c ****   {
 1462              		.loc 1 484 3 is_stmt 1 view .LVU418
 484:Core/Src/stm32f4xx_hal_msp.c ****   {
 1463              		.loc 1 484 10 is_stmt 0 view .LVU419
 1464 0002 0268     		ldr	r2, [r0]
 484:Core/Src/stm32f4xx_hal_msp.c ****   {
 1465              		.loc 1 484 5 view .LVU420
 1466 0004 074B     		ldr	r3, .L86
 1467 0006 9A42     		cmp	r2, r3
 1468 0008 00D0     		beq	.L85
 1469              	.LVL71:
 1470              	.L82:
 504:Core/Src/stm32f4xx_hal_msp.c **** 
 1471              		.loc 1 504 1 view .LVU421
 1472 000a 08BD     		pop	{r3, pc}
 1473              	.LVL72:
 1474              	.L85:
 490:Core/Src/stm32f4xx_hal_msp.c **** 
 1475              		.loc 1 490 5 is_stmt 1 view .LVU422
 1476 000c 064A     		ldr	r2, .L86+4
 1477 000e 536C     		ldr	r3, [r2, #68]
 1478 0010 23F48013 		bic	r3, r3, #1048576
 1479 0014 5364     		str	r3, [r2, #68]
 497:Core/Src/stm32f4xx_hal_msp.c **** 
 1480              		.loc 1 497 5 view .LVU423
 1481 0016 4FF46071 		mov	r1, #896
 1482 001a 0448     		ldr	r0, .L86+8
 1483              	.LVL73:
 497:Core/Src/stm32f4xx_hal_msp.c **** 
 1484              		.loc 1 497 5 is_stmt 0 view .LVU424
 1485 001c FFF7FEFF 		bl	HAL_GPIO_DeInit
 1486              	.LVL74:
 504:Core/Src/stm32f4xx_hal_msp.c **** 
 1487              		.loc 1 504 1 view .LVU425
 1488 0020 F3E7     		b	.L82
 1489              	.L87:
 1490 0022 00BF     		.align	2
 1491              	.L86:
 1492 0024 00500140 		.word	1073827840
ARM GAS  C:\Users\stefa\AppData\Local\Temp\ccFxeAQn.s 			page 48


 1493 0028 00380240 		.word	1073887232
 1494 002c 00140240 		.word	1073878016
 1495              		.cfi_endproc
 1496              	.LFE140:
 1498              		.section	.text.HAL_TIM_Base_MspInit,"ax",%progbits
 1499              		.align	1
 1500              		.global	HAL_TIM_Base_MspInit
 1501              		.syntax unified
 1502              		.thumb
 1503              		.thumb_func
 1505              	HAL_TIM_Base_MspInit:
 1506              	.LVL75:
 1507              	.LFB141:
 513:Core/Src/stm32f4xx_hal_msp.c ****   if(htim_base->Instance==TIM1)
 1508              		.loc 1 513 1 is_stmt 1 view -0
 1509              		.cfi_startproc
 1510              		@ args = 0, pretend = 0, frame = 8
 1511              		@ frame_needed = 0, uses_anonymous_args = 0
 1512              		@ link register save eliminated.
 514:Core/Src/stm32f4xx_hal_msp.c ****   {
 1513              		.loc 1 514 3 view .LVU427
 514:Core/Src/stm32f4xx_hal_msp.c ****   {
 1514              		.loc 1 514 15 is_stmt 0 view .LVU428
 1515 0000 0268     		ldr	r2, [r0]
 514:Core/Src/stm32f4xx_hal_msp.c ****   {
 1516              		.loc 1 514 5 view .LVU429
 1517 0002 094B     		ldr	r3, .L95
 1518 0004 9A42     		cmp	r2, r3
 1519 0006 00D0     		beq	.L94
 1520 0008 7047     		bx	lr
 1521              	.L94:
 513:Core/Src/stm32f4xx_hal_msp.c ****   if(htim_base->Instance==TIM1)
 1522              		.loc 1 513 1 view .LVU430
 1523 000a 82B0     		sub	sp, sp, #8
 1524              	.LCFI28:
 1525              		.cfi_def_cfa_offset 8
 520:Core/Src/stm32f4xx_hal_msp.c ****   /* USER CODE BEGIN TIM1_MspInit 1 */
 1526              		.loc 1 520 5 is_stmt 1 view .LVU431
 1527              	.LBB19:
 520:Core/Src/stm32f4xx_hal_msp.c ****   /* USER CODE BEGIN TIM1_MspInit 1 */
 1528              		.loc 1 520 5 view .LVU432
 1529 000c 0023     		movs	r3, #0
 1530 000e 0193     		str	r3, [sp, #4]
 520:Core/Src/stm32f4xx_hal_msp.c ****   /* USER CODE BEGIN TIM1_MspInit 1 */
 1531              		.loc 1 520 5 view .LVU433
 1532 0010 064B     		ldr	r3, .L95+4
 1533 0012 5A6C     		ldr	r2, [r3, #68]
 1534 0014 42F00102 		orr	r2, r2, #1
 1535 0018 5A64     		str	r2, [r3, #68]
 520:Core/Src/stm32f4xx_hal_msp.c ****   /* USER CODE BEGIN TIM1_MspInit 1 */
 1536              		.loc 1 520 5 view .LVU434
 1537 001a 5B6C     		ldr	r3, [r3, #68]
 1538 001c 03F00103 		and	r3, r3, #1
 1539 0020 0193     		str	r3, [sp, #4]
 520:Core/Src/stm32f4xx_hal_msp.c ****   /* USER CODE BEGIN TIM1_MspInit 1 */
 1540              		.loc 1 520 5 view .LVU435
 1541 0022 019B     		ldr	r3, [sp, #4]
ARM GAS  C:\Users\stefa\AppData\Local\Temp\ccFxeAQn.s 			page 49


 1542              	.LBE19:
 520:Core/Src/stm32f4xx_hal_msp.c ****   /* USER CODE BEGIN TIM1_MspInit 1 */
 1543              		.loc 1 520 5 view .LVU436
 526:Core/Src/stm32f4xx_hal_msp.c **** 
 1544              		.loc 1 526 1 is_stmt 0 view .LVU437
 1545 0024 02B0     		add	sp, sp, #8
 1546              	.LCFI29:
 1547              		.cfi_def_cfa_offset 0
 1548              		@ sp needed
 1549 0026 7047     		bx	lr
 1550              	.L96:
 1551              		.align	2
 1552              	.L95:
 1553 0028 00000140 		.word	1073807360
 1554 002c 00380240 		.word	1073887232
 1555              		.cfi_endproc
 1556              	.LFE141:
 1558              		.section	.text.HAL_TIM_Base_MspDeInit,"ax",%progbits
 1559              		.align	1
 1560              		.global	HAL_TIM_Base_MspDeInit
 1561              		.syntax unified
 1562              		.thumb
 1563              		.thumb_func
 1565              	HAL_TIM_Base_MspDeInit:
 1566              	.LVL76:
 1567              	.LFB142:
 535:Core/Src/stm32f4xx_hal_msp.c ****   if(htim_base->Instance==TIM1)
 1568              		.loc 1 535 1 is_stmt 1 view -0
 1569              		.cfi_startproc
 1570              		@ args = 0, pretend = 0, frame = 0
 1571              		@ frame_needed = 0, uses_anonymous_args = 0
 1572              		@ link register save eliminated.
 536:Core/Src/stm32f4xx_hal_msp.c ****   {
 1573              		.loc 1 536 3 view .LVU439
 536:Core/Src/stm32f4xx_hal_msp.c ****   {
 1574              		.loc 1 536 15 is_stmt 0 view .LVU440
 1575 0000 0268     		ldr	r2, [r0]
 536:Core/Src/stm32f4xx_hal_msp.c ****   {
 1576              		.loc 1 536 5 view .LVU441
 1577 0002 054B     		ldr	r3, .L100
 1578 0004 9A42     		cmp	r2, r3
 1579 0006 00D0     		beq	.L99
 1580              	.L97:
 548:Core/Src/stm32f4xx_hal_msp.c **** 
 1581              		.loc 1 548 1 view .LVU442
 1582 0008 7047     		bx	lr
 1583              	.L99:
 542:Core/Src/stm32f4xx_hal_msp.c ****   /* USER CODE BEGIN TIM1_MspDeInit 1 */
 1584              		.loc 1 542 5 is_stmt 1 view .LVU443
 1585 000a 044A     		ldr	r2, .L100+4
 1586 000c 536C     		ldr	r3, [r2, #68]
 1587 000e 23F00103 		bic	r3, r3, #1
 1588 0012 5364     		str	r3, [r2, #68]
 548:Core/Src/stm32f4xx_hal_msp.c **** 
 1589              		.loc 1 548 1 is_stmt 0 view .LVU444
 1590 0014 F8E7     		b	.L97
 1591              	.L101:
ARM GAS  C:\Users\stefa\AppData\Local\Temp\ccFxeAQn.s 			page 50


 1592 0016 00BF     		.align	2
 1593              	.L100:
 1594 0018 00000140 		.word	1073807360
 1595 001c 00380240 		.word	1073887232
 1596              		.cfi_endproc
 1597              	.LFE142:
 1599              		.section	.text.HAL_UART_MspInit,"ax",%progbits
 1600              		.align	1
 1601              		.global	HAL_UART_MspInit
 1602              		.syntax unified
 1603              		.thumb
 1604              		.thumb_func
 1606              	HAL_UART_MspInit:
 1607              	.LVL77:
 1608              	.LFB143:
 557:Core/Src/stm32f4xx_hal_msp.c ****   GPIO_InitTypeDef GPIO_InitStruct = {0};
 1609              		.loc 1 557 1 is_stmt 1 view -0
 1610              		.cfi_startproc
 1611              		@ args = 0, pretend = 0, frame = 32
 1612              		@ frame_needed = 0, uses_anonymous_args = 0
 557:Core/Src/stm32f4xx_hal_msp.c ****   GPIO_InitTypeDef GPIO_InitStruct = {0};
 1613              		.loc 1 557 1 is_stmt 0 view .LVU446
 1614 0000 00B5     		push	{lr}
 1615              	.LCFI30:
 1616              		.cfi_def_cfa_offset 4
 1617              		.cfi_offset 14, -4
 1618 0002 89B0     		sub	sp, sp, #36
 1619              	.LCFI31:
 1620              		.cfi_def_cfa_offset 40
 558:Core/Src/stm32f4xx_hal_msp.c ****   if(huart->Instance==USART1)
 1621              		.loc 1 558 3 is_stmt 1 view .LVU447
 558:Core/Src/stm32f4xx_hal_msp.c ****   if(huart->Instance==USART1)
 1622              		.loc 1 558 20 is_stmt 0 view .LVU448
 1623 0004 0023     		movs	r3, #0
 1624 0006 0393     		str	r3, [sp, #12]
 1625 0008 0493     		str	r3, [sp, #16]
 1626 000a 0593     		str	r3, [sp, #20]
 1627 000c 0693     		str	r3, [sp, #24]
 1628 000e 0793     		str	r3, [sp, #28]
 559:Core/Src/stm32f4xx_hal_msp.c ****   {
 1629              		.loc 1 559 3 is_stmt 1 view .LVU449
 559:Core/Src/stm32f4xx_hal_msp.c ****   {
 1630              		.loc 1 559 11 is_stmt 0 view .LVU450
 1631 0010 0268     		ldr	r2, [r0]
 559:Core/Src/stm32f4xx_hal_msp.c ****   {
 1632              		.loc 1 559 5 view .LVU451
 1633 0012 03F18043 		add	r3, r3, #1073741824
 1634 0016 03F58833 		add	r3, r3, #69632
 1635 001a 9A42     		cmp	r2, r3
 1636 001c 02D0     		beq	.L105
 1637              	.LVL78:
 1638              	.L102:
 584:Core/Src/stm32f4xx_hal_msp.c **** 
 1639              		.loc 1 584 1 view .LVU452
 1640 001e 09B0     		add	sp, sp, #36
 1641              	.LCFI32:
 1642              		.cfi_remember_state
ARM GAS  C:\Users\stefa\AppData\Local\Temp\ccFxeAQn.s 			page 51


 1643              		.cfi_def_cfa_offset 4
 1644              		@ sp needed
 1645 0020 5DF804FB 		ldr	pc, [sp], #4
 1646              	.LVL79:
 1647              	.L105:
 1648              	.LCFI33:
 1649              		.cfi_restore_state
 565:Core/Src/stm32f4xx_hal_msp.c **** 
 1650              		.loc 1 565 5 is_stmt 1 view .LVU453
 1651              	.LBB20:
 565:Core/Src/stm32f4xx_hal_msp.c **** 
 1652              		.loc 1 565 5 view .LVU454
 1653 0024 0021     		movs	r1, #0
 1654 0026 0191     		str	r1, [sp, #4]
 565:Core/Src/stm32f4xx_hal_msp.c **** 
 1655              		.loc 1 565 5 view .LVU455
 1656 0028 03F59433 		add	r3, r3, #75776
 1657 002c 5A6C     		ldr	r2, [r3, #68]
 1658 002e 42F01002 		orr	r2, r2, #16
 1659 0032 5A64     		str	r2, [r3, #68]
 565:Core/Src/stm32f4xx_hal_msp.c **** 
 1660              		.loc 1 565 5 view .LVU456
 1661 0034 5A6C     		ldr	r2, [r3, #68]
 1662 0036 02F01002 		and	r2, r2, #16
 1663 003a 0192     		str	r2, [sp, #4]
 565:Core/Src/stm32f4xx_hal_msp.c **** 
 1664              		.loc 1 565 5 view .LVU457
 1665 003c 019A     		ldr	r2, [sp, #4]
 1666              	.LBE20:
 565:Core/Src/stm32f4xx_hal_msp.c **** 
 1667              		.loc 1 565 5 view .LVU458
 567:Core/Src/stm32f4xx_hal_msp.c ****     /**USART1 GPIO Configuration
 1668              		.loc 1 567 5 view .LVU459
 1669              	.LBB21:
 567:Core/Src/stm32f4xx_hal_msp.c ****     /**USART1 GPIO Configuration
 1670              		.loc 1 567 5 view .LVU460
 1671 003e 0291     		str	r1, [sp, #8]
 567:Core/Src/stm32f4xx_hal_msp.c ****     /**USART1 GPIO Configuration
 1672              		.loc 1 567 5 view .LVU461
 1673 0040 1A6B     		ldr	r2, [r3, #48]
 1674 0042 42F00102 		orr	r2, r2, #1
 1675 0046 1A63     		str	r2, [r3, #48]
 567:Core/Src/stm32f4xx_hal_msp.c ****     /**USART1 GPIO Configuration
 1676              		.loc 1 567 5 view .LVU462
 1677 0048 1B6B     		ldr	r3, [r3, #48]
 1678 004a 03F00103 		and	r3, r3, #1
 1679 004e 0293     		str	r3, [sp, #8]
 567:Core/Src/stm32f4xx_hal_msp.c ****     /**USART1 GPIO Configuration
 1680              		.loc 1 567 5 view .LVU463
 1681 0050 029B     		ldr	r3, [sp, #8]
 1682              	.LBE21:
 567:Core/Src/stm32f4xx_hal_msp.c ****     /**USART1 GPIO Configuration
 1683              		.loc 1 567 5 view .LVU464
 572:Core/Src/stm32f4xx_hal_msp.c ****     GPIO_InitStruct.Mode = GPIO_MODE_AF_PP;
 1684              		.loc 1 572 5 view .LVU465
 572:Core/Src/stm32f4xx_hal_msp.c ****     GPIO_InitStruct.Mode = GPIO_MODE_AF_PP;
 1685              		.loc 1 572 25 is_stmt 0 view .LVU466
ARM GAS  C:\Users\stefa\AppData\Local\Temp\ccFxeAQn.s 			page 52


 1686 0052 4FF4C063 		mov	r3, #1536
 1687 0056 0393     		str	r3, [sp, #12]
 573:Core/Src/stm32f4xx_hal_msp.c ****     GPIO_InitStruct.Pull = GPIO_NOPULL;
 1688              		.loc 1 573 5 is_stmt 1 view .LVU467
 573:Core/Src/stm32f4xx_hal_msp.c ****     GPIO_InitStruct.Pull = GPIO_NOPULL;
 1689              		.loc 1 573 26 is_stmt 0 view .LVU468
 1690 0058 0223     		movs	r3, #2
 1691 005a 0493     		str	r3, [sp, #16]
 574:Core/Src/stm32f4xx_hal_msp.c ****     GPIO_InitStruct.Speed = GPIO_SPEED_FREQ_VERY_HIGH;
 1692              		.loc 1 574 5 is_stmt 1 view .LVU469
 575:Core/Src/stm32f4xx_hal_msp.c ****     GPIO_InitStruct.Alternate = GPIO_AF7_USART1;
 1693              		.loc 1 575 5 view .LVU470
 575:Core/Src/stm32f4xx_hal_msp.c ****     GPIO_InitStruct.Alternate = GPIO_AF7_USART1;
 1694              		.loc 1 575 27 is_stmt 0 view .LVU471
 1695 005c 0323     		movs	r3, #3
 1696 005e 0693     		str	r3, [sp, #24]
 576:Core/Src/stm32f4xx_hal_msp.c ****     HAL_GPIO_Init(GPIOA, &GPIO_InitStruct);
 1697              		.loc 1 576 5 is_stmt 1 view .LVU472
 576:Core/Src/stm32f4xx_hal_msp.c ****     HAL_GPIO_Init(GPIOA, &GPIO_InitStruct);
 1698              		.loc 1 576 31 is_stmt 0 view .LVU473
 1699 0060 0723     		movs	r3, #7
 1700 0062 0793     		str	r3, [sp, #28]
 577:Core/Src/stm32f4xx_hal_msp.c **** 
 1701              		.loc 1 577 5 is_stmt 1 view .LVU474
 1702 0064 03A9     		add	r1, sp, #12
 1703 0066 0248     		ldr	r0, .L106
 1704              	.LVL80:
 577:Core/Src/stm32f4xx_hal_msp.c **** 
 1705              		.loc 1 577 5 is_stmt 0 view .LVU475
 1706 0068 FFF7FEFF 		bl	HAL_GPIO_Init
 1707              	.LVL81:
 584:Core/Src/stm32f4xx_hal_msp.c **** 
 1708              		.loc 1 584 1 view .LVU476
 1709 006c D7E7     		b	.L102
 1710              	.L107:
 1711 006e 00BF     		.align	2
 1712              	.L106:
 1713 0070 00000240 		.word	1073872896
 1714              		.cfi_endproc
 1715              	.LFE143:
 1717              		.section	.text.HAL_UART_MspDeInit,"ax",%progbits
 1718              		.align	1
 1719              		.global	HAL_UART_MspDeInit
 1720              		.syntax unified
 1721              		.thumb
 1722              		.thumb_func
 1724              	HAL_UART_MspDeInit:
 1725              	.LVL82:
 1726              	.LFB144:
 593:Core/Src/stm32f4xx_hal_msp.c ****   if(huart->Instance==USART1)
 1727              		.loc 1 593 1 is_stmt 1 view -0
 1728              		.cfi_startproc
 1729              		@ args = 0, pretend = 0, frame = 0
 1730              		@ frame_needed = 0, uses_anonymous_args = 0
 593:Core/Src/stm32f4xx_hal_msp.c ****   if(huart->Instance==USART1)
 1731              		.loc 1 593 1 is_stmt 0 view .LVU478
 1732 0000 08B5     		push	{r3, lr}
ARM GAS  C:\Users\stefa\AppData\Local\Temp\ccFxeAQn.s 			page 53


 1733              	.LCFI34:
 1734              		.cfi_def_cfa_offset 8
 1735              		.cfi_offset 3, -8
 1736              		.cfi_offset 14, -4
 594:Core/Src/stm32f4xx_hal_msp.c ****   {
 1737              		.loc 1 594 3 is_stmt 1 view .LVU479
 594:Core/Src/stm32f4xx_hal_msp.c ****   {
 1738              		.loc 1 594 11 is_stmt 0 view .LVU480
 1739 0002 0268     		ldr	r2, [r0]
 594:Core/Src/stm32f4xx_hal_msp.c ****   {
 1740              		.loc 1 594 5 view .LVU481
 1741 0004 074B     		ldr	r3, .L112
 1742 0006 9A42     		cmp	r2, r3
 1743 0008 00D0     		beq	.L111
 1744              	.LVL83:
 1745              	.L108:
 613:Core/Src/stm32f4xx_hal_msp.c **** 
 1746              		.loc 1 613 1 view .LVU482
 1747 000a 08BD     		pop	{r3, pc}
 1748              	.LVL84:
 1749              	.L111:
 600:Core/Src/stm32f4xx_hal_msp.c **** 
 1750              		.loc 1 600 5 is_stmt 1 view .LVU483
 1751 000c 064A     		ldr	r2, .L112+4
 1752 000e 536C     		ldr	r3, [r2, #68]
 1753 0010 23F01003 		bic	r3, r3, #16
 1754 0014 5364     		str	r3, [r2, #68]
 606:Core/Src/stm32f4xx_hal_msp.c **** 
 1755              		.loc 1 606 5 view .LVU484
 1756 0016 4FF4C061 		mov	r1, #1536
 1757 001a 0448     		ldr	r0, .L112+8
 1758              	.LVL85:
 606:Core/Src/stm32f4xx_hal_msp.c **** 
 1759              		.loc 1 606 5 is_stmt 0 view .LVU485
 1760 001c FFF7FEFF 		bl	HAL_GPIO_DeInit
 1761              	.LVL86:
 613:Core/Src/stm32f4xx_hal_msp.c **** 
 1762              		.loc 1 613 1 view .LVU486
 1763 0020 F3E7     		b	.L108
 1764              	.L113:
 1765 0022 00BF     		.align	2
 1766              	.L112:
 1767 0024 00100140 		.word	1073811456
 1768 0028 00380240 		.word	1073887232
 1769 002c 00000240 		.word	1073872896
 1770              		.cfi_endproc
 1771              	.LFE144:
 1773              		.section	.text.HAL_SDRAM_MspInit,"ax",%progbits
 1774              		.align	1
 1775              		.global	HAL_SDRAM_MspInit
 1776              		.syntax unified
 1777              		.thumb
 1778              		.thumb_func
 1780              	HAL_SDRAM_MspInit:
 1781              	.LVL87:
 1782              	.LFB146:
 723:Core/Src/stm32f4xx_hal_msp.c ****   /* USER CODE BEGIN SDRAM_MspInit 0 */
ARM GAS  C:\Users\stefa\AppData\Local\Temp\ccFxeAQn.s 			page 54


 1783              		.loc 1 723 52 is_stmt 1 view -0
 1784              		.cfi_startproc
 1785              		@ args = 0, pretend = 0, frame = 0
 1786              		@ frame_needed = 0, uses_anonymous_args = 0
 723:Core/Src/stm32f4xx_hal_msp.c ****   /* USER CODE BEGIN SDRAM_MspInit 0 */
 1787              		.loc 1 723 52 is_stmt 0 view .LVU488
 1788 0000 08B5     		push	{r3, lr}
 1789              	.LCFI35:
 1790              		.cfi_def_cfa_offset 8
 1791              		.cfi_offset 3, -8
 1792              		.cfi_offset 14, -4
 727:Core/Src/stm32f4xx_hal_msp.c ****   /* USER CODE BEGIN SDRAM_MspInit 1 */
 1793              		.loc 1 727 3 is_stmt 1 view .LVU489
 1794 0002 FFF7FEFF 		bl	HAL_FMC_MspInit
 1795              	.LVL88:
 731:Core/Src/stm32f4xx_hal_msp.c **** 
 1796              		.loc 1 731 1 is_stmt 0 view .LVU490
 1797 0006 08BD     		pop	{r3, pc}
 1798              		.cfi_endproc
 1799              	.LFE146:
 1801              		.section	.text.HAL_SDRAM_MspDeInit,"ax",%progbits
 1802              		.align	1
 1803              		.global	HAL_SDRAM_MspDeInit
 1804              		.syntax unified
 1805              		.thumb
 1806              		.thumb_func
 1808              	HAL_SDRAM_MspDeInit:
 1809              	.LVL89:
 1810              	.LFB148:
 808:Core/Src/stm32f4xx_hal_msp.c **** 
 809:Core/Src/stm32f4xx_hal_msp.c **** void HAL_SDRAM_MspDeInit(SDRAM_HandleTypeDef* hsdram){
 1811              		.loc 1 809 54 is_stmt 1 view -0
 1812              		.cfi_startproc
 1813              		@ args = 0, pretend = 0, frame = 0
 1814              		@ frame_needed = 0, uses_anonymous_args = 0
 1815              		.loc 1 809 54 is_stmt 0 view .LVU492
 1816 0000 08B5     		push	{r3, lr}
 1817              	.LCFI36:
 1818              		.cfi_def_cfa_offset 8
 1819              		.cfi_offset 3, -8
 1820              		.cfi_offset 14, -4
 810:Core/Src/stm32f4xx_hal_msp.c ****   /* USER CODE BEGIN SDRAM_MspDeInit 0 */
 811:Core/Src/stm32f4xx_hal_msp.c **** 
 812:Core/Src/stm32f4xx_hal_msp.c ****   /* USER CODE END SDRAM_MspDeInit 0 */
 813:Core/Src/stm32f4xx_hal_msp.c ****   HAL_FMC_MspDeInit();
 1821              		.loc 1 813 3 is_stmt 1 view .LVU493
 1822 0002 FFF7FEFF 		bl	HAL_FMC_MspDeInit
 1823              	.LVL90:
 814:Core/Src/stm32f4xx_hal_msp.c ****   /* USER CODE BEGIN SDRAM_MspDeInit 1 */
 815:Core/Src/stm32f4xx_hal_msp.c **** 
 816:Core/Src/stm32f4xx_hal_msp.c ****   /* USER CODE END SDRAM_MspDeInit 1 */
 817:Core/Src/stm32f4xx_hal_msp.c **** }
 1824              		.loc 1 817 1 is_stmt 0 view .LVU494
 1825 0006 08BD     		pop	{r3, pc}
 1826              		.cfi_endproc
 1827              	.LFE148:
 1829              		.section	.bss.FMC_DeInitialized,"aw",%nobits
ARM GAS  C:\Users\stefa\AppData\Local\Temp\ccFxeAQn.s 			page 55


 1830              		.align	2
 1831              		.set	.LANCHOR1,. + 0
 1834              	FMC_DeInitialized:
 1835 0000 00000000 		.space	4
 1836              		.section	.bss.FMC_Initialized,"aw",%nobits
 1837              		.align	2
 1838              		.set	.LANCHOR0,. + 0
 1841              	FMC_Initialized:
 1842 0000 00000000 		.space	4
 1843              		.text
 1844              	.Letext0:
 1845              		.file 2 "d:\\vscodedev\\tools\\gcc-arm-none-eabi-10.3-2021.10\\arm-none-eabi\\include\\machine\\_d
 1846              		.file 3 "d:\\vscodedev\\tools\\gcc-arm-none-eabi-10.3-2021.10\\arm-none-eabi\\include\\sys\\_stdin
 1847              		.file 4 "Drivers/CMSIS/Device/ST/STM32F4xx/Include/stm32f429xx.h"
 1848              		.file 5 "Drivers/STM32F4xx_HAL_Driver/Inc/stm32f4xx_hal_def.h"
 1849              		.file 6 "Drivers/STM32F4xx_HAL_Driver/Inc/stm32f4xx_hal_rcc_ex.h"
 1850              		.file 7 "Drivers/STM32F4xx_HAL_Driver/Inc/stm32f4xx_hal_gpio.h"
 1851              		.file 8 "Drivers/STM32F4xx_HAL_Driver/Inc/stm32f4xx_hal_dma.h"
 1852              		.file 9 "Drivers/STM32F4xx_HAL_Driver/Inc/stm32f4xx_hal_crc.h"
 1853              		.file 10 "Drivers/STM32F4xx_HAL_Driver/Inc/stm32f4xx_hal_dma2d.h"
 1854              		.file 11 "Drivers/STM32F4xx_HAL_Driver/Inc/stm32f4xx_ll_fmc.h"
 1855              		.file 12 "Drivers/STM32F4xx_HAL_Driver/Inc/stm32f4xx_hal_sdram.h"
 1856              		.file 13 "Drivers/STM32F4xx_HAL_Driver/Inc/stm32f4xx_hal_i2c.h"
 1857              		.file 14 "Drivers/STM32F4xx_HAL_Driver/Inc/stm32f4xx_hal_ltdc.h"
 1858              		.file 15 "Drivers/STM32F4xx_HAL_Driver/Inc/stm32f4xx_hal_spi.h"
 1859              		.file 16 "Drivers/STM32F4xx_HAL_Driver/Inc/stm32f4xx_hal_tim.h"
 1860              		.file 17 "Drivers/STM32F4xx_HAL_Driver/Inc/stm32f4xx_hal_uart.h"
 1861              		.file 18 "Drivers/STM32F4xx_HAL_Driver/Inc/stm32f4xx_hal_cortex.h"
 1862              		.file 19 "Core/Inc/main.h"
 1863              		.file 20 "<built-in>"
ARM GAS  C:\Users\stefa\AppData\Local\Temp\ccFxeAQn.s 			page 56

