ARM GAS  C:\Users\stefa\AppData\Local\Temp\ccMreSci.s 			page 1


   1              		.cpu cortex-m4
   2              		.arch armv7e-m
   3              		.fpu fpv4-sp-d16
   4              		.eabi_attribute 27, 1
   5              		.eabi_attribute 28, 1
   6              		.eabi_attribute 20, 1
   7              		.eabi_attribute 21, 1
   8              		.eabi_attribute 23, 3
   9              		.eabi_attribute 24, 1
  10              		.eabi_attribute 25, 1
  11              		.eabi_attribute 26, 1
  12              		.eabi_attribute 30, 1
  13              		.eabi_attribute 34, 1
  14              		.eabi_attribute 18, 4
  15              		.file	"stm32f4xx_ll_fmc.c"
  16              		.text
  17              	.Ltext0:
  18              		.cfi_sections	.debug_frame
  19              		.section	.text.FMC_NORSRAM_Init,"ax",%progbits
  20              		.align	1
  21              		.global	FMC_NORSRAM_Init
  22              		.syntax unified
  23              		.thumb
  24              		.thumb_func
  26              	FMC_NORSRAM_Init:
  27              	.LVL0:
  28              	.LFB130:
  29              		.file 1 "Drivers/STM32F4xx_HAL_Driver/Src/stm32f4xx_ll_fmc.c"
   1:Drivers/STM32F4xx_HAL_Driver/Src/stm32f4xx_ll_fmc.c **** /**
   2:Drivers/STM32F4xx_HAL_Driver/Src/stm32f4xx_ll_fmc.c ****   ******************************************************************************
   3:Drivers/STM32F4xx_HAL_Driver/Src/stm32f4xx_ll_fmc.c ****   * @file    stm32f4xx_ll_fmc.c
   4:Drivers/STM32F4xx_HAL_Driver/Src/stm32f4xx_ll_fmc.c ****   * @author  MCD Application Team
   5:Drivers/STM32F4xx_HAL_Driver/Src/stm32f4xx_ll_fmc.c ****   * @brief   FMC Low Layer HAL module driver.
   6:Drivers/STM32F4xx_HAL_Driver/Src/stm32f4xx_ll_fmc.c ****   *
   7:Drivers/STM32F4xx_HAL_Driver/Src/stm32f4xx_ll_fmc.c ****   *          This file provides firmware functions to manage the following
   8:Drivers/STM32F4xx_HAL_Driver/Src/stm32f4xx_ll_fmc.c ****   *          functionalities of the Flexible Memory Controller (FMC) peripheral memories:
   9:Drivers/STM32F4xx_HAL_Driver/Src/stm32f4xx_ll_fmc.c ****   *           + Initialization/de-initialization functions
  10:Drivers/STM32F4xx_HAL_Driver/Src/stm32f4xx_ll_fmc.c ****   *           + Peripheral Control functions
  11:Drivers/STM32F4xx_HAL_Driver/Src/stm32f4xx_ll_fmc.c ****   *           + Peripheral State functions
  12:Drivers/STM32F4xx_HAL_Driver/Src/stm32f4xx_ll_fmc.c ****   *
  13:Drivers/STM32F4xx_HAL_Driver/Src/stm32f4xx_ll_fmc.c ****   ******************************************************************************
  14:Drivers/STM32F4xx_HAL_Driver/Src/stm32f4xx_ll_fmc.c ****   * @attention
  15:Drivers/STM32F4xx_HAL_Driver/Src/stm32f4xx_ll_fmc.c ****   *
  16:Drivers/STM32F4xx_HAL_Driver/Src/stm32f4xx_ll_fmc.c ****   * Copyright (c) 2016 STMicroelectronics.
  17:Drivers/STM32F4xx_HAL_Driver/Src/stm32f4xx_ll_fmc.c ****   * All rights reserved.
  18:Drivers/STM32F4xx_HAL_Driver/Src/stm32f4xx_ll_fmc.c ****   *
  19:Drivers/STM32F4xx_HAL_Driver/Src/stm32f4xx_ll_fmc.c ****   * This software is licensed under terms that can be found in the LICENSE file
  20:Drivers/STM32F4xx_HAL_Driver/Src/stm32f4xx_ll_fmc.c ****   * in the root directory of this software component.
  21:Drivers/STM32F4xx_HAL_Driver/Src/stm32f4xx_ll_fmc.c ****   * If no LICENSE file comes with this software, it is provided AS-IS.
  22:Drivers/STM32F4xx_HAL_Driver/Src/stm32f4xx_ll_fmc.c ****   *
  23:Drivers/STM32F4xx_HAL_Driver/Src/stm32f4xx_ll_fmc.c ****   ******************************************************************************
  24:Drivers/STM32F4xx_HAL_Driver/Src/stm32f4xx_ll_fmc.c ****   @verbatim
  25:Drivers/STM32F4xx_HAL_Driver/Src/stm32f4xx_ll_fmc.c ****   ==============================================================================
  26:Drivers/STM32F4xx_HAL_Driver/Src/stm32f4xx_ll_fmc.c ****                         ##### FMC peripheral features #####
  27:Drivers/STM32F4xx_HAL_Driver/Src/stm32f4xx_ll_fmc.c ****   ==============================================================================
  28:Drivers/STM32F4xx_HAL_Driver/Src/stm32f4xx_ll_fmc.c ****   [..] The Flexible memory controller (FMC) includes following memory controllers:
  29:Drivers/STM32F4xx_HAL_Driver/Src/stm32f4xx_ll_fmc.c ****        (+) The NOR/PSRAM memory controller
ARM GAS  C:\Users\stefa\AppData\Local\Temp\ccMreSci.s 			page 2


  30:Drivers/STM32F4xx_HAL_Driver/Src/stm32f4xx_ll_fmc.c ****        (+) The NAND/PC Card memory controller
  31:Drivers/STM32F4xx_HAL_Driver/Src/stm32f4xx_ll_fmc.c ****        (+) The Synchronous DRAM (SDRAM) controller
  32:Drivers/STM32F4xx_HAL_Driver/Src/stm32f4xx_ll_fmc.c **** 
  33:Drivers/STM32F4xx_HAL_Driver/Src/stm32f4xx_ll_fmc.c ****   [..] The FMC functional block makes the interface with synchronous and asynchronous static
  34:Drivers/STM32F4xx_HAL_Driver/Src/stm32f4xx_ll_fmc.c ****        memories, SDRAM memories, and 16-bit PC memory cards. Its main purposes are:
  35:Drivers/STM32F4xx_HAL_Driver/Src/stm32f4xx_ll_fmc.c ****        (+) to translate AHB transactions into the appropriate external device protocol
  36:Drivers/STM32F4xx_HAL_Driver/Src/stm32f4xx_ll_fmc.c ****        (+) to meet the access time requirements of the external memory devices
  37:Drivers/STM32F4xx_HAL_Driver/Src/stm32f4xx_ll_fmc.c **** 
  38:Drivers/STM32F4xx_HAL_Driver/Src/stm32f4xx_ll_fmc.c ****   [..] All external memories share the addresses, data and control signals with the controller.
  39:Drivers/STM32F4xx_HAL_Driver/Src/stm32f4xx_ll_fmc.c ****        Each external device is accessed by means of a unique Chip Select. The FMC performs
  40:Drivers/STM32F4xx_HAL_Driver/Src/stm32f4xx_ll_fmc.c ****        only one access at a time to an external device.
  41:Drivers/STM32F4xx_HAL_Driver/Src/stm32f4xx_ll_fmc.c ****        The main features of the FMC controller are the following:
  42:Drivers/STM32F4xx_HAL_Driver/Src/stm32f4xx_ll_fmc.c ****         (+) Interface with static-memory mapped devices including:
  43:Drivers/STM32F4xx_HAL_Driver/Src/stm32f4xx_ll_fmc.c ****            (++) Static random access memory (SRAM)
  44:Drivers/STM32F4xx_HAL_Driver/Src/stm32f4xx_ll_fmc.c ****            (++) Read-only memory (ROM)
  45:Drivers/STM32F4xx_HAL_Driver/Src/stm32f4xx_ll_fmc.c ****            (++) NOR Flash memory/OneNAND Flash memory
  46:Drivers/STM32F4xx_HAL_Driver/Src/stm32f4xx_ll_fmc.c ****            (++) PSRAM (4 memory banks)
  47:Drivers/STM32F4xx_HAL_Driver/Src/stm32f4xx_ll_fmc.c ****            (++) 16-bit PC Card compatible devices
  48:Drivers/STM32F4xx_HAL_Driver/Src/stm32f4xx_ll_fmc.c ****            (++) Two banks of NAND Flash memory with ECC hardware to check up to 8 Kbytes of
  49:Drivers/STM32F4xx_HAL_Driver/Src/stm32f4xx_ll_fmc.c ****                 data
  50:Drivers/STM32F4xx_HAL_Driver/Src/stm32f4xx_ll_fmc.c ****         (+) Interface with synchronous DRAM (SDRAM) memories
  51:Drivers/STM32F4xx_HAL_Driver/Src/stm32f4xx_ll_fmc.c ****         (+) Independent Chip Select control for each memory bank
  52:Drivers/STM32F4xx_HAL_Driver/Src/stm32f4xx_ll_fmc.c ****         (+) Independent configuration for each memory bank
  53:Drivers/STM32F4xx_HAL_Driver/Src/stm32f4xx_ll_fmc.c **** 
  54:Drivers/STM32F4xx_HAL_Driver/Src/stm32f4xx_ll_fmc.c ****   @endverbatim
  55:Drivers/STM32F4xx_HAL_Driver/Src/stm32f4xx_ll_fmc.c ****   ******************************************************************************
  56:Drivers/STM32F4xx_HAL_Driver/Src/stm32f4xx_ll_fmc.c ****   */
  57:Drivers/STM32F4xx_HAL_Driver/Src/stm32f4xx_ll_fmc.c **** 
  58:Drivers/STM32F4xx_HAL_Driver/Src/stm32f4xx_ll_fmc.c **** /* Includes ------------------------------------------------------------------*/
  59:Drivers/STM32F4xx_HAL_Driver/Src/stm32f4xx_ll_fmc.c **** #include "stm32f4xx_hal.h"
  60:Drivers/STM32F4xx_HAL_Driver/Src/stm32f4xx_ll_fmc.c **** 
  61:Drivers/STM32F4xx_HAL_Driver/Src/stm32f4xx_ll_fmc.c **** /** @addtogroup STM32F4xx_HAL_Driver
  62:Drivers/STM32F4xx_HAL_Driver/Src/stm32f4xx_ll_fmc.c ****   * @{
  63:Drivers/STM32F4xx_HAL_Driver/Src/stm32f4xx_ll_fmc.c ****   */
  64:Drivers/STM32F4xx_HAL_Driver/Src/stm32f4xx_ll_fmc.c **** #if defined(HAL_NOR_MODULE_ENABLED) || defined(HAL_SRAM_MODULE_ENABLED) || (defined(HAL_NAND_MODULE
  65:Drivers/STM32F4xx_HAL_Driver/Src/stm32f4xx_ll_fmc.c **** 
  66:Drivers/STM32F4xx_HAL_Driver/Src/stm32f4xx_ll_fmc.c **** /** @defgroup FMC_LL  FMC Low Layer
  67:Drivers/STM32F4xx_HAL_Driver/Src/stm32f4xx_ll_fmc.c ****   * @brief FMC driver modules
  68:Drivers/STM32F4xx_HAL_Driver/Src/stm32f4xx_ll_fmc.c ****   * @{
  69:Drivers/STM32F4xx_HAL_Driver/Src/stm32f4xx_ll_fmc.c ****   */
  70:Drivers/STM32F4xx_HAL_Driver/Src/stm32f4xx_ll_fmc.c **** 
  71:Drivers/STM32F4xx_HAL_Driver/Src/stm32f4xx_ll_fmc.c **** /* Private typedef -----------------------------------------------------------*/
  72:Drivers/STM32F4xx_HAL_Driver/Src/stm32f4xx_ll_fmc.c **** /* Private define ------------------------------------------------------------*/
  73:Drivers/STM32F4xx_HAL_Driver/Src/stm32f4xx_ll_fmc.c **** 
  74:Drivers/STM32F4xx_HAL_Driver/Src/stm32f4xx_ll_fmc.c **** /** @defgroup FMC_LL_Private_Constants FMC Low Layer Private Constants
  75:Drivers/STM32F4xx_HAL_Driver/Src/stm32f4xx_ll_fmc.c ****   * @{
  76:Drivers/STM32F4xx_HAL_Driver/Src/stm32f4xx_ll_fmc.c ****   */
  77:Drivers/STM32F4xx_HAL_Driver/Src/stm32f4xx_ll_fmc.c **** 
  78:Drivers/STM32F4xx_HAL_Driver/Src/stm32f4xx_ll_fmc.c **** /* ----------------------- FMC registers bit mask --------------------------- */
  79:Drivers/STM32F4xx_HAL_Driver/Src/stm32f4xx_ll_fmc.c **** 
  80:Drivers/STM32F4xx_HAL_Driver/Src/stm32f4xx_ll_fmc.c **** #if defined(FMC_Bank1)
  81:Drivers/STM32F4xx_HAL_Driver/Src/stm32f4xx_ll_fmc.c **** /* --- BCR Register ---*/
  82:Drivers/STM32F4xx_HAL_Driver/Src/stm32f4xx_ll_fmc.c **** /* BCR register clear mask */
  83:Drivers/STM32F4xx_HAL_Driver/Src/stm32f4xx_ll_fmc.c **** 
  84:Drivers/STM32F4xx_HAL_Driver/Src/stm32f4xx_ll_fmc.c **** /* --- BTR Register ---*/
  85:Drivers/STM32F4xx_HAL_Driver/Src/stm32f4xx_ll_fmc.c **** /* BTR register clear mask */
  86:Drivers/STM32F4xx_HAL_Driver/Src/stm32f4xx_ll_fmc.c **** #define BTR_CLEAR_MASK    ((uint32_t)(FMC_BTR1_ADDSET | FMC_BTR1_ADDHLD  |\
ARM GAS  C:\Users\stefa\AppData\Local\Temp\ccMreSci.s 			page 3


  87:Drivers/STM32F4xx_HAL_Driver/Src/stm32f4xx_ll_fmc.c ****                                       FMC_BTR1_DATAST | FMC_BTR1_BUSTURN |\
  88:Drivers/STM32F4xx_HAL_Driver/Src/stm32f4xx_ll_fmc.c ****                                       FMC_BTR1_CLKDIV | FMC_BTR1_DATLAT  |\
  89:Drivers/STM32F4xx_HAL_Driver/Src/stm32f4xx_ll_fmc.c ****                                       FMC_BTR1_ACCMOD))
  90:Drivers/STM32F4xx_HAL_Driver/Src/stm32f4xx_ll_fmc.c **** 
  91:Drivers/STM32F4xx_HAL_Driver/Src/stm32f4xx_ll_fmc.c **** /* --- BWTR Register ---*/
  92:Drivers/STM32F4xx_HAL_Driver/Src/stm32f4xx_ll_fmc.c **** /* BWTR register clear mask */
  93:Drivers/STM32F4xx_HAL_Driver/Src/stm32f4xx_ll_fmc.c **** #define BWTR_CLEAR_MASK   ((uint32_t)(FMC_BWTR1_ADDSET | FMC_BWTR1_ADDHLD  |\
  94:Drivers/STM32F4xx_HAL_Driver/Src/stm32f4xx_ll_fmc.c ****                                       FMC_BWTR1_DATAST | FMC_BWTR1_BUSTURN |\
  95:Drivers/STM32F4xx_HAL_Driver/Src/stm32f4xx_ll_fmc.c ****                                       FMC_BWTR1_ACCMOD))
  96:Drivers/STM32F4xx_HAL_Driver/Src/stm32f4xx_ll_fmc.c **** #endif /* FMC_Bank1 */
  97:Drivers/STM32F4xx_HAL_Driver/Src/stm32f4xx_ll_fmc.c **** #if defined(FMC_Bank3) || defined(FMC_Bank2_3)
  98:Drivers/STM32F4xx_HAL_Driver/Src/stm32f4xx_ll_fmc.c **** 
  99:Drivers/STM32F4xx_HAL_Driver/Src/stm32f4xx_ll_fmc.c **** #if defined (FMC_PCR_PWAITEN)
 100:Drivers/STM32F4xx_HAL_Driver/Src/stm32f4xx_ll_fmc.c **** /* --- PCR Register ---*/
 101:Drivers/STM32F4xx_HAL_Driver/Src/stm32f4xx_ll_fmc.c **** /* PCR register clear mask */
 102:Drivers/STM32F4xx_HAL_Driver/Src/stm32f4xx_ll_fmc.c **** #define PCR_CLEAR_MASK    ((uint32_t)(FMC_PCR_PWAITEN | FMC_PCR_PBKEN  | \
 103:Drivers/STM32F4xx_HAL_Driver/Src/stm32f4xx_ll_fmc.c ****                                       FMC_PCR_PTYP    | FMC_PCR_PWID   | \
 104:Drivers/STM32F4xx_HAL_Driver/Src/stm32f4xx_ll_fmc.c ****                                       FMC_PCR_ECCEN   | FMC_PCR_TCLR   | \
 105:Drivers/STM32F4xx_HAL_Driver/Src/stm32f4xx_ll_fmc.c ****                                       FMC_PCR_TAR     | FMC_PCR_ECCPS))
 106:Drivers/STM32F4xx_HAL_Driver/Src/stm32f4xx_ll_fmc.c **** /* --- PMEM Register ---*/
 107:Drivers/STM32F4xx_HAL_Driver/Src/stm32f4xx_ll_fmc.c **** /* PMEM register clear mask */
 108:Drivers/STM32F4xx_HAL_Driver/Src/stm32f4xx_ll_fmc.c **** #define PMEM_CLEAR_MASK   ((uint32_t)(FMC_PMEM_MEMSET2  | FMC_PMEM_MEMWAIT2 |\
 109:Drivers/STM32F4xx_HAL_Driver/Src/stm32f4xx_ll_fmc.c ****                                       FMC_PMEM_MEMHOLD2 | FMC_PMEM_MEMHIZ2))
 110:Drivers/STM32F4xx_HAL_Driver/Src/stm32f4xx_ll_fmc.c **** 
 111:Drivers/STM32F4xx_HAL_Driver/Src/stm32f4xx_ll_fmc.c **** /* --- PATT Register ---*/
 112:Drivers/STM32F4xx_HAL_Driver/Src/stm32f4xx_ll_fmc.c **** /* PATT register clear mask */
 113:Drivers/STM32F4xx_HAL_Driver/Src/stm32f4xx_ll_fmc.c **** #define PATT_CLEAR_MASK   ((uint32_t)(FMC_PATT_ATTSET2  | FMC_PATT_ATTWAIT2 |\
 114:Drivers/STM32F4xx_HAL_Driver/Src/stm32f4xx_ll_fmc.c ****                                       FMC_PATT_ATTHOLD2 | FMC_PATT_ATTHIZ2))
 115:Drivers/STM32F4xx_HAL_Driver/Src/stm32f4xx_ll_fmc.c **** #else
 116:Drivers/STM32F4xx_HAL_Driver/Src/stm32f4xx_ll_fmc.c **** /* --- PCR Register ---*/
 117:Drivers/STM32F4xx_HAL_Driver/Src/stm32f4xx_ll_fmc.c **** /* PCR register clear mask */
 118:Drivers/STM32F4xx_HAL_Driver/Src/stm32f4xx_ll_fmc.c **** #define PCR_CLEAR_MASK    ((uint32_t)(FMC_PCR2_PWAITEN | FMC_PCR2_PBKEN  | \
 119:Drivers/STM32F4xx_HAL_Driver/Src/stm32f4xx_ll_fmc.c ****                                       FMC_PCR2_PTYP    | FMC_PCR2_PWID   | \
 120:Drivers/STM32F4xx_HAL_Driver/Src/stm32f4xx_ll_fmc.c ****                                       FMC_PCR2_ECCEN   | FMC_PCR2_TCLR   | \
 121:Drivers/STM32F4xx_HAL_Driver/Src/stm32f4xx_ll_fmc.c ****                                       FMC_PCR2_TAR     | FMC_PCR2_ECCPS))
 122:Drivers/STM32F4xx_HAL_Driver/Src/stm32f4xx_ll_fmc.c **** /* --- PMEM Register ---*/
 123:Drivers/STM32F4xx_HAL_Driver/Src/stm32f4xx_ll_fmc.c **** /* PMEM register clear mask */
 124:Drivers/STM32F4xx_HAL_Driver/Src/stm32f4xx_ll_fmc.c **** #define PMEM_CLEAR_MASK   ((uint32_t)(FMC_PMEM2_MEMSET2  | FMC_PMEM2_MEMWAIT2 |\
 125:Drivers/STM32F4xx_HAL_Driver/Src/stm32f4xx_ll_fmc.c ****                                       FMC_PMEM2_MEMHOLD2 | FMC_PMEM2_MEMHIZ2))
 126:Drivers/STM32F4xx_HAL_Driver/Src/stm32f4xx_ll_fmc.c **** 
 127:Drivers/STM32F4xx_HAL_Driver/Src/stm32f4xx_ll_fmc.c **** /* --- PATT Register ---*/
 128:Drivers/STM32F4xx_HAL_Driver/Src/stm32f4xx_ll_fmc.c **** /* PATT register clear mask */
 129:Drivers/STM32F4xx_HAL_Driver/Src/stm32f4xx_ll_fmc.c **** #define PATT_CLEAR_MASK   ((uint32_t)(FMC_PATT2_ATTSET2  | FMC_PATT2_ATTWAIT2 |\
 130:Drivers/STM32F4xx_HAL_Driver/Src/stm32f4xx_ll_fmc.c ****                                       FMC_PATT2_ATTHOLD2 | FMC_PATT2_ATTHIZ2))
 131:Drivers/STM32F4xx_HAL_Driver/Src/stm32f4xx_ll_fmc.c **** 
 132:Drivers/STM32F4xx_HAL_Driver/Src/stm32f4xx_ll_fmc.c **** #endif /* FMC_PCR_PWAITEN */
 133:Drivers/STM32F4xx_HAL_Driver/Src/stm32f4xx_ll_fmc.c **** #endif /* FMC_Bank3) || defined(FMC_Bank2_3 */
 134:Drivers/STM32F4xx_HAL_Driver/Src/stm32f4xx_ll_fmc.c **** #if defined(FMC_Bank4)
 135:Drivers/STM32F4xx_HAL_Driver/Src/stm32f4xx_ll_fmc.c **** /* --- PCR Register ---*/
 136:Drivers/STM32F4xx_HAL_Driver/Src/stm32f4xx_ll_fmc.c **** /* PCR register clear mask */
 137:Drivers/STM32F4xx_HAL_Driver/Src/stm32f4xx_ll_fmc.c **** #define PCR4_CLEAR_MASK   ((uint32_t)(FMC_PCR4_PWAITEN | FMC_PCR4_PBKEN  | \
 138:Drivers/STM32F4xx_HAL_Driver/Src/stm32f4xx_ll_fmc.c ****                                       FMC_PCR4_PTYP    | FMC_PCR4_PWID   | \
 139:Drivers/STM32F4xx_HAL_Driver/Src/stm32f4xx_ll_fmc.c ****                                       FMC_PCR4_ECCEN   | FMC_PCR4_TCLR   | \
 140:Drivers/STM32F4xx_HAL_Driver/Src/stm32f4xx_ll_fmc.c ****                                       FMC_PCR4_TAR     | FMC_PCR4_ECCPS))
 141:Drivers/STM32F4xx_HAL_Driver/Src/stm32f4xx_ll_fmc.c **** /* --- PMEM Register ---*/
 142:Drivers/STM32F4xx_HAL_Driver/Src/stm32f4xx_ll_fmc.c **** /* PMEM register clear mask */
 143:Drivers/STM32F4xx_HAL_Driver/Src/stm32f4xx_ll_fmc.c **** #define PMEM4_CLEAR_MASK  ((uint32_t)(FMC_PMEM4_MEMSET4  | FMC_PMEM4_MEMWAIT4 |\
ARM GAS  C:\Users\stefa\AppData\Local\Temp\ccMreSci.s 			page 4


 144:Drivers/STM32F4xx_HAL_Driver/Src/stm32f4xx_ll_fmc.c ****                                       FMC_PMEM4_MEMHOLD4 | FMC_PMEM4_MEMHIZ4))
 145:Drivers/STM32F4xx_HAL_Driver/Src/stm32f4xx_ll_fmc.c **** 
 146:Drivers/STM32F4xx_HAL_Driver/Src/stm32f4xx_ll_fmc.c **** /* --- PATT Register ---*/
 147:Drivers/STM32F4xx_HAL_Driver/Src/stm32f4xx_ll_fmc.c **** /* PATT register clear mask */
 148:Drivers/STM32F4xx_HAL_Driver/Src/stm32f4xx_ll_fmc.c **** #define PATT4_CLEAR_MASK  ((uint32_t)(FMC_PATT4_ATTSET4  | FMC_PATT4_ATTWAIT4 |\
 149:Drivers/STM32F4xx_HAL_Driver/Src/stm32f4xx_ll_fmc.c ****                                       FMC_PATT4_ATTHOLD4 | FMC_PATT4_ATTHIZ4))
 150:Drivers/STM32F4xx_HAL_Driver/Src/stm32f4xx_ll_fmc.c **** 
 151:Drivers/STM32F4xx_HAL_Driver/Src/stm32f4xx_ll_fmc.c **** /* --- PIO4 Register ---*/
 152:Drivers/STM32F4xx_HAL_Driver/Src/stm32f4xx_ll_fmc.c **** /* PIO4 register clear mask */
 153:Drivers/STM32F4xx_HAL_Driver/Src/stm32f4xx_ll_fmc.c **** #define PIO4_CLEAR_MASK   ((uint32_t)(FMC_PIO4_IOSET4  | FMC_PIO4_IOWAIT4 | \
 154:Drivers/STM32F4xx_HAL_Driver/Src/stm32f4xx_ll_fmc.c ****                                       FMC_PIO4_IOHOLD4 | FMC_PIO4_IOHIZ4))
 155:Drivers/STM32F4xx_HAL_Driver/Src/stm32f4xx_ll_fmc.c **** 
 156:Drivers/STM32F4xx_HAL_Driver/Src/stm32f4xx_ll_fmc.c **** #endif /* FMC_Bank4 */
 157:Drivers/STM32F4xx_HAL_Driver/Src/stm32f4xx_ll_fmc.c **** #if defined(FMC_Bank5_6)
 158:Drivers/STM32F4xx_HAL_Driver/Src/stm32f4xx_ll_fmc.c **** 
 159:Drivers/STM32F4xx_HAL_Driver/Src/stm32f4xx_ll_fmc.c **** /* --- SDCR Register ---*/
 160:Drivers/STM32F4xx_HAL_Driver/Src/stm32f4xx_ll_fmc.c **** /* SDCR register clear mask */
 161:Drivers/STM32F4xx_HAL_Driver/Src/stm32f4xx_ll_fmc.c **** #define SDCR_CLEAR_MASK   ((uint32_t)(FMC_SDCR1_NC    | FMC_SDCR1_NR     | \
 162:Drivers/STM32F4xx_HAL_Driver/Src/stm32f4xx_ll_fmc.c ****                                       FMC_SDCR1_MWID  | FMC_SDCR1_NB     | \
 163:Drivers/STM32F4xx_HAL_Driver/Src/stm32f4xx_ll_fmc.c ****                                       FMC_SDCR1_CAS   | FMC_SDCR1_WP     | \
 164:Drivers/STM32F4xx_HAL_Driver/Src/stm32f4xx_ll_fmc.c ****                                       FMC_SDCR1_SDCLK | FMC_SDCR1_RBURST | \
 165:Drivers/STM32F4xx_HAL_Driver/Src/stm32f4xx_ll_fmc.c ****                                       FMC_SDCR1_RPIPE))
 166:Drivers/STM32F4xx_HAL_Driver/Src/stm32f4xx_ll_fmc.c **** 
 167:Drivers/STM32F4xx_HAL_Driver/Src/stm32f4xx_ll_fmc.c **** /* --- SDTR Register ---*/
 168:Drivers/STM32F4xx_HAL_Driver/Src/stm32f4xx_ll_fmc.c **** /* SDTR register clear mask */
 169:Drivers/STM32F4xx_HAL_Driver/Src/stm32f4xx_ll_fmc.c **** #define SDTR_CLEAR_MASK   ((uint32_t)(FMC_SDTR1_TMRD  | FMC_SDTR1_TXSR   | \
 170:Drivers/STM32F4xx_HAL_Driver/Src/stm32f4xx_ll_fmc.c ****                                       FMC_SDTR1_TRAS  | FMC_SDTR1_TRC    | \
 171:Drivers/STM32F4xx_HAL_Driver/Src/stm32f4xx_ll_fmc.c ****                                       FMC_SDTR1_TWR   | FMC_SDTR1_TRP    | \
 172:Drivers/STM32F4xx_HAL_Driver/Src/stm32f4xx_ll_fmc.c ****                                       FMC_SDTR1_TRCD))
 173:Drivers/STM32F4xx_HAL_Driver/Src/stm32f4xx_ll_fmc.c **** #endif /* FMC_Bank5_6 */
 174:Drivers/STM32F4xx_HAL_Driver/Src/stm32f4xx_ll_fmc.c **** 
 175:Drivers/STM32F4xx_HAL_Driver/Src/stm32f4xx_ll_fmc.c **** /**
 176:Drivers/STM32F4xx_HAL_Driver/Src/stm32f4xx_ll_fmc.c ****   * @}
 177:Drivers/STM32F4xx_HAL_Driver/Src/stm32f4xx_ll_fmc.c ****   */
 178:Drivers/STM32F4xx_HAL_Driver/Src/stm32f4xx_ll_fmc.c **** 
 179:Drivers/STM32F4xx_HAL_Driver/Src/stm32f4xx_ll_fmc.c **** /* Private macro -------------------------------------------------------------*/
 180:Drivers/STM32F4xx_HAL_Driver/Src/stm32f4xx_ll_fmc.c **** /* Private variables ---------------------------------------------------------*/
 181:Drivers/STM32F4xx_HAL_Driver/Src/stm32f4xx_ll_fmc.c **** /* Private function prototypes -----------------------------------------------*/
 182:Drivers/STM32F4xx_HAL_Driver/Src/stm32f4xx_ll_fmc.c **** /* Exported functions --------------------------------------------------------*/
 183:Drivers/STM32F4xx_HAL_Driver/Src/stm32f4xx_ll_fmc.c **** 
 184:Drivers/STM32F4xx_HAL_Driver/Src/stm32f4xx_ll_fmc.c **** /** @defgroup FMC_LL_Exported_Functions FMC Low Layer Exported Functions
 185:Drivers/STM32F4xx_HAL_Driver/Src/stm32f4xx_ll_fmc.c ****   * @{
 186:Drivers/STM32F4xx_HAL_Driver/Src/stm32f4xx_ll_fmc.c ****   */
 187:Drivers/STM32F4xx_HAL_Driver/Src/stm32f4xx_ll_fmc.c **** 
 188:Drivers/STM32F4xx_HAL_Driver/Src/stm32f4xx_ll_fmc.c **** #if defined(FMC_Bank1)
 189:Drivers/STM32F4xx_HAL_Driver/Src/stm32f4xx_ll_fmc.c **** 
 190:Drivers/STM32F4xx_HAL_Driver/Src/stm32f4xx_ll_fmc.c **** /** @defgroup FMC_LL_Exported_Functions_NORSRAM FMC Low Layer NOR SRAM Exported Functions
 191:Drivers/STM32F4xx_HAL_Driver/Src/stm32f4xx_ll_fmc.c ****   * @brief  NORSRAM Controller functions
 192:Drivers/STM32F4xx_HAL_Driver/Src/stm32f4xx_ll_fmc.c ****   *
 193:Drivers/STM32F4xx_HAL_Driver/Src/stm32f4xx_ll_fmc.c ****   @verbatim
 194:Drivers/STM32F4xx_HAL_Driver/Src/stm32f4xx_ll_fmc.c ****   ==============================================================================
 195:Drivers/STM32F4xx_HAL_Driver/Src/stm32f4xx_ll_fmc.c ****                    ##### How to use NORSRAM device driver #####
 196:Drivers/STM32F4xx_HAL_Driver/Src/stm32f4xx_ll_fmc.c ****   ==============================================================================
 197:Drivers/STM32F4xx_HAL_Driver/Src/stm32f4xx_ll_fmc.c **** 
 198:Drivers/STM32F4xx_HAL_Driver/Src/stm32f4xx_ll_fmc.c ****   [..]
 199:Drivers/STM32F4xx_HAL_Driver/Src/stm32f4xx_ll_fmc.c ****     This driver contains a set of APIs to interface with the FMC NORSRAM banks in order
 200:Drivers/STM32F4xx_HAL_Driver/Src/stm32f4xx_ll_fmc.c ****     to run the NORSRAM external devices.
ARM GAS  C:\Users\stefa\AppData\Local\Temp\ccMreSci.s 			page 5


 201:Drivers/STM32F4xx_HAL_Driver/Src/stm32f4xx_ll_fmc.c **** 
 202:Drivers/STM32F4xx_HAL_Driver/Src/stm32f4xx_ll_fmc.c ****     (+) FMC NORSRAM bank reset using the function FMC_NORSRAM_DeInit()
 203:Drivers/STM32F4xx_HAL_Driver/Src/stm32f4xx_ll_fmc.c ****     (+) FMC NORSRAM bank control configuration using the function FMC_NORSRAM_Init()
 204:Drivers/STM32F4xx_HAL_Driver/Src/stm32f4xx_ll_fmc.c ****     (+) FMC NORSRAM bank timing configuration using the function FMC_NORSRAM_Timing_Init()
 205:Drivers/STM32F4xx_HAL_Driver/Src/stm32f4xx_ll_fmc.c ****     (+) FMC NORSRAM bank extended timing configuration using the function
 206:Drivers/STM32F4xx_HAL_Driver/Src/stm32f4xx_ll_fmc.c ****         FMC_NORSRAM_Extended_Timing_Init()
 207:Drivers/STM32F4xx_HAL_Driver/Src/stm32f4xx_ll_fmc.c ****     (+) FMC NORSRAM bank enable/disable write operation using the functions
 208:Drivers/STM32F4xx_HAL_Driver/Src/stm32f4xx_ll_fmc.c ****         FMC_NORSRAM_WriteOperation_Enable()/FMC_NORSRAM_WriteOperation_Disable()
 209:Drivers/STM32F4xx_HAL_Driver/Src/stm32f4xx_ll_fmc.c **** 
 210:Drivers/STM32F4xx_HAL_Driver/Src/stm32f4xx_ll_fmc.c **** @endverbatim
 211:Drivers/STM32F4xx_HAL_Driver/Src/stm32f4xx_ll_fmc.c ****   * @{
 212:Drivers/STM32F4xx_HAL_Driver/Src/stm32f4xx_ll_fmc.c ****   */
 213:Drivers/STM32F4xx_HAL_Driver/Src/stm32f4xx_ll_fmc.c **** 
 214:Drivers/STM32F4xx_HAL_Driver/Src/stm32f4xx_ll_fmc.c **** /** @defgroup FMC_LL_NORSRAM_Exported_Functions_Group1 Initialization and de-initialization functio
 215:Drivers/STM32F4xx_HAL_Driver/Src/stm32f4xx_ll_fmc.c ****   * @brief    Initialization and Configuration functions
 216:Drivers/STM32F4xx_HAL_Driver/Src/stm32f4xx_ll_fmc.c ****   *
 217:Drivers/STM32F4xx_HAL_Driver/Src/stm32f4xx_ll_fmc.c ****   @verbatim
 218:Drivers/STM32F4xx_HAL_Driver/Src/stm32f4xx_ll_fmc.c ****   ==============================================================================
 219:Drivers/STM32F4xx_HAL_Driver/Src/stm32f4xx_ll_fmc.c ****               ##### Initialization and de_initialization functions #####
 220:Drivers/STM32F4xx_HAL_Driver/Src/stm32f4xx_ll_fmc.c ****   ==============================================================================
 221:Drivers/STM32F4xx_HAL_Driver/Src/stm32f4xx_ll_fmc.c ****   [..]
 222:Drivers/STM32F4xx_HAL_Driver/Src/stm32f4xx_ll_fmc.c ****     This section provides functions allowing to:
 223:Drivers/STM32F4xx_HAL_Driver/Src/stm32f4xx_ll_fmc.c ****     (+) Initialize and configure the FMC NORSRAM interface
 224:Drivers/STM32F4xx_HAL_Driver/Src/stm32f4xx_ll_fmc.c ****     (+) De-initialize the FMC NORSRAM interface
 225:Drivers/STM32F4xx_HAL_Driver/Src/stm32f4xx_ll_fmc.c ****     (+) Configure the FMC clock and associated GPIOs
 226:Drivers/STM32F4xx_HAL_Driver/Src/stm32f4xx_ll_fmc.c **** 
 227:Drivers/STM32F4xx_HAL_Driver/Src/stm32f4xx_ll_fmc.c **** @endverbatim
 228:Drivers/STM32F4xx_HAL_Driver/Src/stm32f4xx_ll_fmc.c ****   * @{
 229:Drivers/STM32F4xx_HAL_Driver/Src/stm32f4xx_ll_fmc.c ****   */
 230:Drivers/STM32F4xx_HAL_Driver/Src/stm32f4xx_ll_fmc.c **** 
 231:Drivers/STM32F4xx_HAL_Driver/Src/stm32f4xx_ll_fmc.c **** /**
 232:Drivers/STM32F4xx_HAL_Driver/Src/stm32f4xx_ll_fmc.c ****   * @brief  Initialize the FMC_NORSRAM device according to the specified
 233:Drivers/STM32F4xx_HAL_Driver/Src/stm32f4xx_ll_fmc.c ****   *         control parameters in the FMC_NORSRAM_InitTypeDef
 234:Drivers/STM32F4xx_HAL_Driver/Src/stm32f4xx_ll_fmc.c ****   * @param  Device Pointer to NORSRAM device instance
 235:Drivers/STM32F4xx_HAL_Driver/Src/stm32f4xx_ll_fmc.c ****   * @param  Init Pointer to NORSRAM Initialization structure
 236:Drivers/STM32F4xx_HAL_Driver/Src/stm32f4xx_ll_fmc.c ****   * @retval HAL status
 237:Drivers/STM32F4xx_HAL_Driver/Src/stm32f4xx_ll_fmc.c ****   */
 238:Drivers/STM32F4xx_HAL_Driver/Src/stm32f4xx_ll_fmc.c **** HAL_StatusTypeDef  FMC_NORSRAM_Init(FMC_NORSRAM_TypeDef *Device,
 239:Drivers/STM32F4xx_HAL_Driver/Src/stm32f4xx_ll_fmc.c ****                                     FMC_NORSRAM_InitTypeDef *Init)
 240:Drivers/STM32F4xx_HAL_Driver/Src/stm32f4xx_ll_fmc.c **** {
  30              		.loc 1 240 1 view -0
  31              		.cfi_startproc
  32              		@ args = 0, pretend = 0, frame = 0
  33              		@ frame_needed = 0, uses_anonymous_args = 0
  34              		@ link register save eliminated.
  35              		.loc 1 240 1 is_stmt 0 view .LVU1
  36 0000 30B4     		push	{r4, r5}
  37              	.LCFI0:
  38              		.cfi_def_cfa_offset 8
  39              		.cfi_offset 4, -8
  40              		.cfi_offset 5, -4
 241:Drivers/STM32F4xx_HAL_Driver/Src/stm32f4xx_ll_fmc.c ****   uint32_t flashaccess;
  41              		.loc 1 241 3 is_stmt 1 view .LVU2
 242:Drivers/STM32F4xx_HAL_Driver/Src/stm32f4xx_ll_fmc.c ****   uint32_t btcr_reg;
  42              		.loc 1 242 3 view .LVU3
 243:Drivers/STM32F4xx_HAL_Driver/Src/stm32f4xx_ll_fmc.c ****   uint32_t mask;
  43              		.loc 1 243 3 view .LVU4
ARM GAS  C:\Users\stefa\AppData\Local\Temp\ccMreSci.s 			page 6


 244:Drivers/STM32F4xx_HAL_Driver/Src/stm32f4xx_ll_fmc.c **** 
 245:Drivers/STM32F4xx_HAL_Driver/Src/stm32f4xx_ll_fmc.c ****   /* Check the parameters */
 246:Drivers/STM32F4xx_HAL_Driver/Src/stm32f4xx_ll_fmc.c ****   assert_param(IS_FMC_NORSRAM_DEVICE(Device));
  44              		.loc 1 246 3 view .LVU5
 247:Drivers/STM32F4xx_HAL_Driver/Src/stm32f4xx_ll_fmc.c ****   assert_param(IS_FMC_NORSRAM_BANK(Init->NSBank));
  45              		.loc 1 247 3 view .LVU6
 248:Drivers/STM32F4xx_HAL_Driver/Src/stm32f4xx_ll_fmc.c ****   assert_param(IS_FMC_MUX(Init->DataAddressMux));
  46              		.loc 1 248 3 view .LVU7
 249:Drivers/STM32F4xx_HAL_Driver/Src/stm32f4xx_ll_fmc.c ****   assert_param(IS_FMC_MEMORY(Init->MemoryType));
  47              		.loc 1 249 3 view .LVU8
 250:Drivers/STM32F4xx_HAL_Driver/Src/stm32f4xx_ll_fmc.c ****   assert_param(IS_FMC_NORSRAM_MEMORY_WIDTH(Init->MemoryDataWidth));
  48              		.loc 1 250 3 view .LVU9
 251:Drivers/STM32F4xx_HAL_Driver/Src/stm32f4xx_ll_fmc.c ****   assert_param(IS_FMC_BURSTMODE(Init->BurstAccessMode));
  49              		.loc 1 251 3 view .LVU10
 252:Drivers/STM32F4xx_HAL_Driver/Src/stm32f4xx_ll_fmc.c ****   assert_param(IS_FMC_WAIT_POLARITY(Init->WaitSignalPolarity));
  50              		.loc 1 252 3 view .LVU11
 253:Drivers/STM32F4xx_HAL_Driver/Src/stm32f4xx_ll_fmc.c **** #if defined(FMC_BCR1_WRAPMOD)
 254:Drivers/STM32F4xx_HAL_Driver/Src/stm32f4xx_ll_fmc.c ****   assert_param(IS_FMC_WRAP_MODE(Init->WrapMode));
  51              		.loc 1 254 3 view .LVU12
 255:Drivers/STM32F4xx_HAL_Driver/Src/stm32f4xx_ll_fmc.c **** #endif /* FMC_BCR1_WRAPMOD */
 256:Drivers/STM32F4xx_HAL_Driver/Src/stm32f4xx_ll_fmc.c ****   assert_param(IS_FMC_WAIT_SIGNAL_ACTIVE(Init->WaitSignalActive));
  52              		.loc 1 256 3 view .LVU13
 257:Drivers/STM32F4xx_HAL_Driver/Src/stm32f4xx_ll_fmc.c ****   assert_param(IS_FMC_WRITE_OPERATION(Init->WriteOperation));
  53              		.loc 1 257 3 view .LVU14
 258:Drivers/STM32F4xx_HAL_Driver/Src/stm32f4xx_ll_fmc.c ****   assert_param(IS_FMC_WAITE_SIGNAL(Init->WaitSignal));
  54              		.loc 1 258 3 view .LVU15
 259:Drivers/STM32F4xx_HAL_Driver/Src/stm32f4xx_ll_fmc.c ****   assert_param(IS_FMC_EXTENDED_MODE(Init->ExtendedMode));
  55              		.loc 1 259 3 view .LVU16
 260:Drivers/STM32F4xx_HAL_Driver/Src/stm32f4xx_ll_fmc.c ****   assert_param(IS_FMC_ASYNWAIT(Init->AsynchronousWait));
  56              		.loc 1 260 3 view .LVU17
 261:Drivers/STM32F4xx_HAL_Driver/Src/stm32f4xx_ll_fmc.c ****   assert_param(IS_FMC_WRITE_BURST(Init->WriteBurst));
  57              		.loc 1 261 3 view .LVU18
 262:Drivers/STM32F4xx_HAL_Driver/Src/stm32f4xx_ll_fmc.c **** #if defined(FMC_BCR1_CCLKEN)
 263:Drivers/STM32F4xx_HAL_Driver/Src/stm32f4xx_ll_fmc.c ****   assert_param(IS_FMC_CONTINOUS_CLOCK(Init->ContinuousClock));
  58              		.loc 1 263 3 view .LVU19
 264:Drivers/STM32F4xx_HAL_Driver/Src/stm32f4xx_ll_fmc.c **** #endif
 265:Drivers/STM32F4xx_HAL_Driver/Src/stm32f4xx_ll_fmc.c **** #if defined(FMC_BCR1_WFDIS)
 266:Drivers/STM32F4xx_HAL_Driver/Src/stm32f4xx_ll_fmc.c ****   assert_param(IS_FMC_WRITE_FIFO(Init->WriteFifo));
 267:Drivers/STM32F4xx_HAL_Driver/Src/stm32f4xx_ll_fmc.c **** #endif /* FMC_BCR1_WFDIS */
 268:Drivers/STM32F4xx_HAL_Driver/Src/stm32f4xx_ll_fmc.c ****   assert_param(IS_FMC_PAGESIZE(Init->PageSize));
  59              		.loc 1 268 3 view .LVU20
 269:Drivers/STM32F4xx_HAL_Driver/Src/stm32f4xx_ll_fmc.c **** 
 270:Drivers/STM32F4xx_HAL_Driver/Src/stm32f4xx_ll_fmc.c ****   /* Disable NORSRAM Device */
 271:Drivers/STM32F4xx_HAL_Driver/Src/stm32f4xx_ll_fmc.c ****   __FMC_NORSRAM_DISABLE(Device, Init->NSBank);
  60              		.loc 1 271 3 view .LVU21
  61 0002 0A68     		ldr	r2, [r1]
  62 0004 50F82230 		ldr	r3, [r0, r2, lsl #2]
  63 0008 23F00103 		bic	r3, r3, #1
  64 000c 40F82230 		str	r3, [r0, r2, lsl #2]
 272:Drivers/STM32F4xx_HAL_Driver/Src/stm32f4xx_ll_fmc.c **** 
 273:Drivers/STM32F4xx_HAL_Driver/Src/stm32f4xx_ll_fmc.c ****   /* Set NORSRAM device control parameters */
 274:Drivers/STM32F4xx_HAL_Driver/Src/stm32f4xx_ll_fmc.c ****   if (Init->MemoryType == FMC_MEMORY_TYPE_NOR)
  65              		.loc 1 274 3 view .LVU22
  66              		.loc 1 274 11 is_stmt 0 view .LVU23
  67 0010 8B68     		ldr	r3, [r1, #8]
  68              		.loc 1 274 6 view .LVU24
  69 0012 082B     		cmp	r3, #8
ARM GAS  C:\Users\stefa\AppData\Local\Temp\ccMreSci.s 			page 7


  70 0014 2AD0     		beq	.L6
 275:Drivers/STM32F4xx_HAL_Driver/Src/stm32f4xx_ll_fmc.c ****   {
 276:Drivers/STM32F4xx_HAL_Driver/Src/stm32f4xx_ll_fmc.c ****     flashaccess = FMC_NORSRAM_FLASH_ACCESS_ENABLE;
 277:Drivers/STM32F4xx_HAL_Driver/Src/stm32f4xx_ll_fmc.c ****   }
 278:Drivers/STM32F4xx_HAL_Driver/Src/stm32f4xx_ll_fmc.c ****   else
 279:Drivers/STM32F4xx_HAL_Driver/Src/stm32f4xx_ll_fmc.c ****   {
 280:Drivers/STM32F4xx_HAL_Driver/Src/stm32f4xx_ll_fmc.c ****     flashaccess = FMC_NORSRAM_FLASH_ACCESS_DISABLE;
  71              		.loc 1 280 17 view .LVU25
  72 0016 0024     		movs	r4, #0
  73              	.L2:
  74              	.LVL1:
 281:Drivers/STM32F4xx_HAL_Driver/Src/stm32f4xx_ll_fmc.c ****   }
 282:Drivers/STM32F4xx_HAL_Driver/Src/stm32f4xx_ll_fmc.c **** 
 283:Drivers/STM32F4xx_HAL_Driver/Src/stm32f4xx_ll_fmc.c ****   btcr_reg = (flashaccess                   | \
  75              		.loc 1 283 3 is_stmt 1 view .LVU26
 284:Drivers/STM32F4xx_HAL_Driver/Src/stm32f4xx_ll_fmc.c ****               Init->DataAddressMux          | \
  76              		.loc 1 284 19 is_stmt 0 view .LVU27
  77 0018 4A68     		ldr	r2, [r1, #4]
 283:Drivers/STM32F4xx_HAL_Driver/Src/stm32f4xx_ll_fmc.c ****               Init->DataAddressMux          | \
  78              		.loc 1 283 45 view .LVU28
  79 001a 2243     		orrs	r2, r2, r4
  80              		.loc 1 284 45 view .LVU29
  81 001c 1343     		orrs	r3, r3, r2
 285:Drivers/STM32F4xx_HAL_Driver/Src/stm32f4xx_ll_fmc.c ****               Init->MemoryType              | \
 286:Drivers/STM32F4xx_HAL_Driver/Src/stm32f4xx_ll_fmc.c ****               Init->MemoryDataWidth         | \
  82              		.loc 1 286 19 view .LVU30
  83 001e CA68     		ldr	r2, [r1, #12]
 285:Drivers/STM32F4xx_HAL_Driver/Src/stm32f4xx_ll_fmc.c ****               Init->MemoryType              | \
  84              		.loc 1 285 45 view .LVU31
  85 0020 1343     		orrs	r3, r3, r2
 287:Drivers/STM32F4xx_HAL_Driver/Src/stm32f4xx_ll_fmc.c ****               Init->BurstAccessMode         | \
  86              		.loc 1 287 19 view .LVU32
  87 0022 0A69     		ldr	r2, [r1, #16]
 286:Drivers/STM32F4xx_HAL_Driver/Src/stm32f4xx_ll_fmc.c ****               Init->BurstAccessMode         | \
  88              		.loc 1 286 45 view .LVU33
  89 0024 1343     		orrs	r3, r3, r2
 288:Drivers/STM32F4xx_HAL_Driver/Src/stm32f4xx_ll_fmc.c ****               Init->WaitSignalPolarity      | \
  90              		.loc 1 288 19 view .LVU34
  91 0026 4A69     		ldr	r2, [r1, #20]
 287:Drivers/STM32F4xx_HAL_Driver/Src/stm32f4xx_ll_fmc.c ****               Init->BurstAccessMode         | \
  92              		.loc 1 287 45 view .LVU35
  93 0028 1343     		orrs	r3, r3, r2
 289:Drivers/STM32F4xx_HAL_Driver/Src/stm32f4xx_ll_fmc.c ****               Init->WaitSignalActive        | \
  94              		.loc 1 289 19 view .LVU36
  95 002a CA69     		ldr	r2, [r1, #28]
 288:Drivers/STM32F4xx_HAL_Driver/Src/stm32f4xx_ll_fmc.c ****               Init->WaitSignalPolarity      | \
  96              		.loc 1 288 45 view .LVU37
  97 002c 1343     		orrs	r3, r3, r2
 290:Drivers/STM32F4xx_HAL_Driver/Src/stm32f4xx_ll_fmc.c ****               Init->WriteOperation          | \
  98              		.loc 1 290 19 view .LVU38
  99 002e 0A6A     		ldr	r2, [r1, #32]
 289:Drivers/STM32F4xx_HAL_Driver/Src/stm32f4xx_ll_fmc.c ****               Init->WaitSignalActive        | \
 100              		.loc 1 289 45 view .LVU39
 101 0030 1343     		orrs	r3, r3, r2
 291:Drivers/STM32F4xx_HAL_Driver/Src/stm32f4xx_ll_fmc.c ****               Init->WaitSignal              | \
 102              		.loc 1 291 19 view .LVU40
 103 0032 4A6A     		ldr	r2, [r1, #36]
ARM GAS  C:\Users\stefa\AppData\Local\Temp\ccMreSci.s 			page 8


 290:Drivers/STM32F4xx_HAL_Driver/Src/stm32f4xx_ll_fmc.c ****               Init->WriteOperation          | \
 104              		.loc 1 290 45 view .LVU41
 105 0034 1343     		orrs	r3, r3, r2
 292:Drivers/STM32F4xx_HAL_Driver/Src/stm32f4xx_ll_fmc.c ****               Init->ExtendedMode            | \
 106              		.loc 1 292 19 view .LVU42
 107 0036 8A6A     		ldr	r2, [r1, #40]
 291:Drivers/STM32F4xx_HAL_Driver/Src/stm32f4xx_ll_fmc.c ****               Init->WaitSignal              | \
 108              		.loc 1 291 45 view .LVU43
 109 0038 1343     		orrs	r3, r3, r2
 293:Drivers/STM32F4xx_HAL_Driver/Src/stm32f4xx_ll_fmc.c ****               Init->AsynchronousWait        | \
 110              		.loc 1 293 19 view .LVU44
 111 003a CA6A     		ldr	r2, [r1, #44]
 292:Drivers/STM32F4xx_HAL_Driver/Src/stm32f4xx_ll_fmc.c ****               Init->ExtendedMode            | \
 112              		.loc 1 292 45 view .LVU45
 113 003c 1343     		orrs	r3, r3, r2
 294:Drivers/STM32F4xx_HAL_Driver/Src/stm32f4xx_ll_fmc.c ****               Init->WriteBurst);
 114              		.loc 1 294 19 view .LVU46
 115 003e 0A6B     		ldr	r2, [r1, #48]
 283:Drivers/STM32F4xx_HAL_Driver/Src/stm32f4xx_ll_fmc.c ****               Init->DataAddressMux          | \
 116              		.loc 1 283 12 view .LVU47
 117 0040 1343     		orrs	r3, r3, r2
 118              	.LVL2:
 295:Drivers/STM32F4xx_HAL_Driver/Src/stm32f4xx_ll_fmc.c **** 
 296:Drivers/STM32F4xx_HAL_Driver/Src/stm32f4xx_ll_fmc.c **** #if defined(FMC_BCR1_WRAPMOD)
 297:Drivers/STM32F4xx_HAL_Driver/Src/stm32f4xx_ll_fmc.c ****   btcr_reg |= Init->WrapMode;
 119              		.loc 1 297 3 is_stmt 1 view .LVU48
 120              		.loc 1 297 19 is_stmt 0 view .LVU49
 121 0042 8A69     		ldr	r2, [r1, #24]
 122              		.loc 1 297 12 view .LVU50
 123 0044 1343     		orrs	r3, r3, r2
 124              	.LVL3:
 298:Drivers/STM32F4xx_HAL_Driver/Src/stm32f4xx_ll_fmc.c **** #endif /* FMC_BCR1_WRAPMOD */
 299:Drivers/STM32F4xx_HAL_Driver/Src/stm32f4xx_ll_fmc.c **** #if defined(FMC_BCR1_CCLKEN)
 300:Drivers/STM32F4xx_HAL_Driver/Src/stm32f4xx_ll_fmc.c ****   btcr_reg |= Init->ContinuousClock;
 125              		.loc 1 300 3 is_stmt 1 view .LVU51
 126              		.loc 1 300 19 is_stmt 0 view .LVU52
 127 0046 4A6B     		ldr	r2, [r1, #52]
 128              		.loc 1 300 12 view .LVU53
 129 0048 1343     		orrs	r3, r3, r2
 130              	.LVL4:
 301:Drivers/STM32F4xx_HAL_Driver/Src/stm32f4xx_ll_fmc.c **** #endif /* FMC_BCR1_CCLKEN */
 302:Drivers/STM32F4xx_HAL_Driver/Src/stm32f4xx_ll_fmc.c **** #if defined(FMC_BCR1_WFDIS)
 303:Drivers/STM32F4xx_HAL_Driver/Src/stm32f4xx_ll_fmc.c ****   btcr_reg |= Init->WriteFifo;
 304:Drivers/STM32F4xx_HAL_Driver/Src/stm32f4xx_ll_fmc.c **** #endif /* FMC_BCR1_WFDIS */
 305:Drivers/STM32F4xx_HAL_Driver/Src/stm32f4xx_ll_fmc.c ****   btcr_reg |= Init->PageSize;
 131              		.loc 1 305 3 is_stmt 1 view .LVU54
 132              		.loc 1 305 19 is_stmt 0 view .LVU55
 133 004a CA6B     		ldr	r2, [r1, #60]
 134              		.loc 1 305 12 view .LVU56
 135 004c 1343     		orrs	r3, r3, r2
 136              	.LVL5:
 306:Drivers/STM32F4xx_HAL_Driver/Src/stm32f4xx_ll_fmc.c **** 
 307:Drivers/STM32F4xx_HAL_Driver/Src/stm32f4xx_ll_fmc.c ****   mask = (FMC_BCR1_MBKEN                |
 137              		.loc 1 307 3 is_stmt 1 view .LVU57
 308:Drivers/STM32F4xx_HAL_Driver/Src/stm32f4xx_ll_fmc.c ****           FMC_BCR1_MUXEN                |
 309:Drivers/STM32F4xx_HAL_Driver/Src/stm32f4xx_ll_fmc.c ****           FMC_BCR1_MTYP                 |
 310:Drivers/STM32F4xx_HAL_Driver/Src/stm32f4xx_ll_fmc.c ****           FMC_BCR1_MWID                 |
ARM GAS  C:\Users\stefa\AppData\Local\Temp\ccMreSci.s 			page 9


 311:Drivers/STM32F4xx_HAL_Driver/Src/stm32f4xx_ll_fmc.c ****           FMC_BCR1_FACCEN               |
 312:Drivers/STM32F4xx_HAL_Driver/Src/stm32f4xx_ll_fmc.c ****           FMC_BCR1_BURSTEN              |
 313:Drivers/STM32F4xx_HAL_Driver/Src/stm32f4xx_ll_fmc.c ****           FMC_BCR1_WAITPOL              |
 314:Drivers/STM32F4xx_HAL_Driver/Src/stm32f4xx_ll_fmc.c ****           FMC_BCR1_WAITCFG              |
 315:Drivers/STM32F4xx_HAL_Driver/Src/stm32f4xx_ll_fmc.c ****           FMC_BCR1_WREN                 |
 316:Drivers/STM32F4xx_HAL_Driver/Src/stm32f4xx_ll_fmc.c ****           FMC_BCR1_WAITEN               |
 317:Drivers/STM32F4xx_HAL_Driver/Src/stm32f4xx_ll_fmc.c ****           FMC_BCR1_EXTMOD               |
 318:Drivers/STM32F4xx_HAL_Driver/Src/stm32f4xx_ll_fmc.c ****           FMC_BCR1_ASYNCWAIT            |
 319:Drivers/STM32F4xx_HAL_Driver/Src/stm32f4xx_ll_fmc.c ****           FMC_BCR1_CBURSTRW);
 320:Drivers/STM32F4xx_HAL_Driver/Src/stm32f4xx_ll_fmc.c **** 
 321:Drivers/STM32F4xx_HAL_Driver/Src/stm32f4xx_ll_fmc.c **** #if defined(FMC_BCR1_WRAPMOD)
 322:Drivers/STM32F4xx_HAL_Driver/Src/stm32f4xx_ll_fmc.c ****   mask |= FMC_BCR1_WRAPMOD;
 138              		.loc 1 322 3 view .LVU58
 323:Drivers/STM32F4xx_HAL_Driver/Src/stm32f4xx_ll_fmc.c **** #endif /* FMC_BCR1_WRAPMOD */
 324:Drivers/STM32F4xx_HAL_Driver/Src/stm32f4xx_ll_fmc.c **** #if defined(FMC_BCR1_CCLKEN)
 325:Drivers/STM32F4xx_HAL_Driver/Src/stm32f4xx_ll_fmc.c ****   mask |= FMC_BCR1_CCLKEN;
 139              		.loc 1 325 3 view .LVU59
 326:Drivers/STM32F4xx_HAL_Driver/Src/stm32f4xx_ll_fmc.c **** #endif
 327:Drivers/STM32F4xx_HAL_Driver/Src/stm32f4xx_ll_fmc.c **** #if defined(FMC_BCR1_WFDIS)
 328:Drivers/STM32F4xx_HAL_Driver/Src/stm32f4xx_ll_fmc.c ****   mask |= FMC_BCR1_WFDIS;
 329:Drivers/STM32F4xx_HAL_Driver/Src/stm32f4xx_ll_fmc.c **** #endif /* FMC_BCR1_WFDIS */
 330:Drivers/STM32F4xx_HAL_Driver/Src/stm32f4xx_ll_fmc.c ****   mask |= FMC_BCR1_CPSIZE;
 140              		.loc 1 330 3 view .LVU60
 331:Drivers/STM32F4xx_HAL_Driver/Src/stm32f4xx_ll_fmc.c **** 
 332:Drivers/STM32F4xx_HAL_Driver/Src/stm32f4xx_ll_fmc.c ****   MODIFY_REG(Device->BTCR[Init->NSBank], mask, btcr_reg);
 141              		.loc 1 332 3 view .LVU61
 142 004e 0C68     		ldr	r4, [r1]
 143              	.LVL6:
 144              		.loc 1 332 3 is_stmt 0 view .LVU62
 145 0050 50F82450 		ldr	r5, [r0, r4, lsl #2]
 146 0054 0B4A     		ldr	r2, .L8
 147 0056 2A40     		ands	r2, r2, r5
 148 0058 1A43     		orrs	r2, r2, r3
 149 005a 40F82420 		str	r2, [r0, r4, lsl #2]
 333:Drivers/STM32F4xx_HAL_Driver/Src/stm32f4xx_ll_fmc.c **** 
 334:Drivers/STM32F4xx_HAL_Driver/Src/stm32f4xx_ll_fmc.c **** #if defined(FMC_BCR1_CCLKEN)
 335:Drivers/STM32F4xx_HAL_Driver/Src/stm32f4xx_ll_fmc.c ****   /* Configure synchronous mode when Continuous clock is enabled for bank2..4 */
 336:Drivers/STM32F4xx_HAL_Driver/Src/stm32f4xx_ll_fmc.c ****   if ((Init->ContinuousClock == FMC_CONTINUOUS_CLOCK_SYNC_ASYNC) && (Init->NSBank != FMC_NORSRAM_BA
 150              		.loc 1 336 3 is_stmt 1 view .LVU63
 151              		.loc 1 336 12 is_stmt 0 view .LVU64
 152 005e 4B6B     		ldr	r3, [r1, #52]
 153              	.LVL7:
 154              		.loc 1 336 6 view .LVU65
 155 0060 B3F5801F 		cmp	r3, #1048576
 156 0064 04D0     		beq	.L7
 157              	.L3:
 337:Drivers/STM32F4xx_HAL_Driver/Src/stm32f4xx_ll_fmc.c ****   {
 338:Drivers/STM32F4xx_HAL_Driver/Src/stm32f4xx_ll_fmc.c ****     MODIFY_REG(Device->BTCR[FMC_NORSRAM_BANK1], FMC_BCR1_CCLKEN, Init->ContinuousClock);
 339:Drivers/STM32F4xx_HAL_Driver/Src/stm32f4xx_ll_fmc.c ****   }
 340:Drivers/STM32F4xx_HAL_Driver/Src/stm32f4xx_ll_fmc.c **** #endif
 341:Drivers/STM32F4xx_HAL_Driver/Src/stm32f4xx_ll_fmc.c **** #if defined(FMC_BCR1_WFDIS)
 342:Drivers/STM32F4xx_HAL_Driver/Src/stm32f4xx_ll_fmc.c **** 
 343:Drivers/STM32F4xx_HAL_Driver/Src/stm32f4xx_ll_fmc.c ****   if (Init->NSBank != FMC_NORSRAM_BANK1)
 344:Drivers/STM32F4xx_HAL_Driver/Src/stm32f4xx_ll_fmc.c ****   {
 345:Drivers/STM32F4xx_HAL_Driver/Src/stm32f4xx_ll_fmc.c ****     /* Configure Write FIFO mode when Write Fifo is enabled for bank2..4 */
 346:Drivers/STM32F4xx_HAL_Driver/Src/stm32f4xx_ll_fmc.c ****     SET_BIT(Device->BTCR[FMC_NORSRAM_BANK1], (uint32_t)(Init->WriteFifo));
 347:Drivers/STM32F4xx_HAL_Driver/Src/stm32f4xx_ll_fmc.c ****   }
ARM GAS  C:\Users\stefa\AppData\Local\Temp\ccMreSci.s 			page 10


 348:Drivers/STM32F4xx_HAL_Driver/Src/stm32f4xx_ll_fmc.c **** #endif /* FMC_BCR1_WFDIS */
 349:Drivers/STM32F4xx_HAL_Driver/Src/stm32f4xx_ll_fmc.c **** 
 350:Drivers/STM32F4xx_HAL_Driver/Src/stm32f4xx_ll_fmc.c ****   return HAL_OK;
 158              		.loc 1 350 3 is_stmt 1 view .LVU66
 351:Drivers/STM32F4xx_HAL_Driver/Src/stm32f4xx_ll_fmc.c **** }
 159              		.loc 1 351 1 is_stmt 0 view .LVU67
 160 0066 0020     		movs	r0, #0
 161              	.LVL8:
 162              		.loc 1 351 1 view .LVU68
 163 0068 30BC     		pop	{r4, r5}
 164              	.LCFI1:
 165              		.cfi_remember_state
 166              		.cfi_restore 5
 167              		.cfi_restore 4
 168              		.cfi_def_cfa_offset 0
 169 006a 7047     		bx	lr
 170              	.LVL9:
 171              	.L6:
 172              	.LCFI2:
 173              		.cfi_restore_state
 276:Drivers/STM32F4xx_HAL_Driver/Src/stm32f4xx_ll_fmc.c ****   }
 174              		.loc 1 276 17 view .LVU69
 175 006c 4024     		movs	r4, #64
 176 006e D3E7     		b	.L2
 177              	.LVL10:
 178              	.L7:
 336:Drivers/STM32F4xx_HAL_Driver/Src/stm32f4xx_ll_fmc.c ****   {
 179              		.loc 1 336 74 discriminator 1 view .LVU70
 180 0070 0A68     		ldr	r2, [r1]
 336:Drivers/STM32F4xx_HAL_Driver/Src/stm32f4xx_ll_fmc.c ****   {
 181              		.loc 1 336 66 discriminator 1 view .LVU71
 182 0072 002A     		cmp	r2, #0
 183 0074 F7D0     		beq	.L3
 338:Drivers/STM32F4xx_HAL_Driver/Src/stm32f4xx_ll_fmc.c ****   }
 184              		.loc 1 338 5 is_stmt 1 view .LVU72
 185 0076 0268     		ldr	r2, [r0]
 186 0078 22F48012 		bic	r2, r2, #1048576
 187 007c 1343     		orrs	r3, r3, r2
 188 007e 0360     		str	r3, [r0]
 189 0080 F1E7     		b	.L3
 190              	.L9:
 191 0082 00BF     		.align	2
 192              	.L8:
 193 0084 8000E0FF 		.word	-2097024
 194              		.cfi_endproc
 195              	.LFE130:
 197              		.section	.text.FMC_NORSRAM_DeInit,"ax",%progbits
 198              		.align	1
 199              		.global	FMC_NORSRAM_DeInit
 200              		.syntax unified
 201              		.thumb
 202              		.thumb_func
 204              	FMC_NORSRAM_DeInit:
 205              	.LVL11:
 206              	.LFB131:
 352:Drivers/STM32F4xx_HAL_Driver/Src/stm32f4xx_ll_fmc.c **** 
 353:Drivers/STM32F4xx_HAL_Driver/Src/stm32f4xx_ll_fmc.c **** /**
ARM GAS  C:\Users\stefa\AppData\Local\Temp\ccMreSci.s 			page 11


 354:Drivers/STM32F4xx_HAL_Driver/Src/stm32f4xx_ll_fmc.c ****   * @brief  DeInitialize the FMC_NORSRAM peripheral
 355:Drivers/STM32F4xx_HAL_Driver/Src/stm32f4xx_ll_fmc.c ****   * @param  Device Pointer to NORSRAM device instance
 356:Drivers/STM32F4xx_HAL_Driver/Src/stm32f4xx_ll_fmc.c ****   * @param  ExDevice Pointer to NORSRAM extended mode device instance
 357:Drivers/STM32F4xx_HAL_Driver/Src/stm32f4xx_ll_fmc.c ****   * @param  Bank NORSRAM bank number
 358:Drivers/STM32F4xx_HAL_Driver/Src/stm32f4xx_ll_fmc.c ****   * @retval HAL status
 359:Drivers/STM32F4xx_HAL_Driver/Src/stm32f4xx_ll_fmc.c ****   */
 360:Drivers/STM32F4xx_HAL_Driver/Src/stm32f4xx_ll_fmc.c **** HAL_StatusTypeDef FMC_NORSRAM_DeInit(FMC_NORSRAM_TypeDef *Device,
 361:Drivers/STM32F4xx_HAL_Driver/Src/stm32f4xx_ll_fmc.c ****                                      FMC_NORSRAM_EXTENDED_TypeDef *ExDevice, uint32_t Bank)
 362:Drivers/STM32F4xx_HAL_Driver/Src/stm32f4xx_ll_fmc.c **** {
 207              		.loc 1 362 1 view -0
 208              		.cfi_startproc
 209              		@ args = 0, pretend = 0, frame = 0
 210              		@ frame_needed = 0, uses_anonymous_args = 0
 211              		@ link register save eliminated.
 363:Drivers/STM32F4xx_HAL_Driver/Src/stm32f4xx_ll_fmc.c ****   /* Check the parameters */
 364:Drivers/STM32F4xx_HAL_Driver/Src/stm32f4xx_ll_fmc.c ****   assert_param(IS_FMC_NORSRAM_DEVICE(Device));
 212              		.loc 1 364 3 view .LVU74
 365:Drivers/STM32F4xx_HAL_Driver/Src/stm32f4xx_ll_fmc.c ****   assert_param(IS_FMC_NORSRAM_EXTENDED_DEVICE(ExDevice));
 213              		.loc 1 365 3 view .LVU75
 366:Drivers/STM32F4xx_HAL_Driver/Src/stm32f4xx_ll_fmc.c ****   assert_param(IS_FMC_NORSRAM_BANK(Bank));
 214              		.loc 1 366 3 view .LVU76
 367:Drivers/STM32F4xx_HAL_Driver/Src/stm32f4xx_ll_fmc.c **** 
 368:Drivers/STM32F4xx_HAL_Driver/Src/stm32f4xx_ll_fmc.c ****   /* Disable the FMC_NORSRAM device */
 369:Drivers/STM32F4xx_HAL_Driver/Src/stm32f4xx_ll_fmc.c ****   __FMC_NORSRAM_DISABLE(Device, Bank);
 215              		.loc 1 369 3 view .LVU77
 216 0000 50F82230 		ldr	r3, [r0, r2, lsl #2]
 217 0004 23F00103 		bic	r3, r3, #1
 218 0008 40F82230 		str	r3, [r0, r2, lsl #2]
 370:Drivers/STM32F4xx_HAL_Driver/Src/stm32f4xx_ll_fmc.c **** 
 371:Drivers/STM32F4xx_HAL_Driver/Src/stm32f4xx_ll_fmc.c ****   /* De-initialize the FMC_NORSRAM device */
 372:Drivers/STM32F4xx_HAL_Driver/Src/stm32f4xx_ll_fmc.c ****   /* FMC_NORSRAM_BANK1 */
 373:Drivers/STM32F4xx_HAL_Driver/Src/stm32f4xx_ll_fmc.c ****   if (Bank == FMC_NORSRAM_BANK1)
 219              		.loc 1 373 3 view .LVU78
 220              		.loc 1 373 6 is_stmt 0 view .LVU79
 221 000c 6AB9     		cbnz	r2, .L11
 374:Drivers/STM32F4xx_HAL_Driver/Src/stm32f4xx_ll_fmc.c ****   {
 375:Drivers/STM32F4xx_HAL_Driver/Src/stm32f4xx_ll_fmc.c ****     Device->BTCR[Bank] = 0x000030DBU;
 222              		.loc 1 375 5 is_stmt 1 view .LVU80
 223              		.loc 1 375 24 is_stmt 0 view .LVU81
 224 000e 43F2DB03 		movw	r3, #12507
 225 0012 40F82230 		str	r3, [r0, r2, lsl #2]
 226              	.L12:
 376:Drivers/STM32F4xx_HAL_Driver/Src/stm32f4xx_ll_fmc.c ****   }
 377:Drivers/STM32F4xx_HAL_Driver/Src/stm32f4xx_ll_fmc.c ****   /* FMC_NORSRAM_BANK2, FMC_NORSRAM_BANK3 or FMC_NORSRAM_BANK4 */
 378:Drivers/STM32F4xx_HAL_Driver/Src/stm32f4xx_ll_fmc.c ****   else
 379:Drivers/STM32F4xx_HAL_Driver/Src/stm32f4xx_ll_fmc.c ****   {
 380:Drivers/STM32F4xx_HAL_Driver/Src/stm32f4xx_ll_fmc.c ****     Device->BTCR[Bank] = 0x000030D2U;
 381:Drivers/STM32F4xx_HAL_Driver/Src/stm32f4xx_ll_fmc.c ****   }
 382:Drivers/STM32F4xx_HAL_Driver/Src/stm32f4xx_ll_fmc.c **** 
 383:Drivers/STM32F4xx_HAL_Driver/Src/stm32f4xx_ll_fmc.c ****   Device->BTCR[Bank + 1U] = 0x0FFFFFFFU;
 227              		.loc 1 383 3 is_stmt 1 view .LVU82
 228              		.loc 1 383 21 is_stmt 0 view .LVU83
 229 0016 02F1010C 		add	ip, r2, #1
 230              		.loc 1 383 27 view .LVU84
 231 001a 6FF07043 		mvn	r3, #-268435456
 232 001e 40F82C30 		str	r3, [r0, ip, lsl #2]
 384:Drivers/STM32F4xx_HAL_Driver/Src/stm32f4xx_ll_fmc.c ****   ExDevice->BWTR[Bank]   = 0x0FFFFFFFU;
ARM GAS  C:\Users\stefa\AppData\Local\Temp\ccMreSci.s 			page 12


 233              		.loc 1 384 3 is_stmt 1 view .LVU85
 234              		.loc 1 384 26 is_stmt 0 view .LVU86
 235 0022 41F82230 		str	r3, [r1, r2, lsl #2]
 385:Drivers/STM32F4xx_HAL_Driver/Src/stm32f4xx_ll_fmc.c **** 
 386:Drivers/STM32F4xx_HAL_Driver/Src/stm32f4xx_ll_fmc.c ****   return HAL_OK;
 236              		.loc 1 386 3 is_stmt 1 view .LVU87
 387:Drivers/STM32F4xx_HAL_Driver/Src/stm32f4xx_ll_fmc.c **** }
 237              		.loc 1 387 1 is_stmt 0 view .LVU88
 238 0026 0020     		movs	r0, #0
 239              	.LVL12:
 240              		.loc 1 387 1 view .LVU89
 241 0028 7047     		bx	lr
 242              	.LVL13:
 243              	.L11:
 380:Drivers/STM32F4xx_HAL_Driver/Src/stm32f4xx_ll_fmc.c ****   }
 244              		.loc 1 380 5 is_stmt 1 view .LVU90
 380:Drivers/STM32F4xx_HAL_Driver/Src/stm32f4xx_ll_fmc.c ****   }
 245              		.loc 1 380 24 is_stmt 0 view .LVU91
 246 002a 43F2D203 		movw	r3, #12498
 247 002e 40F82230 		str	r3, [r0, r2, lsl #2]
 248 0032 F0E7     		b	.L12
 249              		.cfi_endproc
 250              	.LFE131:
 252              		.section	.text.FMC_NORSRAM_Timing_Init,"ax",%progbits
 253              		.align	1
 254              		.global	FMC_NORSRAM_Timing_Init
 255              		.syntax unified
 256              		.thumb
 257              		.thumb_func
 259              	FMC_NORSRAM_Timing_Init:
 260              	.LVL14:
 261              	.LFB132:
 388:Drivers/STM32F4xx_HAL_Driver/Src/stm32f4xx_ll_fmc.c **** 
 389:Drivers/STM32F4xx_HAL_Driver/Src/stm32f4xx_ll_fmc.c **** /**
 390:Drivers/STM32F4xx_HAL_Driver/Src/stm32f4xx_ll_fmc.c ****   * @brief  Initialize the FMC_NORSRAM Timing according to the specified
 391:Drivers/STM32F4xx_HAL_Driver/Src/stm32f4xx_ll_fmc.c ****   *         parameters in the FMC_NORSRAM_TimingTypeDef
 392:Drivers/STM32F4xx_HAL_Driver/Src/stm32f4xx_ll_fmc.c ****   * @param  Device Pointer to NORSRAM device instance
 393:Drivers/STM32F4xx_HAL_Driver/Src/stm32f4xx_ll_fmc.c ****   * @param  Timing Pointer to NORSRAM Timing structure
 394:Drivers/STM32F4xx_HAL_Driver/Src/stm32f4xx_ll_fmc.c ****   * @param  Bank NORSRAM bank number
 395:Drivers/STM32F4xx_HAL_Driver/Src/stm32f4xx_ll_fmc.c ****   * @retval HAL status
 396:Drivers/STM32F4xx_HAL_Driver/Src/stm32f4xx_ll_fmc.c ****   */
 397:Drivers/STM32F4xx_HAL_Driver/Src/stm32f4xx_ll_fmc.c **** HAL_StatusTypeDef FMC_NORSRAM_Timing_Init(FMC_NORSRAM_TypeDef *Device,
 398:Drivers/STM32F4xx_HAL_Driver/Src/stm32f4xx_ll_fmc.c ****                                           FMC_NORSRAM_TimingTypeDef *Timing, uint32_t Bank)
 399:Drivers/STM32F4xx_HAL_Driver/Src/stm32f4xx_ll_fmc.c **** {
 262              		.loc 1 399 1 is_stmt 1 view -0
 263              		.cfi_startproc
 264              		@ args = 0, pretend = 0, frame = 0
 265              		@ frame_needed = 0, uses_anonymous_args = 0
 266              		.loc 1 399 1 is_stmt 0 view .LVU93
 267 0000 10B5     		push	{r4, lr}
 268              	.LCFI3:
 269              		.cfi_def_cfa_offset 8
 270              		.cfi_offset 4, -8
 271              		.cfi_offset 14, -4
 400:Drivers/STM32F4xx_HAL_Driver/Src/stm32f4xx_ll_fmc.c **** #if defined(FMC_BCR1_CCLKEN)
 401:Drivers/STM32F4xx_HAL_Driver/Src/stm32f4xx_ll_fmc.c ****   uint32_t tmpr;
 272              		.loc 1 401 3 is_stmt 1 view .LVU94
ARM GAS  C:\Users\stefa\AppData\Local\Temp\ccMreSci.s 			page 13


 402:Drivers/STM32F4xx_HAL_Driver/Src/stm32f4xx_ll_fmc.c **** #endif
 403:Drivers/STM32F4xx_HAL_Driver/Src/stm32f4xx_ll_fmc.c **** 
 404:Drivers/STM32F4xx_HAL_Driver/Src/stm32f4xx_ll_fmc.c ****   /* Check the parameters */
 405:Drivers/STM32F4xx_HAL_Driver/Src/stm32f4xx_ll_fmc.c ****   assert_param(IS_FMC_NORSRAM_DEVICE(Device));
 273              		.loc 1 405 3 view .LVU95
 406:Drivers/STM32F4xx_HAL_Driver/Src/stm32f4xx_ll_fmc.c ****   assert_param(IS_FMC_ADDRESS_SETUP_TIME(Timing->AddressSetupTime));
 274              		.loc 1 406 3 view .LVU96
 407:Drivers/STM32F4xx_HAL_Driver/Src/stm32f4xx_ll_fmc.c ****   assert_param(IS_FMC_ADDRESS_HOLD_TIME(Timing->AddressHoldTime));
 275              		.loc 1 407 3 view .LVU97
 408:Drivers/STM32F4xx_HAL_Driver/Src/stm32f4xx_ll_fmc.c ****   assert_param(IS_FMC_DATASETUP_TIME(Timing->DataSetupTime));
 276              		.loc 1 408 3 view .LVU98
 409:Drivers/STM32F4xx_HAL_Driver/Src/stm32f4xx_ll_fmc.c ****   assert_param(IS_FMC_TURNAROUND_TIME(Timing->BusTurnAroundDuration));
 277              		.loc 1 409 3 view .LVU99
 410:Drivers/STM32F4xx_HAL_Driver/Src/stm32f4xx_ll_fmc.c ****   assert_param(IS_FMC_CLK_DIV(Timing->CLKDivision));
 278              		.loc 1 410 3 view .LVU100
 411:Drivers/STM32F4xx_HAL_Driver/Src/stm32f4xx_ll_fmc.c ****   assert_param(IS_FMC_DATA_LATENCY(Timing->DataLatency));
 279              		.loc 1 411 3 view .LVU101
 412:Drivers/STM32F4xx_HAL_Driver/Src/stm32f4xx_ll_fmc.c ****   assert_param(IS_FMC_ACCESS_MODE(Timing->AccessMode));
 280              		.loc 1 412 3 view .LVU102
 413:Drivers/STM32F4xx_HAL_Driver/Src/stm32f4xx_ll_fmc.c ****   assert_param(IS_FMC_NORSRAM_BANK(Bank));
 281              		.loc 1 413 3 view .LVU103
 414:Drivers/STM32F4xx_HAL_Driver/Src/stm32f4xx_ll_fmc.c **** 
 415:Drivers/STM32F4xx_HAL_Driver/Src/stm32f4xx_ll_fmc.c ****   /* Set FMC_NORSRAM device timing parameters */
 416:Drivers/STM32F4xx_HAL_Driver/Src/stm32f4xx_ll_fmc.c ****   MODIFY_REG(Device->BTCR[Bank + 1U], BTR_CLEAR_MASK, (Timing->AddressSetupTime                    
 282              		.loc 1 416 3 view .LVU104
 283 0002 0132     		adds	r2, r2, #1
 284              	.LVL15:
 285              		.loc 1 416 3 is_stmt 0 view .LVU105
 286 0004 50F82230 		ldr	r3, [r0, r2, lsl #2]
 287 0008 03F0404C 		and	ip, r3, #-1073741824
 288 000c 0B68     		ldr	r3, [r1]
 289 000e 4C68     		ldr	r4, [r1, #4]
 290 0010 43EA0413 		orr	r3, r3, r4, lsl #4
 291 0014 8C68     		ldr	r4, [r1, #8]
 292 0016 43EA0423 		orr	r3, r3, r4, lsl #8
 293 001a CC68     		ldr	r4, [r1, #12]
 294 001c 43EA0443 		orr	r3, r3, r4, lsl #16
 295 0020 0C69     		ldr	r4, [r1, #16]
 296 0022 04F1FF3E 		add	lr, r4, #-1
 297 0026 43EA0E53 		orr	r3, r3, lr, lsl #20
 298 002a 4C69     		ldr	r4, [r1, #20]
 299 002c A4F1020E 		sub	lr, r4, #2
 300 0030 43EA0E63 		orr	r3, r3, lr, lsl #24
 301 0034 8C69     		ldr	r4, [r1, #24]
 302 0036 2343     		orrs	r3, r3, r4
 303 0038 4CEA0303 		orr	r3, ip, r3
 304 003c 40F82230 		str	r3, [r0, r2, lsl #2]
 417:Drivers/STM32F4xx_HAL_Driver/Src/stm32f4xx_ll_fmc.c ****                                                        ((Timing->AddressHoldTime)        << FMC_BTR
 418:Drivers/STM32F4xx_HAL_Driver/Src/stm32f4xx_ll_fmc.c ****                                                        ((Timing->DataSetupTime)          << FMC_BTR
 419:Drivers/STM32F4xx_HAL_Driver/Src/stm32f4xx_ll_fmc.c ****                                                        ((Timing->BusTurnAroundDuration)  << FMC_BTR
 420:Drivers/STM32F4xx_HAL_Driver/Src/stm32f4xx_ll_fmc.c ****                                                        (((Timing->CLKDivision) - 1U)     << FMC_BTR
 421:Drivers/STM32F4xx_HAL_Driver/Src/stm32f4xx_ll_fmc.c ****                                                        (((Timing->DataLatency) - 2U)     << FMC_BTR
 422:Drivers/STM32F4xx_HAL_Driver/Src/stm32f4xx_ll_fmc.c ****                                                        (Timing->AccessMode)));
 423:Drivers/STM32F4xx_HAL_Driver/Src/stm32f4xx_ll_fmc.c **** 
 424:Drivers/STM32F4xx_HAL_Driver/Src/stm32f4xx_ll_fmc.c **** #if defined(FMC_BCR1_CCLKEN)
 425:Drivers/STM32F4xx_HAL_Driver/Src/stm32f4xx_ll_fmc.c ****   /* Configure Clock division value (in NORSRAM bank 1) when continuous clock is enabled */
 426:Drivers/STM32F4xx_HAL_Driver/Src/stm32f4xx_ll_fmc.c ****   if (HAL_IS_BIT_SET(Device->BTCR[FMC_NORSRAM_BANK1], FMC_BCR1_CCLKEN))
ARM GAS  C:\Users\stefa\AppData\Local\Temp\ccMreSci.s 			page 14


 305              		.loc 1 426 3 is_stmt 1 view .LVU106
 306              		.loc 1 426 7 is_stmt 0 view .LVU107
 307 0040 0368     		ldr	r3, [r0]
 308              		.loc 1 426 6 view .LVU108
 309 0042 13F4801F 		tst	r3, #1048576
 310 0046 0BD0     		beq	.L14
 427:Drivers/STM32F4xx_HAL_Driver/Src/stm32f4xx_ll_fmc.c ****   {
 428:Drivers/STM32F4xx_HAL_Driver/Src/stm32f4xx_ll_fmc.c ****     tmpr = (uint32_t)(Device->BTCR[FMC_NORSRAM_BANK1 + 1U] & ~((0x0FU) << FMC_BTR1_CLKDIV_Pos));
 311              		.loc 1 428 5 is_stmt 1 view .LVU109
 312              		.loc 1 428 35 is_stmt 0 view .LVU110
 313 0048 4368     		ldr	r3, [r0, #4]
 314              		.loc 1 428 10 view .LVU111
 315 004a 23F47003 		bic	r3, r3, #15728640
 316              	.LVL16:
 429:Drivers/STM32F4xx_HAL_Driver/Src/stm32f4xx_ll_fmc.c ****     tmpr |= (uint32_t)(((Timing->CLKDivision) - 1U) << FMC_BTR1_CLKDIV_Pos);
 317              		.loc 1 429 5 is_stmt 1 view .LVU112
 318              		.loc 1 429 32 is_stmt 0 view .LVU113
 319 004e 0A69     		ldr	r2, [r1, #16]
 320              	.LVL17:
 321              		.loc 1 429 47 view .LVU114
 322 0050 013A     		subs	r2, r2, #1
 323              		.loc 1 429 10 view .LVU115
 324 0052 43EA0252 		orr	r2, r3, r2, lsl #20
 325              	.LVL18:
 430:Drivers/STM32F4xx_HAL_Driver/Src/stm32f4xx_ll_fmc.c ****     MODIFY_REG(Device->BTCR[FMC_NORSRAM_BANK1 + 1U], FMC_BTR1_CLKDIV, tmpr);
 326              		.loc 1 430 5 is_stmt 1 view .LVU116
 327 0056 4368     		ldr	r3, [r0, #4]
 328 0058 23F47003 		bic	r3, r3, #15728640
 329 005c 1343     		orrs	r3, r3, r2
 330 005e 4360     		str	r3, [r0, #4]
 331              	.LVL19:
 332              	.L14:
 431:Drivers/STM32F4xx_HAL_Driver/Src/stm32f4xx_ll_fmc.c ****   }
 432:Drivers/STM32F4xx_HAL_Driver/Src/stm32f4xx_ll_fmc.c **** 
 433:Drivers/STM32F4xx_HAL_Driver/Src/stm32f4xx_ll_fmc.c **** #endif
 434:Drivers/STM32F4xx_HAL_Driver/Src/stm32f4xx_ll_fmc.c ****   return HAL_OK;
 333              		.loc 1 434 3 view .LVU117
 435:Drivers/STM32F4xx_HAL_Driver/Src/stm32f4xx_ll_fmc.c **** }
 334              		.loc 1 435 1 is_stmt 0 view .LVU118
 335 0060 0020     		movs	r0, #0
 336              	.LVL20:
 337              		.loc 1 435 1 view .LVU119
 338 0062 10BD     		pop	{r4, pc}
 339              		.cfi_endproc
 340              	.LFE132:
 342              		.section	.text.FMC_NORSRAM_Extended_Timing_Init,"ax",%progbits
 343              		.align	1
 344              		.global	FMC_NORSRAM_Extended_Timing_Init
 345              		.syntax unified
 346              		.thumb
 347              		.thumb_func
 349              	FMC_NORSRAM_Extended_Timing_Init:
 350              	.LVL21:
 351              	.LFB133:
 436:Drivers/STM32F4xx_HAL_Driver/Src/stm32f4xx_ll_fmc.c **** 
 437:Drivers/STM32F4xx_HAL_Driver/Src/stm32f4xx_ll_fmc.c **** /**
 438:Drivers/STM32F4xx_HAL_Driver/Src/stm32f4xx_ll_fmc.c ****   * @brief  Initialize the FMC_NORSRAM Extended mode Timing according to the specified
ARM GAS  C:\Users\stefa\AppData\Local\Temp\ccMreSci.s 			page 15


 439:Drivers/STM32F4xx_HAL_Driver/Src/stm32f4xx_ll_fmc.c ****   *         parameters in the FMC_NORSRAM_TimingTypeDef
 440:Drivers/STM32F4xx_HAL_Driver/Src/stm32f4xx_ll_fmc.c ****   * @param  Device Pointer to NORSRAM device instance
 441:Drivers/STM32F4xx_HAL_Driver/Src/stm32f4xx_ll_fmc.c ****   * @param  Timing Pointer to NORSRAM Timing structure
 442:Drivers/STM32F4xx_HAL_Driver/Src/stm32f4xx_ll_fmc.c ****   * @param  Bank NORSRAM bank number
 443:Drivers/STM32F4xx_HAL_Driver/Src/stm32f4xx_ll_fmc.c ****   * @param  ExtendedMode FMC Extended Mode
 444:Drivers/STM32F4xx_HAL_Driver/Src/stm32f4xx_ll_fmc.c ****   *          This parameter can be one of the following values:
 445:Drivers/STM32F4xx_HAL_Driver/Src/stm32f4xx_ll_fmc.c ****   *            @arg FMC_EXTENDED_MODE_DISABLE
 446:Drivers/STM32F4xx_HAL_Driver/Src/stm32f4xx_ll_fmc.c ****   *            @arg FMC_EXTENDED_MODE_ENABLE
 447:Drivers/STM32F4xx_HAL_Driver/Src/stm32f4xx_ll_fmc.c ****   * @retval HAL status
 448:Drivers/STM32F4xx_HAL_Driver/Src/stm32f4xx_ll_fmc.c ****   */
 449:Drivers/STM32F4xx_HAL_Driver/Src/stm32f4xx_ll_fmc.c **** HAL_StatusTypeDef FMC_NORSRAM_Extended_Timing_Init(FMC_NORSRAM_EXTENDED_TypeDef *Device,
 450:Drivers/STM32F4xx_HAL_Driver/Src/stm32f4xx_ll_fmc.c ****                                                    FMC_NORSRAM_TimingTypeDef *Timing, uint32_t Bank
 451:Drivers/STM32F4xx_HAL_Driver/Src/stm32f4xx_ll_fmc.c ****                                                    uint32_t ExtendedMode)
 452:Drivers/STM32F4xx_HAL_Driver/Src/stm32f4xx_ll_fmc.c **** {
 352              		.loc 1 452 1 is_stmt 1 view -0
 353              		.cfi_startproc
 354              		@ args = 0, pretend = 0, frame = 0
 355              		@ frame_needed = 0, uses_anonymous_args = 0
 356              		@ link register save eliminated.
 453:Drivers/STM32F4xx_HAL_Driver/Src/stm32f4xx_ll_fmc.c ****   /* Check the parameters */
 454:Drivers/STM32F4xx_HAL_Driver/Src/stm32f4xx_ll_fmc.c ****   assert_param(IS_FMC_EXTENDED_MODE(ExtendedMode));
 357              		.loc 1 454 3 view .LVU121
 455:Drivers/STM32F4xx_HAL_Driver/Src/stm32f4xx_ll_fmc.c **** 
 456:Drivers/STM32F4xx_HAL_Driver/Src/stm32f4xx_ll_fmc.c ****   /* Set NORSRAM device timing register for write configuration, if extended mode is used */
 457:Drivers/STM32F4xx_HAL_Driver/Src/stm32f4xx_ll_fmc.c ****   if (ExtendedMode == FMC_EXTENDED_MODE_ENABLE)
 358              		.loc 1 457 3 view .LVU122
 359              		.loc 1 457 6 is_stmt 0 view .LVU123
 360 0000 B3F5804F 		cmp	r3, #16384
 361 0004 05D0     		beq	.L23
 458:Drivers/STM32F4xx_HAL_Driver/Src/stm32f4xx_ll_fmc.c ****   {
 459:Drivers/STM32F4xx_HAL_Driver/Src/stm32f4xx_ll_fmc.c ****     /* Check the parameters */
 460:Drivers/STM32F4xx_HAL_Driver/Src/stm32f4xx_ll_fmc.c ****     assert_param(IS_FMC_NORSRAM_EXTENDED_DEVICE(Device));
 461:Drivers/STM32F4xx_HAL_Driver/Src/stm32f4xx_ll_fmc.c ****     assert_param(IS_FMC_ADDRESS_SETUP_TIME(Timing->AddressSetupTime));
 462:Drivers/STM32F4xx_HAL_Driver/Src/stm32f4xx_ll_fmc.c ****     assert_param(IS_FMC_ADDRESS_HOLD_TIME(Timing->AddressHoldTime));
 463:Drivers/STM32F4xx_HAL_Driver/Src/stm32f4xx_ll_fmc.c ****     assert_param(IS_FMC_DATASETUP_TIME(Timing->DataSetupTime));
 464:Drivers/STM32F4xx_HAL_Driver/Src/stm32f4xx_ll_fmc.c ****     assert_param(IS_FMC_TURNAROUND_TIME(Timing->BusTurnAroundDuration));
 465:Drivers/STM32F4xx_HAL_Driver/Src/stm32f4xx_ll_fmc.c ****     assert_param(IS_FMC_ACCESS_MODE(Timing->AccessMode));
 466:Drivers/STM32F4xx_HAL_Driver/Src/stm32f4xx_ll_fmc.c ****     assert_param(IS_FMC_NORSRAM_BANK(Bank));
 467:Drivers/STM32F4xx_HAL_Driver/Src/stm32f4xx_ll_fmc.c **** 
 468:Drivers/STM32F4xx_HAL_Driver/Src/stm32f4xx_ll_fmc.c ****     /* Set NORSRAM device timing register for write configuration, if extended mode is used */
 469:Drivers/STM32F4xx_HAL_Driver/Src/stm32f4xx_ll_fmc.c ****     MODIFY_REG(Device->BWTR[Bank], BWTR_CLEAR_MASK, (Timing->AddressSetupTime                      
 470:Drivers/STM32F4xx_HAL_Driver/Src/stm32f4xx_ll_fmc.c ****                                                      ((Timing->AddressHoldTime)        << FMC_BWTR1
 471:Drivers/STM32F4xx_HAL_Driver/Src/stm32f4xx_ll_fmc.c ****                                                      ((Timing->DataSetupTime)          << FMC_BWTR1
 472:Drivers/STM32F4xx_HAL_Driver/Src/stm32f4xx_ll_fmc.c ****                                                      Timing->AccessMode                            
 473:Drivers/STM32F4xx_HAL_Driver/Src/stm32f4xx_ll_fmc.c ****                                                      ((Timing->BusTurnAroundDuration)  << FMC_BWTR1
 474:Drivers/STM32F4xx_HAL_Driver/Src/stm32f4xx_ll_fmc.c ****   }
 475:Drivers/STM32F4xx_HAL_Driver/Src/stm32f4xx_ll_fmc.c ****   else
 476:Drivers/STM32F4xx_HAL_Driver/Src/stm32f4xx_ll_fmc.c ****   {
 477:Drivers/STM32F4xx_HAL_Driver/Src/stm32f4xx_ll_fmc.c ****     Device->BWTR[Bank] = 0x0FFFFFFFU;
 362              		.loc 1 477 5 is_stmt 1 view .LVU124
 363              		.loc 1 477 24 is_stmt 0 view .LVU125
 364 0006 6FF07043 		mvn	r3, #-268435456
 365              	.LVL22:
 366              		.loc 1 477 24 view .LVU126
 367 000a 40F82230 		str	r3, [r0, r2, lsl #2]
 478:Drivers/STM32F4xx_HAL_Driver/Src/stm32f4xx_ll_fmc.c ****   }
 479:Drivers/STM32F4xx_HAL_Driver/Src/stm32f4xx_ll_fmc.c **** 
ARM GAS  C:\Users\stefa\AppData\Local\Temp\ccMreSci.s 			page 16


 480:Drivers/STM32F4xx_HAL_Driver/Src/stm32f4xx_ll_fmc.c ****   return HAL_OK;
 368              		.loc 1 480 3 is_stmt 1 view .LVU127
 481:Drivers/STM32F4xx_HAL_Driver/Src/stm32f4xx_ll_fmc.c **** }
 369              		.loc 1 481 1 is_stmt 0 view .LVU128
 370 000e 0020     		movs	r0, #0
 371              	.LVL23:
 372              		.loc 1 481 1 view .LVU129
 373 0010 7047     		bx	lr
 374              	.LVL24:
 375              	.L23:
 452:Drivers/STM32F4xx_HAL_Driver/Src/stm32f4xx_ll_fmc.c ****   /* Check the parameters */
 376              		.loc 1 452 1 view .LVU130
 377 0012 30B4     		push	{r4, r5}
 378              	.LCFI4:
 379              		.cfi_def_cfa_offset 8
 380              		.cfi_offset 4, -8
 381              		.cfi_offset 5, -4
 460:Drivers/STM32F4xx_HAL_Driver/Src/stm32f4xx_ll_fmc.c ****     assert_param(IS_FMC_ADDRESS_SETUP_TIME(Timing->AddressSetupTime));
 382              		.loc 1 460 5 is_stmt 1 view .LVU131
 461:Drivers/STM32F4xx_HAL_Driver/Src/stm32f4xx_ll_fmc.c ****     assert_param(IS_FMC_ADDRESS_HOLD_TIME(Timing->AddressHoldTime));
 383              		.loc 1 461 5 view .LVU132
 462:Drivers/STM32F4xx_HAL_Driver/Src/stm32f4xx_ll_fmc.c ****     assert_param(IS_FMC_DATASETUP_TIME(Timing->DataSetupTime));
 384              		.loc 1 462 5 view .LVU133
 463:Drivers/STM32F4xx_HAL_Driver/Src/stm32f4xx_ll_fmc.c ****     assert_param(IS_FMC_TURNAROUND_TIME(Timing->BusTurnAroundDuration));
 385              		.loc 1 463 5 view .LVU134
 464:Drivers/STM32F4xx_HAL_Driver/Src/stm32f4xx_ll_fmc.c ****     assert_param(IS_FMC_ACCESS_MODE(Timing->AccessMode));
 386              		.loc 1 464 5 view .LVU135
 465:Drivers/STM32F4xx_HAL_Driver/Src/stm32f4xx_ll_fmc.c ****     assert_param(IS_FMC_NORSRAM_BANK(Bank));
 387              		.loc 1 465 5 view .LVU136
 466:Drivers/STM32F4xx_HAL_Driver/Src/stm32f4xx_ll_fmc.c **** 
 388              		.loc 1 466 5 view .LVU137
 469:Drivers/STM32F4xx_HAL_Driver/Src/stm32f4xx_ll_fmc.c ****                                                      ((Timing->AddressHoldTime)        << FMC_BWTR1
 389              		.loc 1 469 5 view .LVU138
 390 0014 50F82230 		ldr	r3, [r0, r2, lsl #2]
 391              	.LVL25:
 469:Drivers/STM32F4xx_HAL_Driver/Src/stm32f4xx_ll_fmc.c ****                                                      ((Timing->AddressHoldTime)        << FMC_BWTR1
 392              		.loc 1 469 5 is_stmt 0 view .LVU139
 393 0018 094C     		ldr	r4, .L24
 394 001a 1C40     		ands	r4, r4, r3
 395 001c 0B68     		ldr	r3, [r1]
 396 001e 4D68     		ldr	r5, [r1, #4]
 397 0020 43EA0513 		orr	r3, r3, r5, lsl #4
 398 0024 8D68     		ldr	r5, [r1, #8]
 399 0026 43EA0523 		orr	r3, r3, r5, lsl #8
 400 002a 8D69     		ldr	r5, [r1, #24]
 401 002c 2B43     		orrs	r3, r3, r5
 402 002e C968     		ldr	r1, [r1, #12]
 403              	.LVL26:
 469:Drivers/STM32F4xx_HAL_Driver/Src/stm32f4xx_ll_fmc.c ****                                                      ((Timing->AddressHoldTime)        << FMC_BWTR1
 404              		.loc 1 469 5 view .LVU140
 405 0030 43EA0143 		orr	r3, r3, r1, lsl #16
 406 0034 2343     		orrs	r3, r3, r4
 407 0036 40F82230 		str	r3, [r0, r2, lsl #2]
 480:Drivers/STM32F4xx_HAL_Driver/Src/stm32f4xx_ll_fmc.c **** }
 408              		.loc 1 480 3 is_stmt 1 view .LVU141
 409              		.loc 1 481 1 is_stmt 0 view .LVU142
 410 003a 0020     		movs	r0, #0
ARM GAS  C:\Users\stefa\AppData\Local\Temp\ccMreSci.s 			page 17


 411              	.LVL27:
 412              		.loc 1 481 1 view .LVU143
 413 003c 30BC     		pop	{r4, r5}
 414              	.LCFI5:
 415              		.cfi_restore 5
 416              		.cfi_restore 4
 417              		.cfi_def_cfa_offset 0
 418 003e 7047     		bx	lr
 419              	.L25:
 420              		.align	2
 421              	.L24:
 422 0040 0000F0CF 		.word	-806354944
 423              		.cfi_endproc
 424              	.LFE133:
 426              		.section	.text.FMC_NORSRAM_WriteOperation_Enable,"ax",%progbits
 427              		.align	1
 428              		.global	FMC_NORSRAM_WriteOperation_Enable
 429              		.syntax unified
 430              		.thumb
 431              		.thumb_func
 433              	FMC_NORSRAM_WriteOperation_Enable:
 434              	.LVL28:
 435              	.LFB134:
 482:Drivers/STM32F4xx_HAL_Driver/Src/stm32f4xx_ll_fmc.c **** /**
 483:Drivers/STM32F4xx_HAL_Driver/Src/stm32f4xx_ll_fmc.c ****   * @}
 484:Drivers/STM32F4xx_HAL_Driver/Src/stm32f4xx_ll_fmc.c ****   */
 485:Drivers/STM32F4xx_HAL_Driver/Src/stm32f4xx_ll_fmc.c **** 
 486:Drivers/STM32F4xx_HAL_Driver/Src/stm32f4xx_ll_fmc.c **** /** @addtogroup FMC_LL_NORSRAM_Private_Functions_Group2
 487:Drivers/STM32F4xx_HAL_Driver/Src/stm32f4xx_ll_fmc.c ****   *  @brief   management functions
 488:Drivers/STM32F4xx_HAL_Driver/Src/stm32f4xx_ll_fmc.c ****   *
 489:Drivers/STM32F4xx_HAL_Driver/Src/stm32f4xx_ll_fmc.c **** @verbatim
 490:Drivers/STM32F4xx_HAL_Driver/Src/stm32f4xx_ll_fmc.c ****   ==============================================================================
 491:Drivers/STM32F4xx_HAL_Driver/Src/stm32f4xx_ll_fmc.c ****                       ##### FMC_NORSRAM Control functions #####
 492:Drivers/STM32F4xx_HAL_Driver/Src/stm32f4xx_ll_fmc.c ****   ==============================================================================
 493:Drivers/STM32F4xx_HAL_Driver/Src/stm32f4xx_ll_fmc.c ****   [..]
 494:Drivers/STM32F4xx_HAL_Driver/Src/stm32f4xx_ll_fmc.c ****     This subsection provides a set of functions allowing to control dynamically
 495:Drivers/STM32F4xx_HAL_Driver/Src/stm32f4xx_ll_fmc.c ****     the FMC NORSRAM interface.
 496:Drivers/STM32F4xx_HAL_Driver/Src/stm32f4xx_ll_fmc.c **** 
 497:Drivers/STM32F4xx_HAL_Driver/Src/stm32f4xx_ll_fmc.c **** @endverbatim
 498:Drivers/STM32F4xx_HAL_Driver/Src/stm32f4xx_ll_fmc.c ****   * @{
 499:Drivers/STM32F4xx_HAL_Driver/Src/stm32f4xx_ll_fmc.c ****   */
 500:Drivers/STM32F4xx_HAL_Driver/Src/stm32f4xx_ll_fmc.c **** 
 501:Drivers/STM32F4xx_HAL_Driver/Src/stm32f4xx_ll_fmc.c **** /**
 502:Drivers/STM32F4xx_HAL_Driver/Src/stm32f4xx_ll_fmc.c ****   * @brief  Enables dynamically FMC_NORSRAM write operation.
 503:Drivers/STM32F4xx_HAL_Driver/Src/stm32f4xx_ll_fmc.c ****   * @param  Device Pointer to NORSRAM device instance
 504:Drivers/STM32F4xx_HAL_Driver/Src/stm32f4xx_ll_fmc.c ****   * @param  Bank NORSRAM bank number
 505:Drivers/STM32F4xx_HAL_Driver/Src/stm32f4xx_ll_fmc.c ****   * @retval HAL status
 506:Drivers/STM32F4xx_HAL_Driver/Src/stm32f4xx_ll_fmc.c ****   */
 507:Drivers/STM32F4xx_HAL_Driver/Src/stm32f4xx_ll_fmc.c **** HAL_StatusTypeDef FMC_NORSRAM_WriteOperation_Enable(FMC_NORSRAM_TypeDef *Device, uint32_t Bank)
 508:Drivers/STM32F4xx_HAL_Driver/Src/stm32f4xx_ll_fmc.c **** {
 436              		.loc 1 508 1 is_stmt 1 view -0
 437              		.cfi_startproc
 438              		@ args = 0, pretend = 0, frame = 0
 439              		@ frame_needed = 0, uses_anonymous_args = 0
 440              		@ link register save eliminated.
 509:Drivers/STM32F4xx_HAL_Driver/Src/stm32f4xx_ll_fmc.c ****   /* Check the parameters */
 510:Drivers/STM32F4xx_HAL_Driver/Src/stm32f4xx_ll_fmc.c ****   assert_param(IS_FMC_NORSRAM_DEVICE(Device));
ARM GAS  C:\Users\stefa\AppData\Local\Temp\ccMreSci.s 			page 18


 441              		.loc 1 510 3 view .LVU145
 511:Drivers/STM32F4xx_HAL_Driver/Src/stm32f4xx_ll_fmc.c ****   assert_param(IS_FMC_NORSRAM_BANK(Bank));
 442              		.loc 1 511 3 view .LVU146
 512:Drivers/STM32F4xx_HAL_Driver/Src/stm32f4xx_ll_fmc.c **** 
 513:Drivers/STM32F4xx_HAL_Driver/Src/stm32f4xx_ll_fmc.c ****   /* Enable write operation */
 514:Drivers/STM32F4xx_HAL_Driver/Src/stm32f4xx_ll_fmc.c ****   SET_BIT(Device->BTCR[Bank], FMC_WRITE_OPERATION_ENABLE);
 443              		.loc 1 514 3 view .LVU147
 444 0000 50F82130 		ldr	r3, [r0, r1, lsl #2]
 445 0004 43F48053 		orr	r3, r3, #4096
 446 0008 40F82130 		str	r3, [r0, r1, lsl #2]
 515:Drivers/STM32F4xx_HAL_Driver/Src/stm32f4xx_ll_fmc.c **** 
 516:Drivers/STM32F4xx_HAL_Driver/Src/stm32f4xx_ll_fmc.c ****   return HAL_OK;
 447              		.loc 1 516 3 view .LVU148
 517:Drivers/STM32F4xx_HAL_Driver/Src/stm32f4xx_ll_fmc.c **** }
 448              		.loc 1 517 1 is_stmt 0 view .LVU149
 449 000c 0020     		movs	r0, #0
 450              	.LVL29:
 451              		.loc 1 517 1 view .LVU150
 452 000e 7047     		bx	lr
 453              		.cfi_endproc
 454              	.LFE134:
 456              		.section	.text.FMC_NORSRAM_WriteOperation_Disable,"ax",%progbits
 457              		.align	1
 458              		.global	FMC_NORSRAM_WriteOperation_Disable
 459              		.syntax unified
 460              		.thumb
 461              		.thumb_func
 463              	FMC_NORSRAM_WriteOperation_Disable:
 464              	.LVL30:
 465              	.LFB135:
 518:Drivers/STM32F4xx_HAL_Driver/Src/stm32f4xx_ll_fmc.c **** 
 519:Drivers/STM32F4xx_HAL_Driver/Src/stm32f4xx_ll_fmc.c **** /**
 520:Drivers/STM32F4xx_HAL_Driver/Src/stm32f4xx_ll_fmc.c ****   * @brief  Disables dynamically FMC_NORSRAM write operation.
 521:Drivers/STM32F4xx_HAL_Driver/Src/stm32f4xx_ll_fmc.c ****   * @param  Device Pointer to NORSRAM device instance
 522:Drivers/STM32F4xx_HAL_Driver/Src/stm32f4xx_ll_fmc.c ****   * @param  Bank NORSRAM bank number
 523:Drivers/STM32F4xx_HAL_Driver/Src/stm32f4xx_ll_fmc.c ****   * @retval HAL status
 524:Drivers/STM32F4xx_HAL_Driver/Src/stm32f4xx_ll_fmc.c ****   */
 525:Drivers/STM32F4xx_HAL_Driver/Src/stm32f4xx_ll_fmc.c **** HAL_StatusTypeDef FMC_NORSRAM_WriteOperation_Disable(FMC_NORSRAM_TypeDef *Device, uint32_t Bank)
 526:Drivers/STM32F4xx_HAL_Driver/Src/stm32f4xx_ll_fmc.c **** {
 466              		.loc 1 526 1 is_stmt 1 view -0
 467              		.cfi_startproc
 468              		@ args = 0, pretend = 0, frame = 0
 469              		@ frame_needed = 0, uses_anonymous_args = 0
 470              		@ link register save eliminated.
 527:Drivers/STM32F4xx_HAL_Driver/Src/stm32f4xx_ll_fmc.c ****   /* Check the parameters */
 528:Drivers/STM32F4xx_HAL_Driver/Src/stm32f4xx_ll_fmc.c ****   assert_param(IS_FMC_NORSRAM_DEVICE(Device));
 471              		.loc 1 528 3 view .LVU152
 529:Drivers/STM32F4xx_HAL_Driver/Src/stm32f4xx_ll_fmc.c ****   assert_param(IS_FMC_NORSRAM_BANK(Bank));
 472              		.loc 1 529 3 view .LVU153
 530:Drivers/STM32F4xx_HAL_Driver/Src/stm32f4xx_ll_fmc.c **** 
 531:Drivers/STM32F4xx_HAL_Driver/Src/stm32f4xx_ll_fmc.c ****   /* Disable write operation */
 532:Drivers/STM32F4xx_HAL_Driver/Src/stm32f4xx_ll_fmc.c ****   CLEAR_BIT(Device->BTCR[Bank], FMC_WRITE_OPERATION_ENABLE);
 473              		.loc 1 532 3 view .LVU154
 474 0000 50F82130 		ldr	r3, [r0, r1, lsl #2]
 475 0004 23F48053 		bic	r3, r3, #4096
 476 0008 40F82130 		str	r3, [r0, r1, lsl #2]
 533:Drivers/STM32F4xx_HAL_Driver/Src/stm32f4xx_ll_fmc.c **** 
ARM GAS  C:\Users\stefa\AppData\Local\Temp\ccMreSci.s 			page 19


 534:Drivers/STM32F4xx_HAL_Driver/Src/stm32f4xx_ll_fmc.c ****   return HAL_OK;
 477              		.loc 1 534 3 view .LVU155
 535:Drivers/STM32F4xx_HAL_Driver/Src/stm32f4xx_ll_fmc.c **** }
 478              		.loc 1 535 1 is_stmt 0 view .LVU156
 479 000c 0020     		movs	r0, #0
 480              	.LVL31:
 481              		.loc 1 535 1 view .LVU157
 482 000e 7047     		bx	lr
 483              		.cfi_endproc
 484              	.LFE135:
 486              		.section	.text.FMC_NAND_Init,"ax",%progbits
 487              		.align	1
 488              		.global	FMC_NAND_Init
 489              		.syntax unified
 490              		.thumb
 491              		.thumb_func
 493              	FMC_NAND_Init:
 494              	.LVL32:
 495              	.LFB136:
 536:Drivers/STM32F4xx_HAL_Driver/Src/stm32f4xx_ll_fmc.c **** 
 537:Drivers/STM32F4xx_HAL_Driver/Src/stm32f4xx_ll_fmc.c **** /**
 538:Drivers/STM32F4xx_HAL_Driver/Src/stm32f4xx_ll_fmc.c ****   * @}
 539:Drivers/STM32F4xx_HAL_Driver/Src/stm32f4xx_ll_fmc.c ****   */
 540:Drivers/STM32F4xx_HAL_Driver/Src/stm32f4xx_ll_fmc.c **** 
 541:Drivers/STM32F4xx_HAL_Driver/Src/stm32f4xx_ll_fmc.c **** /**
 542:Drivers/STM32F4xx_HAL_Driver/Src/stm32f4xx_ll_fmc.c ****   * @}
 543:Drivers/STM32F4xx_HAL_Driver/Src/stm32f4xx_ll_fmc.c ****   */
 544:Drivers/STM32F4xx_HAL_Driver/Src/stm32f4xx_ll_fmc.c **** #endif /* FMC_Bank1 */
 545:Drivers/STM32F4xx_HAL_Driver/Src/stm32f4xx_ll_fmc.c **** 
 546:Drivers/STM32F4xx_HAL_Driver/Src/stm32f4xx_ll_fmc.c **** #if defined(FMC_Bank3) || defined(FMC_Bank2_3)
 547:Drivers/STM32F4xx_HAL_Driver/Src/stm32f4xx_ll_fmc.c **** 
 548:Drivers/STM32F4xx_HAL_Driver/Src/stm32f4xx_ll_fmc.c **** /** @defgroup FMC_LL_Exported_Functions_NAND FMC Low Layer NAND Exported Functions
 549:Drivers/STM32F4xx_HAL_Driver/Src/stm32f4xx_ll_fmc.c ****   * @brief    NAND Controller functions
 550:Drivers/STM32F4xx_HAL_Driver/Src/stm32f4xx_ll_fmc.c ****   *
 551:Drivers/STM32F4xx_HAL_Driver/Src/stm32f4xx_ll_fmc.c ****   @verbatim
 552:Drivers/STM32F4xx_HAL_Driver/Src/stm32f4xx_ll_fmc.c ****   ==============================================================================
 553:Drivers/STM32F4xx_HAL_Driver/Src/stm32f4xx_ll_fmc.c ****                     ##### How to use NAND device driver #####
 554:Drivers/STM32F4xx_HAL_Driver/Src/stm32f4xx_ll_fmc.c ****   ==============================================================================
 555:Drivers/STM32F4xx_HAL_Driver/Src/stm32f4xx_ll_fmc.c ****   [..]
 556:Drivers/STM32F4xx_HAL_Driver/Src/stm32f4xx_ll_fmc.c ****     This driver contains a set of APIs to interface with the FMC NAND banks in order
 557:Drivers/STM32F4xx_HAL_Driver/Src/stm32f4xx_ll_fmc.c ****     to run the NAND external devices.
 558:Drivers/STM32F4xx_HAL_Driver/Src/stm32f4xx_ll_fmc.c **** 
 559:Drivers/STM32F4xx_HAL_Driver/Src/stm32f4xx_ll_fmc.c ****     (+) FMC NAND bank reset using the function FMC_NAND_DeInit()
 560:Drivers/STM32F4xx_HAL_Driver/Src/stm32f4xx_ll_fmc.c ****     (+) FMC NAND bank control configuration using the function FMC_NAND_Init()
 561:Drivers/STM32F4xx_HAL_Driver/Src/stm32f4xx_ll_fmc.c ****     (+) FMC NAND bank common space timing configuration using the function
 562:Drivers/STM32F4xx_HAL_Driver/Src/stm32f4xx_ll_fmc.c ****         FMC_NAND_CommonSpace_Timing_Init()
 563:Drivers/STM32F4xx_HAL_Driver/Src/stm32f4xx_ll_fmc.c ****     (+) FMC NAND bank attribute space timing configuration using the function
 564:Drivers/STM32F4xx_HAL_Driver/Src/stm32f4xx_ll_fmc.c ****         FMC_NAND_AttributeSpace_Timing_Init()
 565:Drivers/STM32F4xx_HAL_Driver/Src/stm32f4xx_ll_fmc.c ****     (+) FMC NAND bank enable/disable ECC correction feature using the functions
 566:Drivers/STM32F4xx_HAL_Driver/Src/stm32f4xx_ll_fmc.c ****         FMC_NAND_ECC_Enable()/FMC_NAND_ECC_Disable()
 567:Drivers/STM32F4xx_HAL_Driver/Src/stm32f4xx_ll_fmc.c ****     (+) FMC NAND bank get ECC correction code using the function FMC_NAND_GetECC()
 568:Drivers/STM32F4xx_HAL_Driver/Src/stm32f4xx_ll_fmc.c **** 
 569:Drivers/STM32F4xx_HAL_Driver/Src/stm32f4xx_ll_fmc.c **** @endverbatim
 570:Drivers/STM32F4xx_HAL_Driver/Src/stm32f4xx_ll_fmc.c ****   * @{
 571:Drivers/STM32F4xx_HAL_Driver/Src/stm32f4xx_ll_fmc.c ****   */
 572:Drivers/STM32F4xx_HAL_Driver/Src/stm32f4xx_ll_fmc.c **** 
 573:Drivers/STM32F4xx_HAL_Driver/Src/stm32f4xx_ll_fmc.c **** /** @defgroup FMC_LL_NAND_Exported_Functions_Group1 Initialization and de-initialization functions
ARM GAS  C:\Users\stefa\AppData\Local\Temp\ccMreSci.s 			page 20


 574:Drivers/STM32F4xx_HAL_Driver/Src/stm32f4xx_ll_fmc.c ****   *  @brief    Initialization and Configuration functions
 575:Drivers/STM32F4xx_HAL_Driver/Src/stm32f4xx_ll_fmc.c ****   *
 576:Drivers/STM32F4xx_HAL_Driver/Src/stm32f4xx_ll_fmc.c **** @verbatim
 577:Drivers/STM32F4xx_HAL_Driver/Src/stm32f4xx_ll_fmc.c ****   ==============================================================================
 578:Drivers/STM32F4xx_HAL_Driver/Src/stm32f4xx_ll_fmc.c ****               ##### Initialization and de_initialization functions #####
 579:Drivers/STM32F4xx_HAL_Driver/Src/stm32f4xx_ll_fmc.c ****   ==============================================================================
 580:Drivers/STM32F4xx_HAL_Driver/Src/stm32f4xx_ll_fmc.c ****   [..]
 581:Drivers/STM32F4xx_HAL_Driver/Src/stm32f4xx_ll_fmc.c ****     This section provides functions allowing to:
 582:Drivers/STM32F4xx_HAL_Driver/Src/stm32f4xx_ll_fmc.c ****     (+) Initialize and configure the FMC NAND interface
 583:Drivers/STM32F4xx_HAL_Driver/Src/stm32f4xx_ll_fmc.c ****     (+) De-initialize the FMC NAND interface
 584:Drivers/STM32F4xx_HAL_Driver/Src/stm32f4xx_ll_fmc.c ****     (+) Configure the FMC clock and associated GPIOs
 585:Drivers/STM32F4xx_HAL_Driver/Src/stm32f4xx_ll_fmc.c **** 
 586:Drivers/STM32F4xx_HAL_Driver/Src/stm32f4xx_ll_fmc.c **** @endverbatim
 587:Drivers/STM32F4xx_HAL_Driver/Src/stm32f4xx_ll_fmc.c ****   * @{
 588:Drivers/STM32F4xx_HAL_Driver/Src/stm32f4xx_ll_fmc.c ****   */
 589:Drivers/STM32F4xx_HAL_Driver/Src/stm32f4xx_ll_fmc.c **** 
 590:Drivers/STM32F4xx_HAL_Driver/Src/stm32f4xx_ll_fmc.c **** /**
 591:Drivers/STM32F4xx_HAL_Driver/Src/stm32f4xx_ll_fmc.c ****   * @brief  Initializes the FMC_NAND device according to the specified
 592:Drivers/STM32F4xx_HAL_Driver/Src/stm32f4xx_ll_fmc.c ****   *         control parameters in the FMC_NAND_HandleTypeDef
 593:Drivers/STM32F4xx_HAL_Driver/Src/stm32f4xx_ll_fmc.c ****   * @param  Device Pointer to NAND device instance
 594:Drivers/STM32F4xx_HAL_Driver/Src/stm32f4xx_ll_fmc.c ****   * @param  Init Pointer to NAND Initialization structure
 595:Drivers/STM32F4xx_HAL_Driver/Src/stm32f4xx_ll_fmc.c ****   * @retval HAL status
 596:Drivers/STM32F4xx_HAL_Driver/Src/stm32f4xx_ll_fmc.c ****   */
 597:Drivers/STM32F4xx_HAL_Driver/Src/stm32f4xx_ll_fmc.c **** HAL_StatusTypeDef FMC_NAND_Init(FMC_NAND_TypeDef *Device, FMC_NAND_InitTypeDef *Init)
 598:Drivers/STM32F4xx_HAL_Driver/Src/stm32f4xx_ll_fmc.c **** {
 496              		.loc 1 598 1 is_stmt 1 view -0
 497              		.cfi_startproc
 498              		@ args = 0, pretend = 0, frame = 0
 499              		@ frame_needed = 0, uses_anonymous_args = 0
 500              		@ link register save eliminated.
 501              		.loc 1 598 1 is_stmt 0 view .LVU159
 502 0000 10B4     		push	{r4}
 503              	.LCFI6:
 504              		.cfi_def_cfa_offset 4
 505              		.cfi_offset 4, -4
 599:Drivers/STM32F4xx_HAL_Driver/Src/stm32f4xx_ll_fmc.c ****   /* Check the parameters */
 600:Drivers/STM32F4xx_HAL_Driver/Src/stm32f4xx_ll_fmc.c ****   assert_param(IS_FMC_NAND_DEVICE(Device));
 506              		.loc 1 600 3 is_stmt 1 view .LVU160
 601:Drivers/STM32F4xx_HAL_Driver/Src/stm32f4xx_ll_fmc.c ****   assert_param(IS_FMC_NAND_BANK(Init->NandBank));
 507              		.loc 1 601 3 view .LVU161
 602:Drivers/STM32F4xx_HAL_Driver/Src/stm32f4xx_ll_fmc.c ****   assert_param(IS_FMC_WAIT_FEATURE(Init->Waitfeature));
 508              		.loc 1 602 3 view .LVU162
 603:Drivers/STM32F4xx_HAL_Driver/Src/stm32f4xx_ll_fmc.c ****   assert_param(IS_FMC_NAND_MEMORY_WIDTH(Init->MemoryDataWidth));
 509              		.loc 1 603 3 view .LVU163
 604:Drivers/STM32F4xx_HAL_Driver/Src/stm32f4xx_ll_fmc.c ****   assert_param(IS_FMC_ECC_STATE(Init->EccComputation));
 510              		.loc 1 604 3 view .LVU164
 605:Drivers/STM32F4xx_HAL_Driver/Src/stm32f4xx_ll_fmc.c ****   assert_param(IS_FMC_ECCPAGE_SIZE(Init->ECCPageSize));
 511              		.loc 1 605 3 view .LVU165
 606:Drivers/STM32F4xx_HAL_Driver/Src/stm32f4xx_ll_fmc.c ****   assert_param(IS_FMC_TCLR_TIME(Init->TCLRSetupTime));
 512              		.loc 1 606 3 view .LVU166
 607:Drivers/STM32F4xx_HAL_Driver/Src/stm32f4xx_ll_fmc.c ****   assert_param(IS_FMC_TAR_TIME(Init->TARSetupTime));
 513              		.loc 1 607 3 view .LVU167
 608:Drivers/STM32F4xx_HAL_Driver/Src/stm32f4xx_ll_fmc.c **** 
 609:Drivers/STM32F4xx_HAL_Driver/Src/stm32f4xx_ll_fmc.c **** #if defined(FMC_Bank2_3)
 610:Drivers/STM32F4xx_HAL_Driver/Src/stm32f4xx_ll_fmc.c ****   /* Set NAND device control parameters */
 611:Drivers/STM32F4xx_HAL_Driver/Src/stm32f4xx_ll_fmc.c ****   if (Init->NandBank == FMC_NAND_BANK2)
 514              		.loc 1 611 3 view .LVU168
ARM GAS  C:\Users\stefa\AppData\Local\Temp\ccMreSci.s 			page 21


 515              		.loc 1 611 11 is_stmt 0 view .LVU169
 516 0002 0B68     		ldr	r3, [r1]
 517              		.loc 1 611 6 view .LVU170
 518 0004 102B     		cmp	r3, #16
 519 0006 17D0     		beq	.L32
 612:Drivers/STM32F4xx_HAL_Driver/Src/stm32f4xx_ll_fmc.c ****   {
 613:Drivers/STM32F4xx_HAL_Driver/Src/stm32f4xx_ll_fmc.c ****     /* NAND bank 2 registers configuration */
 614:Drivers/STM32F4xx_HAL_Driver/Src/stm32f4xx_ll_fmc.c ****     MODIFY_REG(Device->PCR2, PCR_CLEAR_MASK, (Init->Waitfeature                                    
 615:Drivers/STM32F4xx_HAL_Driver/Src/stm32f4xx_ll_fmc.c ****                                               FMC_PCR_MEMORY_TYPE_NAND                             
 616:Drivers/STM32F4xx_HAL_Driver/Src/stm32f4xx_ll_fmc.c ****                                               Init->MemoryDataWidth                                
 617:Drivers/STM32F4xx_HAL_Driver/Src/stm32f4xx_ll_fmc.c ****                                               Init->EccComputation                                 
 618:Drivers/STM32F4xx_HAL_Driver/Src/stm32f4xx_ll_fmc.c ****                                               Init->ECCPageSize                                    
 619:Drivers/STM32F4xx_HAL_Driver/Src/stm32f4xx_ll_fmc.c ****                                               ((Init->TCLRSetupTime) << FMC_PCR2_TCLR_Pos)  |
 620:Drivers/STM32F4xx_HAL_Driver/Src/stm32f4xx_ll_fmc.c ****                                               ((Init->TARSetupTime)  << FMC_PCR2_TAR_Pos)));
 621:Drivers/STM32F4xx_HAL_Driver/Src/stm32f4xx_ll_fmc.c ****   }
 622:Drivers/STM32F4xx_HAL_Driver/Src/stm32f4xx_ll_fmc.c ****   else
 623:Drivers/STM32F4xx_HAL_Driver/Src/stm32f4xx_ll_fmc.c ****   {
 624:Drivers/STM32F4xx_HAL_Driver/Src/stm32f4xx_ll_fmc.c ****     /* NAND bank 3 registers configuration */
 625:Drivers/STM32F4xx_HAL_Driver/Src/stm32f4xx_ll_fmc.c ****     MODIFY_REG(Device->PCR3, PCR_CLEAR_MASK, (Init->Waitfeature                                    
 520              		.loc 1 625 5 is_stmt 1 view .LVU171
 521 0008 036A     		ldr	r3, [r0, #32]
 522 000a 164A     		ldr	r2, .L33
 523 000c 1A40     		ands	r2, r2, r3
 524 000e 4B68     		ldr	r3, [r1, #4]
 525 0010 8C68     		ldr	r4, [r1, #8]
 526 0012 2343     		orrs	r3, r3, r4
 527 0014 CC68     		ldr	r4, [r1, #12]
 528 0016 2343     		orrs	r3, r3, r4
 529 0018 0C69     		ldr	r4, [r1, #16]
 530 001a 2343     		orrs	r3, r3, r4
 531 001c 4C69     		ldr	r4, [r1, #20]
 532 001e 43EA4423 		orr	r3, r3, r4, lsl #9
 533 0022 8969     		ldr	r1, [r1, #24]
 534              	.LVL33:
 535              		.loc 1 625 5 is_stmt 0 view .LVU172
 536 0024 43EA4133 		orr	r3, r3, r1, lsl #13
 537 0028 1A43     		orrs	r2, r2, r3
 538 002a 42F00802 		orr	r2, r2, #8
 539 002e 0262     		str	r2, [r0, #32]
 540              	.L30:
 626:Drivers/STM32F4xx_HAL_Driver/Src/stm32f4xx_ll_fmc.c ****                                               FMC_PCR_MEMORY_TYPE_NAND                             
 627:Drivers/STM32F4xx_HAL_Driver/Src/stm32f4xx_ll_fmc.c ****                                               Init->MemoryDataWidth                                
 628:Drivers/STM32F4xx_HAL_Driver/Src/stm32f4xx_ll_fmc.c ****                                               Init->EccComputation                                 
 629:Drivers/STM32F4xx_HAL_Driver/Src/stm32f4xx_ll_fmc.c ****                                               Init->ECCPageSize                                    
 630:Drivers/STM32F4xx_HAL_Driver/Src/stm32f4xx_ll_fmc.c ****                                               ((Init->TCLRSetupTime) << FMC_PCR2_TCLR_Pos)  |
 631:Drivers/STM32F4xx_HAL_Driver/Src/stm32f4xx_ll_fmc.c ****                                               ((Init->TARSetupTime)  << FMC_PCR2_TAR_Pos)));
 632:Drivers/STM32F4xx_HAL_Driver/Src/stm32f4xx_ll_fmc.c ****   }
 633:Drivers/STM32F4xx_HAL_Driver/Src/stm32f4xx_ll_fmc.c **** #else
 634:Drivers/STM32F4xx_HAL_Driver/Src/stm32f4xx_ll_fmc.c ****   /* NAND bank 3 registers configuration */
 635:Drivers/STM32F4xx_HAL_Driver/Src/stm32f4xx_ll_fmc.c ****   MODIFY_REG(Device->PCR, PCR_CLEAR_MASK, (Init->Waitfeature                            |
 636:Drivers/STM32F4xx_HAL_Driver/Src/stm32f4xx_ll_fmc.c ****                                            FMC_PCR_MEMORY_TYPE_NAND                     |
 637:Drivers/STM32F4xx_HAL_Driver/Src/stm32f4xx_ll_fmc.c ****                                            Init->MemoryDataWidth                        |
 638:Drivers/STM32F4xx_HAL_Driver/Src/stm32f4xx_ll_fmc.c ****                                            Init->EccComputation                         |
 639:Drivers/STM32F4xx_HAL_Driver/Src/stm32f4xx_ll_fmc.c ****                                            Init->ECCPageSize                            |
 640:Drivers/STM32F4xx_HAL_Driver/Src/stm32f4xx_ll_fmc.c ****                                            ((Init->TCLRSetupTime) << FMC_PCR_TCLR_Pos)  |
 641:Drivers/STM32F4xx_HAL_Driver/Src/stm32f4xx_ll_fmc.c ****                                            ((Init->TARSetupTime)  << FMC_PCR_TAR_Pos)));
 642:Drivers/STM32F4xx_HAL_Driver/Src/stm32f4xx_ll_fmc.c **** #endif
ARM GAS  C:\Users\stefa\AppData\Local\Temp\ccMreSci.s 			page 22


 643:Drivers/STM32F4xx_HAL_Driver/Src/stm32f4xx_ll_fmc.c **** 
 644:Drivers/STM32F4xx_HAL_Driver/Src/stm32f4xx_ll_fmc.c ****   return HAL_OK;
 541              		.loc 1 644 3 is_stmt 1 view .LVU173
 645:Drivers/STM32F4xx_HAL_Driver/Src/stm32f4xx_ll_fmc.c **** }
 542              		.loc 1 645 1 is_stmt 0 view .LVU174
 543 0030 0020     		movs	r0, #0
 544              	.LVL34:
 545              		.loc 1 645 1 view .LVU175
 546 0032 5DF8044B 		ldr	r4, [sp], #4
 547              	.LCFI7:
 548              		.cfi_remember_state
 549              		.cfi_restore 4
 550              		.cfi_def_cfa_offset 0
 551 0036 7047     		bx	lr
 552              	.LVL35:
 553              	.L32:
 554              	.LCFI8:
 555              		.cfi_restore_state
 614:Drivers/STM32F4xx_HAL_Driver/Src/stm32f4xx_ll_fmc.c ****                                               FMC_PCR_MEMORY_TYPE_NAND                             
 556              		.loc 1 614 5 is_stmt 1 view .LVU176
 557 0038 0368     		ldr	r3, [r0]
 558 003a 0A4A     		ldr	r2, .L33
 559 003c 1A40     		ands	r2, r2, r3
 560 003e 4B68     		ldr	r3, [r1, #4]
 561 0040 8C68     		ldr	r4, [r1, #8]
 562 0042 2343     		orrs	r3, r3, r4
 563 0044 CC68     		ldr	r4, [r1, #12]
 564 0046 2343     		orrs	r3, r3, r4
 565 0048 0C69     		ldr	r4, [r1, #16]
 566 004a 2343     		orrs	r3, r3, r4
 567 004c 4C69     		ldr	r4, [r1, #20]
 568 004e 43EA4423 		orr	r3, r3, r4, lsl #9
 569 0052 8969     		ldr	r1, [r1, #24]
 570              	.LVL36:
 614:Drivers/STM32F4xx_HAL_Driver/Src/stm32f4xx_ll_fmc.c ****                                               FMC_PCR_MEMORY_TYPE_NAND                             
 571              		.loc 1 614 5 is_stmt 0 view .LVU177
 572 0054 43EA4133 		orr	r3, r3, r1, lsl #13
 573 0058 1A43     		orrs	r2, r2, r3
 574 005a 42F00802 		orr	r2, r2, #8
 575 005e 0260     		str	r2, [r0]
 576 0060 E6E7     		b	.L30
 577              	.L34:
 578 0062 00BF     		.align	2
 579              	.L33:
 580 0064 8101F0FF 		.word	-1048191
 581              		.cfi_endproc
 582              	.LFE136:
 584              		.section	.text.FMC_NAND_CommonSpace_Timing_Init,"ax",%progbits
 585              		.align	1
 586              		.global	FMC_NAND_CommonSpace_Timing_Init
 587              		.syntax unified
 588              		.thumb
 589              		.thumb_func
 591              	FMC_NAND_CommonSpace_Timing_Init:
 592              	.LVL37:
 593              	.LFB137:
 646:Drivers/STM32F4xx_HAL_Driver/Src/stm32f4xx_ll_fmc.c **** 
ARM GAS  C:\Users\stefa\AppData\Local\Temp\ccMreSci.s 			page 23


 647:Drivers/STM32F4xx_HAL_Driver/Src/stm32f4xx_ll_fmc.c **** /**
 648:Drivers/STM32F4xx_HAL_Driver/Src/stm32f4xx_ll_fmc.c ****   * @brief  Initializes the FMC_NAND Common space Timing according to the specified
 649:Drivers/STM32F4xx_HAL_Driver/Src/stm32f4xx_ll_fmc.c ****   *         parameters in the FMC_NAND_PCC_TimingTypeDef
 650:Drivers/STM32F4xx_HAL_Driver/Src/stm32f4xx_ll_fmc.c ****   * @param  Device Pointer to NAND device instance
 651:Drivers/STM32F4xx_HAL_Driver/Src/stm32f4xx_ll_fmc.c ****   * @param  Timing Pointer to NAND timing structure
 652:Drivers/STM32F4xx_HAL_Driver/Src/stm32f4xx_ll_fmc.c ****   * @param  Bank NAND bank number
 653:Drivers/STM32F4xx_HAL_Driver/Src/stm32f4xx_ll_fmc.c ****   * @retval HAL status
 654:Drivers/STM32F4xx_HAL_Driver/Src/stm32f4xx_ll_fmc.c ****   */
 655:Drivers/STM32F4xx_HAL_Driver/Src/stm32f4xx_ll_fmc.c **** HAL_StatusTypeDef FMC_NAND_CommonSpace_Timing_Init(FMC_NAND_TypeDef *Device,
 656:Drivers/STM32F4xx_HAL_Driver/Src/stm32f4xx_ll_fmc.c ****                                                    FMC_NAND_PCC_TimingTypeDef *Timing, uint32_t Ban
 657:Drivers/STM32F4xx_HAL_Driver/Src/stm32f4xx_ll_fmc.c **** {
 594              		.loc 1 657 1 is_stmt 1 view -0
 595              		.cfi_startproc
 596              		@ args = 0, pretend = 0, frame = 0
 597              		@ frame_needed = 0, uses_anonymous_args = 0
 598              		@ link register save eliminated.
 658:Drivers/STM32F4xx_HAL_Driver/Src/stm32f4xx_ll_fmc.c ****   /* Check the parameters */
 659:Drivers/STM32F4xx_HAL_Driver/Src/stm32f4xx_ll_fmc.c ****   assert_param(IS_FMC_NAND_DEVICE(Device));
 599              		.loc 1 659 3 view .LVU179
 660:Drivers/STM32F4xx_HAL_Driver/Src/stm32f4xx_ll_fmc.c ****   assert_param(IS_FMC_SETUP_TIME(Timing->SetupTime));
 600              		.loc 1 660 3 view .LVU180
 661:Drivers/STM32F4xx_HAL_Driver/Src/stm32f4xx_ll_fmc.c ****   assert_param(IS_FMC_WAIT_TIME(Timing->WaitSetupTime));
 601              		.loc 1 661 3 view .LVU181
 662:Drivers/STM32F4xx_HAL_Driver/Src/stm32f4xx_ll_fmc.c ****   assert_param(IS_FMC_HOLD_TIME(Timing->HoldSetupTime));
 602              		.loc 1 662 3 view .LVU182
 663:Drivers/STM32F4xx_HAL_Driver/Src/stm32f4xx_ll_fmc.c ****   assert_param(IS_FMC_HIZ_TIME(Timing->HiZSetupTime));
 603              		.loc 1 663 3 view .LVU183
 664:Drivers/STM32F4xx_HAL_Driver/Src/stm32f4xx_ll_fmc.c ****   assert_param(IS_FMC_NAND_BANK(Bank));
 604              		.loc 1 664 3 view .LVU184
 665:Drivers/STM32F4xx_HAL_Driver/Src/stm32f4xx_ll_fmc.c **** 
 666:Drivers/STM32F4xx_HAL_Driver/Src/stm32f4xx_ll_fmc.c **** #if defined(FMC_Bank2_3)
 667:Drivers/STM32F4xx_HAL_Driver/Src/stm32f4xx_ll_fmc.c ****   /* Set FMC_NAND device timing parameters */
 668:Drivers/STM32F4xx_HAL_Driver/Src/stm32f4xx_ll_fmc.c ****   if (Bank == FMC_NAND_BANK2)
 605              		.loc 1 668 3 view .LVU185
 606              		.loc 1 668 6 is_stmt 0 view .LVU186
 607 0000 102A     		cmp	r2, #16
 608 0002 0DD0     		beq	.L38
 669:Drivers/STM32F4xx_HAL_Driver/Src/stm32f4xx_ll_fmc.c ****   {
 670:Drivers/STM32F4xx_HAL_Driver/Src/stm32f4xx_ll_fmc.c ****     /* NAND bank 2 registers configuration */
 671:Drivers/STM32F4xx_HAL_Driver/Src/stm32f4xx_ll_fmc.c ****     MODIFY_REG(Device->PMEM2, PMEM_CLEAR_MASK, (Timing->SetupTime                                  
 672:Drivers/STM32F4xx_HAL_Driver/Src/stm32f4xx_ll_fmc.c ****                                                 ((Timing->WaitSetupTime) << FMC_PMEM2_MEMWAIT2_Pos)
 673:Drivers/STM32F4xx_HAL_Driver/Src/stm32f4xx_ll_fmc.c ****                                                 ((Timing->HoldSetupTime) << FMC_PMEM2_MEMHOLD2_Pos)
 674:Drivers/STM32F4xx_HAL_Driver/Src/stm32f4xx_ll_fmc.c ****                                                 ((Timing->HiZSetupTime)  << FMC_PMEM2_MEMHIZ2_Pos))
 675:Drivers/STM32F4xx_HAL_Driver/Src/stm32f4xx_ll_fmc.c ****   }
 676:Drivers/STM32F4xx_HAL_Driver/Src/stm32f4xx_ll_fmc.c ****   else
 677:Drivers/STM32F4xx_HAL_Driver/Src/stm32f4xx_ll_fmc.c ****   {
 678:Drivers/STM32F4xx_HAL_Driver/Src/stm32f4xx_ll_fmc.c ****     /* NAND bank 3 registers configuration */
 679:Drivers/STM32F4xx_HAL_Driver/Src/stm32f4xx_ll_fmc.c ****     MODIFY_REG(Device->PMEM3, PMEM_CLEAR_MASK, (Timing->SetupTime                                  
 609              		.loc 1 679 5 is_stmt 1 view .LVU187
 610 0004 836A     		ldr	r3, [r0, #40]
 611 0006 0B68     		ldr	r3, [r1]
 612 0008 4A68     		ldr	r2, [r1, #4]
 613              	.LVL38:
 614              		.loc 1 679 5 is_stmt 0 view .LVU188
 615 000a 43EA0223 		orr	r3, r3, r2, lsl #8
 616 000e 8A68     		ldr	r2, [r1, #8]
 617 0010 43EA0243 		orr	r3, r3, r2, lsl #16
ARM GAS  C:\Users\stefa\AppData\Local\Temp\ccMreSci.s 			page 24


 618 0014 CA68     		ldr	r2, [r1, #12]
 619 0016 43EA0263 		orr	r3, r3, r2, lsl #24
 620 001a 8362     		str	r3, [r0, #40]
 621              	.L37:
 680:Drivers/STM32F4xx_HAL_Driver/Src/stm32f4xx_ll_fmc.c ****                                                 ((Timing->WaitSetupTime) << FMC_PMEM2_MEMWAIT2_Pos)
 681:Drivers/STM32F4xx_HAL_Driver/Src/stm32f4xx_ll_fmc.c ****                                                 ((Timing->HoldSetupTime) << FMC_PMEM2_MEMHOLD2_Pos)
 682:Drivers/STM32F4xx_HAL_Driver/Src/stm32f4xx_ll_fmc.c ****                                                 ((Timing->HiZSetupTime)  << FMC_PMEM2_MEMHIZ2_Pos))
 683:Drivers/STM32F4xx_HAL_Driver/Src/stm32f4xx_ll_fmc.c ****   }
 684:Drivers/STM32F4xx_HAL_Driver/Src/stm32f4xx_ll_fmc.c **** #else
 685:Drivers/STM32F4xx_HAL_Driver/Src/stm32f4xx_ll_fmc.c ****   /* Prevent unused argument(s) compilation warning if no assert_param check */
 686:Drivers/STM32F4xx_HAL_Driver/Src/stm32f4xx_ll_fmc.c ****   UNUSED(Bank);
 687:Drivers/STM32F4xx_HAL_Driver/Src/stm32f4xx_ll_fmc.c **** 
 688:Drivers/STM32F4xx_HAL_Driver/Src/stm32f4xx_ll_fmc.c ****   /* NAND bank 3 registers configuration */
 689:Drivers/STM32F4xx_HAL_Driver/Src/stm32f4xx_ll_fmc.c ****   MODIFY_REG(Device->PMEM, PMEM_CLEAR_MASK, (Timing->SetupTime                                 |
 690:Drivers/STM32F4xx_HAL_Driver/Src/stm32f4xx_ll_fmc.c ****                                              ((Timing->WaitSetupTime) << FMC_PMEM_MEMWAIT2_Pos) |
 691:Drivers/STM32F4xx_HAL_Driver/Src/stm32f4xx_ll_fmc.c ****                                              ((Timing->HoldSetupTime) << FMC_PMEM_MEMHOLD2_Pos) |
 692:Drivers/STM32F4xx_HAL_Driver/Src/stm32f4xx_ll_fmc.c ****                                              ((Timing->HiZSetupTime)  << FMC_PMEM_MEMHIZ2_Pos)));
 693:Drivers/STM32F4xx_HAL_Driver/Src/stm32f4xx_ll_fmc.c **** #endif
 694:Drivers/STM32F4xx_HAL_Driver/Src/stm32f4xx_ll_fmc.c **** 
 695:Drivers/STM32F4xx_HAL_Driver/Src/stm32f4xx_ll_fmc.c ****   return HAL_OK;
 622              		.loc 1 695 3 is_stmt 1 view .LVU189
 696:Drivers/STM32F4xx_HAL_Driver/Src/stm32f4xx_ll_fmc.c **** }
 623              		.loc 1 696 1 is_stmt 0 view .LVU190
 624 001c 0020     		movs	r0, #0
 625              	.LVL39:
 626              		.loc 1 696 1 view .LVU191
 627 001e 7047     		bx	lr
 628              	.LVL40:
 629              	.L38:
 671:Drivers/STM32F4xx_HAL_Driver/Src/stm32f4xx_ll_fmc.c ****                                                 ((Timing->WaitSetupTime) << FMC_PMEM2_MEMWAIT2_Pos)
 630              		.loc 1 671 5 is_stmt 1 view .LVU192
 631 0020 8368     		ldr	r3, [r0, #8]
 632 0022 0B68     		ldr	r3, [r1]
 633 0024 4A68     		ldr	r2, [r1, #4]
 634              	.LVL41:
 671:Drivers/STM32F4xx_HAL_Driver/Src/stm32f4xx_ll_fmc.c ****                                                 ((Timing->WaitSetupTime) << FMC_PMEM2_MEMWAIT2_Pos)
 635              		.loc 1 671 5 is_stmt 0 view .LVU193
 636 0026 43EA0223 		orr	r3, r3, r2, lsl #8
 637 002a 8A68     		ldr	r2, [r1, #8]
 638 002c 43EA0243 		orr	r3, r3, r2, lsl #16
 639 0030 CA68     		ldr	r2, [r1, #12]
 640 0032 43EA0263 		orr	r3, r3, r2, lsl #24
 641 0036 8360     		str	r3, [r0, #8]
 642 0038 F0E7     		b	.L37
 643              		.cfi_endproc
 644              	.LFE137:
 646              		.section	.text.FMC_NAND_AttributeSpace_Timing_Init,"ax",%progbits
 647              		.align	1
 648              		.global	FMC_NAND_AttributeSpace_Timing_Init
 649              		.syntax unified
 650              		.thumb
 651              		.thumb_func
 653              	FMC_NAND_AttributeSpace_Timing_Init:
 654              	.LVL42:
 655              	.LFB138:
 697:Drivers/STM32F4xx_HAL_Driver/Src/stm32f4xx_ll_fmc.c **** 
 698:Drivers/STM32F4xx_HAL_Driver/Src/stm32f4xx_ll_fmc.c **** /**
ARM GAS  C:\Users\stefa\AppData\Local\Temp\ccMreSci.s 			page 25


 699:Drivers/STM32F4xx_HAL_Driver/Src/stm32f4xx_ll_fmc.c ****   * @brief  Initializes the FMC_NAND Attribute space Timing according to the specified
 700:Drivers/STM32F4xx_HAL_Driver/Src/stm32f4xx_ll_fmc.c ****   *         parameters in the FMC_NAND_PCC_TimingTypeDef
 701:Drivers/STM32F4xx_HAL_Driver/Src/stm32f4xx_ll_fmc.c ****   * @param  Device Pointer to NAND device instance
 702:Drivers/STM32F4xx_HAL_Driver/Src/stm32f4xx_ll_fmc.c ****   * @param  Timing Pointer to NAND timing structure
 703:Drivers/STM32F4xx_HAL_Driver/Src/stm32f4xx_ll_fmc.c ****   * @param  Bank NAND bank number
 704:Drivers/STM32F4xx_HAL_Driver/Src/stm32f4xx_ll_fmc.c ****   * @retval HAL status
 705:Drivers/STM32F4xx_HAL_Driver/Src/stm32f4xx_ll_fmc.c ****   */
 706:Drivers/STM32F4xx_HAL_Driver/Src/stm32f4xx_ll_fmc.c **** HAL_StatusTypeDef FMC_NAND_AttributeSpace_Timing_Init(FMC_NAND_TypeDef *Device,
 707:Drivers/STM32F4xx_HAL_Driver/Src/stm32f4xx_ll_fmc.c ****                                                       FMC_NAND_PCC_TimingTypeDef *Timing, uint32_t 
 708:Drivers/STM32F4xx_HAL_Driver/Src/stm32f4xx_ll_fmc.c **** {
 656              		.loc 1 708 1 is_stmt 1 view -0
 657              		.cfi_startproc
 658              		@ args = 0, pretend = 0, frame = 0
 659              		@ frame_needed = 0, uses_anonymous_args = 0
 660              		@ link register save eliminated.
 709:Drivers/STM32F4xx_HAL_Driver/Src/stm32f4xx_ll_fmc.c ****   /* Check the parameters */
 710:Drivers/STM32F4xx_HAL_Driver/Src/stm32f4xx_ll_fmc.c ****   assert_param(IS_FMC_NAND_DEVICE(Device));
 661              		.loc 1 710 3 view .LVU195
 711:Drivers/STM32F4xx_HAL_Driver/Src/stm32f4xx_ll_fmc.c ****   assert_param(IS_FMC_SETUP_TIME(Timing->SetupTime));
 662              		.loc 1 711 3 view .LVU196
 712:Drivers/STM32F4xx_HAL_Driver/Src/stm32f4xx_ll_fmc.c ****   assert_param(IS_FMC_WAIT_TIME(Timing->WaitSetupTime));
 663              		.loc 1 712 3 view .LVU197
 713:Drivers/STM32F4xx_HAL_Driver/Src/stm32f4xx_ll_fmc.c ****   assert_param(IS_FMC_HOLD_TIME(Timing->HoldSetupTime));
 664              		.loc 1 713 3 view .LVU198
 714:Drivers/STM32F4xx_HAL_Driver/Src/stm32f4xx_ll_fmc.c ****   assert_param(IS_FMC_HIZ_TIME(Timing->HiZSetupTime));
 665              		.loc 1 714 3 view .LVU199
 715:Drivers/STM32F4xx_HAL_Driver/Src/stm32f4xx_ll_fmc.c ****   assert_param(IS_FMC_NAND_BANK(Bank));
 666              		.loc 1 715 3 view .LVU200
 716:Drivers/STM32F4xx_HAL_Driver/Src/stm32f4xx_ll_fmc.c **** 
 717:Drivers/STM32F4xx_HAL_Driver/Src/stm32f4xx_ll_fmc.c **** #if defined(FMC_Bank2_3)
 718:Drivers/STM32F4xx_HAL_Driver/Src/stm32f4xx_ll_fmc.c ****   /* Set FMC_NAND device timing parameters */
 719:Drivers/STM32F4xx_HAL_Driver/Src/stm32f4xx_ll_fmc.c ****   if (Bank == FMC_NAND_BANK2)
 667              		.loc 1 719 3 view .LVU201
 668              		.loc 1 719 6 is_stmt 0 view .LVU202
 669 0000 102A     		cmp	r2, #16
 670 0002 0DD0     		beq	.L42
 720:Drivers/STM32F4xx_HAL_Driver/Src/stm32f4xx_ll_fmc.c ****   {
 721:Drivers/STM32F4xx_HAL_Driver/Src/stm32f4xx_ll_fmc.c ****     /* NAND bank 2 registers configuration */
 722:Drivers/STM32F4xx_HAL_Driver/Src/stm32f4xx_ll_fmc.c ****     MODIFY_REG(Device->PATT2, PATT_CLEAR_MASK, (Timing->SetupTime                                  
 723:Drivers/STM32F4xx_HAL_Driver/Src/stm32f4xx_ll_fmc.c ****                                                 ((Timing->WaitSetupTime) << FMC_PATT2_ATTWAIT2_Pos)
 724:Drivers/STM32F4xx_HAL_Driver/Src/stm32f4xx_ll_fmc.c ****                                                 ((Timing->HoldSetupTime) << FMC_PATT2_ATTHOLD2_Pos)
 725:Drivers/STM32F4xx_HAL_Driver/Src/stm32f4xx_ll_fmc.c ****                                                 ((Timing->HiZSetupTime)  << FMC_PATT2_ATTHIZ2_Pos))
 726:Drivers/STM32F4xx_HAL_Driver/Src/stm32f4xx_ll_fmc.c ****   }
 727:Drivers/STM32F4xx_HAL_Driver/Src/stm32f4xx_ll_fmc.c ****   else
 728:Drivers/STM32F4xx_HAL_Driver/Src/stm32f4xx_ll_fmc.c ****   {
 729:Drivers/STM32F4xx_HAL_Driver/Src/stm32f4xx_ll_fmc.c ****     /* NAND bank 3 registers configuration */
 730:Drivers/STM32F4xx_HAL_Driver/Src/stm32f4xx_ll_fmc.c ****     MODIFY_REG(Device->PATT3, PATT_CLEAR_MASK, (Timing->SetupTime                                  
 671              		.loc 1 730 5 is_stmt 1 view .LVU203
 672 0004 C36A     		ldr	r3, [r0, #44]
 673 0006 0B68     		ldr	r3, [r1]
 674 0008 4A68     		ldr	r2, [r1, #4]
 675              	.LVL43:
 676              		.loc 1 730 5 is_stmt 0 view .LVU204
 677 000a 43EA0223 		orr	r3, r3, r2, lsl #8
 678 000e 8A68     		ldr	r2, [r1, #8]
 679 0010 43EA0243 		orr	r3, r3, r2, lsl #16
 680 0014 CA68     		ldr	r2, [r1, #12]
ARM GAS  C:\Users\stefa\AppData\Local\Temp\ccMreSci.s 			page 26


 681 0016 43EA0263 		orr	r3, r3, r2, lsl #24
 682 001a C362     		str	r3, [r0, #44]
 683              	.L41:
 731:Drivers/STM32F4xx_HAL_Driver/Src/stm32f4xx_ll_fmc.c ****                                                 ((Timing->WaitSetupTime) << FMC_PATT2_ATTWAIT2_Pos)
 732:Drivers/STM32F4xx_HAL_Driver/Src/stm32f4xx_ll_fmc.c ****                                                 ((Timing->HoldSetupTime) << FMC_PATT2_ATTHOLD2_Pos)
 733:Drivers/STM32F4xx_HAL_Driver/Src/stm32f4xx_ll_fmc.c ****                                                 ((Timing->HiZSetupTime)  << FMC_PATT2_ATTHIZ2_Pos))
 734:Drivers/STM32F4xx_HAL_Driver/Src/stm32f4xx_ll_fmc.c ****   }
 735:Drivers/STM32F4xx_HAL_Driver/Src/stm32f4xx_ll_fmc.c **** #else
 736:Drivers/STM32F4xx_HAL_Driver/Src/stm32f4xx_ll_fmc.c ****   /* Prevent unused argument(s) compilation warning if no assert_param check */
 737:Drivers/STM32F4xx_HAL_Driver/Src/stm32f4xx_ll_fmc.c ****   UNUSED(Bank);
 738:Drivers/STM32F4xx_HAL_Driver/Src/stm32f4xx_ll_fmc.c **** 
 739:Drivers/STM32F4xx_HAL_Driver/Src/stm32f4xx_ll_fmc.c ****   /* NAND bank 3 registers configuration */
 740:Drivers/STM32F4xx_HAL_Driver/Src/stm32f4xx_ll_fmc.c ****   MODIFY_REG(Device->PATT, PATT_CLEAR_MASK, (Timing->SetupTime                                 |
 741:Drivers/STM32F4xx_HAL_Driver/Src/stm32f4xx_ll_fmc.c ****                                              ((Timing->WaitSetupTime) << FMC_PATT_ATTWAIT2_Pos) |
 742:Drivers/STM32F4xx_HAL_Driver/Src/stm32f4xx_ll_fmc.c ****                                              ((Timing->HoldSetupTime) << FMC_PATT_ATTHOLD2_Pos) |
 743:Drivers/STM32F4xx_HAL_Driver/Src/stm32f4xx_ll_fmc.c ****                                              ((Timing->HiZSetupTime)  << FMC_PATT_ATTHIZ2_Pos)));
 744:Drivers/STM32F4xx_HAL_Driver/Src/stm32f4xx_ll_fmc.c **** #endif
 745:Drivers/STM32F4xx_HAL_Driver/Src/stm32f4xx_ll_fmc.c **** 
 746:Drivers/STM32F4xx_HAL_Driver/Src/stm32f4xx_ll_fmc.c ****   return HAL_OK;
 684              		.loc 1 746 3 is_stmt 1 view .LVU205
 747:Drivers/STM32F4xx_HAL_Driver/Src/stm32f4xx_ll_fmc.c **** }
 685              		.loc 1 747 1 is_stmt 0 view .LVU206
 686 001c 0020     		movs	r0, #0
 687              	.LVL44:
 688              		.loc 1 747 1 view .LVU207
 689 001e 7047     		bx	lr
 690              	.LVL45:
 691              	.L42:
 722:Drivers/STM32F4xx_HAL_Driver/Src/stm32f4xx_ll_fmc.c ****                                                 ((Timing->WaitSetupTime) << FMC_PATT2_ATTWAIT2_Pos)
 692              		.loc 1 722 5 is_stmt 1 view .LVU208
 693 0020 C368     		ldr	r3, [r0, #12]
 694 0022 0B68     		ldr	r3, [r1]
 695 0024 4A68     		ldr	r2, [r1, #4]
 696              	.LVL46:
 722:Drivers/STM32F4xx_HAL_Driver/Src/stm32f4xx_ll_fmc.c ****                                                 ((Timing->WaitSetupTime) << FMC_PATT2_ATTWAIT2_Pos)
 697              		.loc 1 722 5 is_stmt 0 view .LVU209
 698 0026 43EA0223 		orr	r3, r3, r2, lsl #8
 699 002a 8A68     		ldr	r2, [r1, #8]
 700 002c 43EA0243 		orr	r3, r3, r2, lsl #16
 701 0030 CA68     		ldr	r2, [r1, #12]
 702 0032 43EA0263 		orr	r3, r3, r2, lsl #24
 703 0036 C360     		str	r3, [r0, #12]
 704 0038 F0E7     		b	.L41
 705              		.cfi_endproc
 706              	.LFE138:
 708              		.section	.text.FMC_NAND_DeInit,"ax",%progbits
 709              		.align	1
 710              		.global	FMC_NAND_DeInit
 711              		.syntax unified
 712              		.thumb
 713              		.thumb_func
 715              	FMC_NAND_DeInit:
 716              	.LVL47:
 717              	.LFB139:
 748:Drivers/STM32F4xx_HAL_Driver/Src/stm32f4xx_ll_fmc.c **** 
 749:Drivers/STM32F4xx_HAL_Driver/Src/stm32f4xx_ll_fmc.c **** /**
 750:Drivers/STM32F4xx_HAL_Driver/Src/stm32f4xx_ll_fmc.c ****   * @brief  DeInitializes the FMC_NAND device
ARM GAS  C:\Users\stefa\AppData\Local\Temp\ccMreSci.s 			page 27


 751:Drivers/STM32F4xx_HAL_Driver/Src/stm32f4xx_ll_fmc.c ****   * @param  Device Pointer to NAND device instance
 752:Drivers/STM32F4xx_HAL_Driver/Src/stm32f4xx_ll_fmc.c ****   * @param  Bank NAND bank number
 753:Drivers/STM32F4xx_HAL_Driver/Src/stm32f4xx_ll_fmc.c ****   * @retval HAL status
 754:Drivers/STM32F4xx_HAL_Driver/Src/stm32f4xx_ll_fmc.c ****   */
 755:Drivers/STM32F4xx_HAL_Driver/Src/stm32f4xx_ll_fmc.c **** HAL_StatusTypeDef FMC_NAND_DeInit(FMC_NAND_TypeDef *Device, uint32_t Bank)
 756:Drivers/STM32F4xx_HAL_Driver/Src/stm32f4xx_ll_fmc.c **** {
 718              		.loc 1 756 1 is_stmt 1 view -0
 719              		.cfi_startproc
 720              		@ args = 0, pretend = 0, frame = 0
 721              		@ frame_needed = 0, uses_anonymous_args = 0
 722              		@ link register save eliminated.
 757:Drivers/STM32F4xx_HAL_Driver/Src/stm32f4xx_ll_fmc.c ****   /* Check the parameters */
 758:Drivers/STM32F4xx_HAL_Driver/Src/stm32f4xx_ll_fmc.c ****   assert_param(IS_FMC_NAND_DEVICE(Device));
 723              		.loc 1 758 3 view .LVU211
 759:Drivers/STM32F4xx_HAL_Driver/Src/stm32f4xx_ll_fmc.c ****   assert_param(IS_FMC_NAND_BANK(Bank));
 724              		.loc 1 759 3 view .LVU212
 760:Drivers/STM32F4xx_HAL_Driver/Src/stm32f4xx_ll_fmc.c **** 
 761:Drivers/STM32F4xx_HAL_Driver/Src/stm32f4xx_ll_fmc.c ****   /* Disable the NAND Bank */
 762:Drivers/STM32F4xx_HAL_Driver/Src/stm32f4xx_ll_fmc.c ****   __FMC_NAND_DISABLE(Device, Bank);
 725              		.loc 1 762 3 view .LVU213
 726 0000 1029     		cmp	r1, #16
 727 0002 0FD0     		beq	.L48
 728              		.loc 1 762 3 is_stmt 0 discriminator 2 view .LVU214
 729 0004 036A     		ldr	r3, [r0, #32]
 730 0006 23F00403 		bic	r3, r3, #4
 731 000a 0362     		str	r3, [r0, #32]
 732              	.L45:
 763:Drivers/STM32F4xx_HAL_Driver/Src/stm32f4xx_ll_fmc.c **** 
 764:Drivers/STM32F4xx_HAL_Driver/Src/stm32f4xx_ll_fmc.c ****   /* De-initialize the NAND Bank */
 765:Drivers/STM32F4xx_HAL_Driver/Src/stm32f4xx_ll_fmc.c **** #if defined(FMC_Bank2_3)
 766:Drivers/STM32F4xx_HAL_Driver/Src/stm32f4xx_ll_fmc.c ****   if (Bank == FMC_NAND_BANK2)
 733              		.loc 1 766 3 is_stmt 1 view .LVU215
 734              		.loc 1 766 6 is_stmt 0 view .LVU216
 735 000c 1029     		cmp	r1, #16
 736 000e 0ED0     		beq	.L49
 767:Drivers/STM32F4xx_HAL_Driver/Src/stm32f4xx_ll_fmc.c ****   {
 768:Drivers/STM32F4xx_HAL_Driver/Src/stm32f4xx_ll_fmc.c ****     /* Set the FMC_NAND_BANK2 registers to their reset values */
 769:Drivers/STM32F4xx_HAL_Driver/Src/stm32f4xx_ll_fmc.c ****     WRITE_REG(Device->PCR2,  0x00000018U);
 770:Drivers/STM32F4xx_HAL_Driver/Src/stm32f4xx_ll_fmc.c ****     WRITE_REG(Device->SR2,   0x00000040U);
 771:Drivers/STM32F4xx_HAL_Driver/Src/stm32f4xx_ll_fmc.c ****     WRITE_REG(Device->PMEM2, 0xFCFCFCFCU);
 772:Drivers/STM32F4xx_HAL_Driver/Src/stm32f4xx_ll_fmc.c ****     WRITE_REG(Device->PATT2, 0xFCFCFCFCU);
 773:Drivers/STM32F4xx_HAL_Driver/Src/stm32f4xx_ll_fmc.c ****   }
 774:Drivers/STM32F4xx_HAL_Driver/Src/stm32f4xx_ll_fmc.c ****   /* FMC_Bank3_NAND */
 775:Drivers/STM32F4xx_HAL_Driver/Src/stm32f4xx_ll_fmc.c ****   else
 776:Drivers/STM32F4xx_HAL_Driver/Src/stm32f4xx_ll_fmc.c ****   {
 777:Drivers/STM32F4xx_HAL_Driver/Src/stm32f4xx_ll_fmc.c ****     /* Set the FMC_NAND_BANK3 registers to their reset values */
 778:Drivers/STM32F4xx_HAL_Driver/Src/stm32f4xx_ll_fmc.c ****     WRITE_REG(Device->PCR3,  0x00000018U);
 737              		.loc 1 778 5 is_stmt 1 view .LVU217
 738 0010 1823     		movs	r3, #24
 739 0012 0362     		str	r3, [r0, #32]
 779:Drivers/STM32F4xx_HAL_Driver/Src/stm32f4xx_ll_fmc.c ****     WRITE_REG(Device->SR3,   0x00000040U);
 740              		.loc 1 779 5 view .LVU218
 741 0014 4023     		movs	r3, #64
 742 0016 4362     		str	r3, [r0, #36]
 780:Drivers/STM32F4xx_HAL_Driver/Src/stm32f4xx_ll_fmc.c ****     WRITE_REG(Device->PMEM3, 0xFCFCFCFCU);
 743              		.loc 1 780 5 view .LVU219
 744 0018 4FF0FC33 		mov	r3, #-50529028
ARM GAS  C:\Users\stefa\AppData\Local\Temp\ccMreSci.s 			page 28


 745 001c 8362     		str	r3, [r0, #40]
 781:Drivers/STM32F4xx_HAL_Driver/Src/stm32f4xx_ll_fmc.c ****     WRITE_REG(Device->PATT3, 0xFCFCFCFCU);
 746              		.loc 1 781 5 view .LVU220
 747 001e C362     		str	r3, [r0, #44]
 748              	.L47:
 782:Drivers/STM32F4xx_HAL_Driver/Src/stm32f4xx_ll_fmc.c ****   }
 783:Drivers/STM32F4xx_HAL_Driver/Src/stm32f4xx_ll_fmc.c **** #else
 784:Drivers/STM32F4xx_HAL_Driver/Src/stm32f4xx_ll_fmc.c ****   /* Prevent unused argument(s) compilation warning if no assert_param check */
 785:Drivers/STM32F4xx_HAL_Driver/Src/stm32f4xx_ll_fmc.c ****   UNUSED(Bank);
 786:Drivers/STM32F4xx_HAL_Driver/Src/stm32f4xx_ll_fmc.c **** 
 787:Drivers/STM32F4xx_HAL_Driver/Src/stm32f4xx_ll_fmc.c ****   /* Set the FMC_NAND_BANK3 registers to their reset values */
 788:Drivers/STM32F4xx_HAL_Driver/Src/stm32f4xx_ll_fmc.c ****   WRITE_REG(Device->PCR,  0x00000018U);
 789:Drivers/STM32F4xx_HAL_Driver/Src/stm32f4xx_ll_fmc.c ****   WRITE_REG(Device->SR,   0x00000040U);
 790:Drivers/STM32F4xx_HAL_Driver/Src/stm32f4xx_ll_fmc.c ****   WRITE_REG(Device->PMEM, 0xFCFCFCFCU);
 791:Drivers/STM32F4xx_HAL_Driver/Src/stm32f4xx_ll_fmc.c ****   WRITE_REG(Device->PATT, 0xFCFCFCFCU);
 792:Drivers/STM32F4xx_HAL_Driver/Src/stm32f4xx_ll_fmc.c **** #endif
 793:Drivers/STM32F4xx_HAL_Driver/Src/stm32f4xx_ll_fmc.c **** 
 794:Drivers/STM32F4xx_HAL_Driver/Src/stm32f4xx_ll_fmc.c ****   return HAL_OK;
 749              		.loc 1 794 3 view .LVU221
 795:Drivers/STM32F4xx_HAL_Driver/Src/stm32f4xx_ll_fmc.c **** }
 750              		.loc 1 795 1 is_stmt 0 view .LVU222
 751 0020 0020     		movs	r0, #0
 752              	.LVL48:
 753              		.loc 1 795 1 view .LVU223
 754 0022 7047     		bx	lr
 755              	.LVL49:
 756              	.L48:
 762:Drivers/STM32F4xx_HAL_Driver/Src/stm32f4xx_ll_fmc.c **** 
 757              		.loc 1 762 3 discriminator 1 view .LVU224
 758 0024 0368     		ldr	r3, [r0]
 759 0026 23F00403 		bic	r3, r3, #4
 760 002a 0360     		str	r3, [r0]
 761 002c EEE7     		b	.L45
 762              	.L49:
 769:Drivers/STM32F4xx_HAL_Driver/Src/stm32f4xx_ll_fmc.c ****     WRITE_REG(Device->SR2,   0x00000040U);
 763              		.loc 1 769 5 is_stmt 1 view .LVU225
 764 002e 1823     		movs	r3, #24
 765 0030 0360     		str	r3, [r0]
 770:Drivers/STM32F4xx_HAL_Driver/Src/stm32f4xx_ll_fmc.c ****     WRITE_REG(Device->PMEM2, 0xFCFCFCFCU);
 766              		.loc 1 770 5 view .LVU226
 767 0032 4023     		movs	r3, #64
 768 0034 4360     		str	r3, [r0, #4]
 771:Drivers/STM32F4xx_HAL_Driver/Src/stm32f4xx_ll_fmc.c ****     WRITE_REG(Device->PATT2, 0xFCFCFCFCU);
 769              		.loc 1 771 5 view .LVU227
 770 0036 4FF0FC33 		mov	r3, #-50529028
 771 003a 8360     		str	r3, [r0, #8]
 772:Drivers/STM32F4xx_HAL_Driver/Src/stm32f4xx_ll_fmc.c ****   }
 772              		.loc 1 772 5 view .LVU228
 773 003c C360     		str	r3, [r0, #12]
 774 003e EFE7     		b	.L47
 775              		.cfi_endproc
 776              	.LFE139:
 778              		.section	.text.FMC_NAND_ECC_Enable,"ax",%progbits
 779              		.align	1
 780              		.global	FMC_NAND_ECC_Enable
 781              		.syntax unified
 782              		.thumb
ARM GAS  C:\Users\stefa\AppData\Local\Temp\ccMreSci.s 			page 29


 783              		.thumb_func
 785              	FMC_NAND_ECC_Enable:
 786              	.LVL50:
 787              	.LFB140:
 796:Drivers/STM32F4xx_HAL_Driver/Src/stm32f4xx_ll_fmc.c **** 
 797:Drivers/STM32F4xx_HAL_Driver/Src/stm32f4xx_ll_fmc.c **** /**
 798:Drivers/STM32F4xx_HAL_Driver/Src/stm32f4xx_ll_fmc.c ****   * @}
 799:Drivers/STM32F4xx_HAL_Driver/Src/stm32f4xx_ll_fmc.c ****   */
 800:Drivers/STM32F4xx_HAL_Driver/Src/stm32f4xx_ll_fmc.c **** 
 801:Drivers/STM32F4xx_HAL_Driver/Src/stm32f4xx_ll_fmc.c **** /** @defgroup HAL_FMC_NAND_Group2 Peripheral Control functions
 802:Drivers/STM32F4xx_HAL_Driver/Src/stm32f4xx_ll_fmc.c ****   *  @brief   management functions
 803:Drivers/STM32F4xx_HAL_Driver/Src/stm32f4xx_ll_fmc.c ****   *
 804:Drivers/STM32F4xx_HAL_Driver/Src/stm32f4xx_ll_fmc.c **** @verbatim
 805:Drivers/STM32F4xx_HAL_Driver/Src/stm32f4xx_ll_fmc.c ****   ==============================================================================
 806:Drivers/STM32F4xx_HAL_Driver/Src/stm32f4xx_ll_fmc.c ****                        ##### FMC_NAND Control functions #####
 807:Drivers/STM32F4xx_HAL_Driver/Src/stm32f4xx_ll_fmc.c ****   ==============================================================================
 808:Drivers/STM32F4xx_HAL_Driver/Src/stm32f4xx_ll_fmc.c ****   [..]
 809:Drivers/STM32F4xx_HAL_Driver/Src/stm32f4xx_ll_fmc.c ****     This subsection provides a set of functions allowing to control dynamically
 810:Drivers/STM32F4xx_HAL_Driver/Src/stm32f4xx_ll_fmc.c ****     the FMC NAND interface.
 811:Drivers/STM32F4xx_HAL_Driver/Src/stm32f4xx_ll_fmc.c **** 
 812:Drivers/STM32F4xx_HAL_Driver/Src/stm32f4xx_ll_fmc.c **** @endverbatim
 813:Drivers/STM32F4xx_HAL_Driver/Src/stm32f4xx_ll_fmc.c ****   * @{
 814:Drivers/STM32F4xx_HAL_Driver/Src/stm32f4xx_ll_fmc.c ****   */
 815:Drivers/STM32F4xx_HAL_Driver/Src/stm32f4xx_ll_fmc.c **** 
 816:Drivers/STM32F4xx_HAL_Driver/Src/stm32f4xx_ll_fmc.c **** 
 817:Drivers/STM32F4xx_HAL_Driver/Src/stm32f4xx_ll_fmc.c **** /**
 818:Drivers/STM32F4xx_HAL_Driver/Src/stm32f4xx_ll_fmc.c ****   * @brief  Enables dynamically FMC_NAND ECC feature.
 819:Drivers/STM32F4xx_HAL_Driver/Src/stm32f4xx_ll_fmc.c ****   * @param  Device Pointer to NAND device instance
 820:Drivers/STM32F4xx_HAL_Driver/Src/stm32f4xx_ll_fmc.c ****   * @param  Bank NAND bank number
 821:Drivers/STM32F4xx_HAL_Driver/Src/stm32f4xx_ll_fmc.c ****   * @retval HAL status
 822:Drivers/STM32F4xx_HAL_Driver/Src/stm32f4xx_ll_fmc.c ****   */
 823:Drivers/STM32F4xx_HAL_Driver/Src/stm32f4xx_ll_fmc.c **** HAL_StatusTypeDef FMC_NAND_ECC_Enable(FMC_NAND_TypeDef *Device, uint32_t Bank)
 824:Drivers/STM32F4xx_HAL_Driver/Src/stm32f4xx_ll_fmc.c **** {
 788              		.loc 1 824 1 view -0
 789              		.cfi_startproc
 790              		@ args = 0, pretend = 0, frame = 0
 791              		@ frame_needed = 0, uses_anonymous_args = 0
 792              		@ link register save eliminated.
 825:Drivers/STM32F4xx_HAL_Driver/Src/stm32f4xx_ll_fmc.c ****   /* Check the parameters */
 826:Drivers/STM32F4xx_HAL_Driver/Src/stm32f4xx_ll_fmc.c ****   assert_param(IS_FMC_NAND_DEVICE(Device));
 793              		.loc 1 826 3 view .LVU230
 827:Drivers/STM32F4xx_HAL_Driver/Src/stm32f4xx_ll_fmc.c ****   assert_param(IS_FMC_NAND_BANK(Bank));
 794              		.loc 1 827 3 view .LVU231
 828:Drivers/STM32F4xx_HAL_Driver/Src/stm32f4xx_ll_fmc.c **** 
 829:Drivers/STM32F4xx_HAL_Driver/Src/stm32f4xx_ll_fmc.c ****   /* Enable ECC feature */
 830:Drivers/STM32F4xx_HAL_Driver/Src/stm32f4xx_ll_fmc.c **** #if defined(FMC_Bank2_3)
 831:Drivers/STM32F4xx_HAL_Driver/Src/stm32f4xx_ll_fmc.c ****   if (Bank == FMC_NAND_BANK2)
 795              		.loc 1 831 3 view .LVU232
 796              		.loc 1 831 6 is_stmt 0 view .LVU233
 797 0000 1029     		cmp	r1, #16
 798 0002 05D0     		beq	.L53
 832:Drivers/STM32F4xx_HAL_Driver/Src/stm32f4xx_ll_fmc.c ****   {
 833:Drivers/STM32F4xx_HAL_Driver/Src/stm32f4xx_ll_fmc.c ****     SET_BIT(Device->PCR2, FMC_PCR2_ECCEN);
 834:Drivers/STM32F4xx_HAL_Driver/Src/stm32f4xx_ll_fmc.c ****   }
 835:Drivers/STM32F4xx_HAL_Driver/Src/stm32f4xx_ll_fmc.c ****   else
 836:Drivers/STM32F4xx_HAL_Driver/Src/stm32f4xx_ll_fmc.c ****   {
 837:Drivers/STM32F4xx_HAL_Driver/Src/stm32f4xx_ll_fmc.c ****     SET_BIT(Device->PCR3, FMC_PCR2_ECCEN);
ARM GAS  C:\Users\stefa\AppData\Local\Temp\ccMreSci.s 			page 30


 799              		.loc 1 837 5 is_stmt 1 view .LVU234
 800 0004 036A     		ldr	r3, [r0, #32]
 801 0006 43F04003 		orr	r3, r3, #64
 802 000a 0362     		str	r3, [r0, #32]
 803              	.L52:
 838:Drivers/STM32F4xx_HAL_Driver/Src/stm32f4xx_ll_fmc.c ****   }
 839:Drivers/STM32F4xx_HAL_Driver/Src/stm32f4xx_ll_fmc.c **** #else
 840:Drivers/STM32F4xx_HAL_Driver/Src/stm32f4xx_ll_fmc.c ****   /* Prevent unused argument(s) compilation warning if no assert_param check */
 841:Drivers/STM32F4xx_HAL_Driver/Src/stm32f4xx_ll_fmc.c ****   UNUSED(Bank);
 842:Drivers/STM32F4xx_HAL_Driver/Src/stm32f4xx_ll_fmc.c **** 
 843:Drivers/STM32F4xx_HAL_Driver/Src/stm32f4xx_ll_fmc.c ****   SET_BIT(Device->PCR, FMC_PCR_ECCEN);
 844:Drivers/STM32F4xx_HAL_Driver/Src/stm32f4xx_ll_fmc.c **** #endif
 845:Drivers/STM32F4xx_HAL_Driver/Src/stm32f4xx_ll_fmc.c **** 
 846:Drivers/STM32F4xx_HAL_Driver/Src/stm32f4xx_ll_fmc.c ****   return HAL_OK;
 804              		.loc 1 846 3 view .LVU235
 847:Drivers/STM32F4xx_HAL_Driver/Src/stm32f4xx_ll_fmc.c **** }
 805              		.loc 1 847 1 is_stmt 0 view .LVU236
 806 000c 0020     		movs	r0, #0
 807              	.LVL51:
 808              		.loc 1 847 1 view .LVU237
 809 000e 7047     		bx	lr
 810              	.LVL52:
 811              	.L53:
 833:Drivers/STM32F4xx_HAL_Driver/Src/stm32f4xx_ll_fmc.c ****   }
 812              		.loc 1 833 5 is_stmt 1 view .LVU238
 813 0010 0368     		ldr	r3, [r0]
 814 0012 43F04003 		orr	r3, r3, #64
 815 0016 0360     		str	r3, [r0]
 816 0018 F8E7     		b	.L52
 817              		.cfi_endproc
 818              	.LFE140:
 820              		.section	.text.FMC_NAND_ECC_Disable,"ax",%progbits
 821              		.align	1
 822              		.global	FMC_NAND_ECC_Disable
 823              		.syntax unified
 824              		.thumb
 825              		.thumb_func
 827              	FMC_NAND_ECC_Disable:
 828              	.LVL53:
 829              	.LFB141:
 848:Drivers/STM32F4xx_HAL_Driver/Src/stm32f4xx_ll_fmc.c **** 
 849:Drivers/STM32F4xx_HAL_Driver/Src/stm32f4xx_ll_fmc.c **** 
 850:Drivers/STM32F4xx_HAL_Driver/Src/stm32f4xx_ll_fmc.c **** /**
 851:Drivers/STM32F4xx_HAL_Driver/Src/stm32f4xx_ll_fmc.c ****   * @brief  Disables dynamically FMC_NAND ECC feature.
 852:Drivers/STM32F4xx_HAL_Driver/Src/stm32f4xx_ll_fmc.c ****   * @param  Device Pointer to NAND device instance
 853:Drivers/STM32F4xx_HAL_Driver/Src/stm32f4xx_ll_fmc.c ****   * @param  Bank NAND bank number
 854:Drivers/STM32F4xx_HAL_Driver/Src/stm32f4xx_ll_fmc.c ****   * @retval HAL status
 855:Drivers/STM32F4xx_HAL_Driver/Src/stm32f4xx_ll_fmc.c ****   */
 856:Drivers/STM32F4xx_HAL_Driver/Src/stm32f4xx_ll_fmc.c **** HAL_StatusTypeDef FMC_NAND_ECC_Disable(FMC_NAND_TypeDef *Device, uint32_t Bank)
 857:Drivers/STM32F4xx_HAL_Driver/Src/stm32f4xx_ll_fmc.c **** {
 830              		.loc 1 857 1 view -0
 831              		.cfi_startproc
 832              		@ args = 0, pretend = 0, frame = 0
 833              		@ frame_needed = 0, uses_anonymous_args = 0
 834              		@ link register save eliminated.
 858:Drivers/STM32F4xx_HAL_Driver/Src/stm32f4xx_ll_fmc.c ****   /* Check the parameters */
 859:Drivers/STM32F4xx_HAL_Driver/Src/stm32f4xx_ll_fmc.c ****   assert_param(IS_FMC_NAND_DEVICE(Device));
ARM GAS  C:\Users\stefa\AppData\Local\Temp\ccMreSci.s 			page 31


 835              		.loc 1 859 3 view .LVU240
 860:Drivers/STM32F4xx_HAL_Driver/Src/stm32f4xx_ll_fmc.c ****   assert_param(IS_FMC_NAND_BANK(Bank));
 836              		.loc 1 860 3 view .LVU241
 861:Drivers/STM32F4xx_HAL_Driver/Src/stm32f4xx_ll_fmc.c **** 
 862:Drivers/STM32F4xx_HAL_Driver/Src/stm32f4xx_ll_fmc.c ****   /* Disable ECC feature */
 863:Drivers/STM32F4xx_HAL_Driver/Src/stm32f4xx_ll_fmc.c **** #if defined(FMC_Bank2_3)
 864:Drivers/STM32F4xx_HAL_Driver/Src/stm32f4xx_ll_fmc.c ****   if (Bank == FMC_NAND_BANK2)
 837              		.loc 1 864 3 view .LVU242
 838              		.loc 1 864 6 is_stmt 0 view .LVU243
 839 0000 1029     		cmp	r1, #16
 840 0002 05D0     		beq	.L57
 865:Drivers/STM32F4xx_HAL_Driver/Src/stm32f4xx_ll_fmc.c ****   {
 866:Drivers/STM32F4xx_HAL_Driver/Src/stm32f4xx_ll_fmc.c ****     CLEAR_BIT(Device->PCR2, FMC_PCR2_ECCEN);
 867:Drivers/STM32F4xx_HAL_Driver/Src/stm32f4xx_ll_fmc.c ****   }
 868:Drivers/STM32F4xx_HAL_Driver/Src/stm32f4xx_ll_fmc.c ****   else
 869:Drivers/STM32F4xx_HAL_Driver/Src/stm32f4xx_ll_fmc.c ****   {
 870:Drivers/STM32F4xx_HAL_Driver/Src/stm32f4xx_ll_fmc.c ****     CLEAR_BIT(Device->PCR3, FMC_PCR2_ECCEN);
 841              		.loc 1 870 5 is_stmt 1 view .LVU244
 842 0004 036A     		ldr	r3, [r0, #32]
 843 0006 23F04003 		bic	r3, r3, #64
 844 000a 0362     		str	r3, [r0, #32]
 845              	.L56:
 871:Drivers/STM32F4xx_HAL_Driver/Src/stm32f4xx_ll_fmc.c ****   }
 872:Drivers/STM32F4xx_HAL_Driver/Src/stm32f4xx_ll_fmc.c **** #else
 873:Drivers/STM32F4xx_HAL_Driver/Src/stm32f4xx_ll_fmc.c ****   /* Prevent unused argument(s) compilation warning if no assert_param check */
 874:Drivers/STM32F4xx_HAL_Driver/Src/stm32f4xx_ll_fmc.c ****   UNUSED(Bank);
 875:Drivers/STM32F4xx_HAL_Driver/Src/stm32f4xx_ll_fmc.c **** 
 876:Drivers/STM32F4xx_HAL_Driver/Src/stm32f4xx_ll_fmc.c ****   CLEAR_BIT(Device->PCR, FMC_PCR_ECCEN);
 877:Drivers/STM32F4xx_HAL_Driver/Src/stm32f4xx_ll_fmc.c **** #endif
 878:Drivers/STM32F4xx_HAL_Driver/Src/stm32f4xx_ll_fmc.c **** 
 879:Drivers/STM32F4xx_HAL_Driver/Src/stm32f4xx_ll_fmc.c ****   return HAL_OK;
 846              		.loc 1 879 3 view .LVU245
 880:Drivers/STM32F4xx_HAL_Driver/Src/stm32f4xx_ll_fmc.c **** }
 847              		.loc 1 880 1 is_stmt 0 view .LVU246
 848 000c 0020     		movs	r0, #0
 849              	.LVL54:
 850              		.loc 1 880 1 view .LVU247
 851 000e 7047     		bx	lr
 852              	.LVL55:
 853              	.L57:
 866:Drivers/STM32F4xx_HAL_Driver/Src/stm32f4xx_ll_fmc.c ****   }
 854              		.loc 1 866 5 is_stmt 1 view .LVU248
 855 0010 0368     		ldr	r3, [r0]
 856 0012 23F04003 		bic	r3, r3, #64
 857 0016 0360     		str	r3, [r0]
 858 0018 F8E7     		b	.L56
 859              		.cfi_endproc
 860              	.LFE141:
 862              		.section	.text.FMC_NAND_GetECC,"ax",%progbits
 863              		.align	1
 864              		.global	FMC_NAND_GetECC
 865              		.syntax unified
 866              		.thumb
 867              		.thumb_func
 869              	FMC_NAND_GetECC:
 870              	.LVL56:
 871              	.LFB142:
ARM GAS  C:\Users\stefa\AppData\Local\Temp\ccMreSci.s 			page 32


 881:Drivers/STM32F4xx_HAL_Driver/Src/stm32f4xx_ll_fmc.c **** 
 882:Drivers/STM32F4xx_HAL_Driver/Src/stm32f4xx_ll_fmc.c **** /**
 883:Drivers/STM32F4xx_HAL_Driver/Src/stm32f4xx_ll_fmc.c ****   * @brief  Disables dynamically FMC_NAND ECC feature.
 884:Drivers/STM32F4xx_HAL_Driver/Src/stm32f4xx_ll_fmc.c ****   * @param  Device Pointer to NAND device instance
 885:Drivers/STM32F4xx_HAL_Driver/Src/stm32f4xx_ll_fmc.c ****   * @param  ECCval Pointer to ECC value
 886:Drivers/STM32F4xx_HAL_Driver/Src/stm32f4xx_ll_fmc.c ****   * @param  Bank NAND bank number
 887:Drivers/STM32F4xx_HAL_Driver/Src/stm32f4xx_ll_fmc.c ****   * @param  Timeout Timeout wait value
 888:Drivers/STM32F4xx_HAL_Driver/Src/stm32f4xx_ll_fmc.c ****   * @retval HAL status
 889:Drivers/STM32F4xx_HAL_Driver/Src/stm32f4xx_ll_fmc.c ****   */
 890:Drivers/STM32F4xx_HAL_Driver/Src/stm32f4xx_ll_fmc.c **** HAL_StatusTypeDef FMC_NAND_GetECC(FMC_NAND_TypeDef *Device, uint32_t *ECCval, uint32_t Bank,
 891:Drivers/STM32F4xx_HAL_Driver/Src/stm32f4xx_ll_fmc.c ****                                   uint32_t Timeout)
 892:Drivers/STM32F4xx_HAL_Driver/Src/stm32f4xx_ll_fmc.c **** {
 872              		.loc 1 892 1 view -0
 873              		.cfi_startproc
 874              		@ args = 0, pretend = 0, frame = 0
 875              		@ frame_needed = 0, uses_anonymous_args = 0
 876              		.loc 1 892 1 is_stmt 0 view .LVU250
 877 0000 2DE9F843 		push	{r3, r4, r5, r6, r7, r8, r9, lr}
 878              	.LCFI9:
 879              		.cfi_def_cfa_offset 32
 880              		.cfi_offset 3, -32
 881              		.cfi_offset 4, -28
 882              		.cfi_offset 5, -24
 883              		.cfi_offset 6, -20
 884              		.cfi_offset 7, -16
 885              		.cfi_offset 8, -12
 886              		.cfi_offset 9, -8
 887              		.cfi_offset 14, -4
 888 0004 0646     		mov	r6, r0
 889 0006 8846     		mov	r8, r1
 890 0008 1546     		mov	r5, r2
 891 000a 1F46     		mov	r7, r3
 893:Drivers/STM32F4xx_HAL_Driver/Src/stm32f4xx_ll_fmc.c ****   uint32_t tickstart;
 892              		.loc 1 893 3 is_stmt 1 view .LVU251
 894:Drivers/STM32F4xx_HAL_Driver/Src/stm32f4xx_ll_fmc.c **** 
 895:Drivers/STM32F4xx_HAL_Driver/Src/stm32f4xx_ll_fmc.c ****   /* Check the parameters */
 896:Drivers/STM32F4xx_HAL_Driver/Src/stm32f4xx_ll_fmc.c ****   assert_param(IS_FMC_NAND_DEVICE(Device));
 893              		.loc 1 896 3 view .LVU252
 897:Drivers/STM32F4xx_HAL_Driver/Src/stm32f4xx_ll_fmc.c ****   assert_param(IS_FMC_NAND_BANK(Bank));
 894              		.loc 1 897 3 view .LVU253
 898:Drivers/STM32F4xx_HAL_Driver/Src/stm32f4xx_ll_fmc.c **** 
 899:Drivers/STM32F4xx_HAL_Driver/Src/stm32f4xx_ll_fmc.c ****   /* Get tick */
 900:Drivers/STM32F4xx_HAL_Driver/Src/stm32f4xx_ll_fmc.c ****   tickstart = HAL_GetTick();
 895              		.loc 1 900 3 view .LVU254
 896              		.loc 1 900 15 is_stmt 0 view .LVU255
 897 000c FFF7FEFF 		bl	HAL_GetTick
 898              	.LVL57:
 899              		.loc 1 900 15 view .LVU256
 900 0010 8146     		mov	r9, r0
 901              	.LVL58:
 901:Drivers/STM32F4xx_HAL_Driver/Src/stm32f4xx_ll_fmc.c **** 
 902:Drivers/STM32F4xx_HAL_Driver/Src/stm32f4xx_ll_fmc.c ****   /* Wait until FIFO is empty */
 903:Drivers/STM32F4xx_HAL_Driver/Src/stm32f4xx_ll_fmc.c ****   while (__FMC_NAND_GET_FLAG(Device, Bank, FMC_FLAG_FEMPT) == RESET)
 902              		.loc 1 903 3 is_stmt 1 view .LVU257
 903              		.loc 1 903 9 is_stmt 0 view .LVU258
 904 0012 12E0     		b	.L60
 905              	.LVL59:
ARM GAS  C:\Users\stefa\AppData\Local\Temp\ccMreSci.s 			page 33


 906              	.L70:
 904:Drivers/STM32F4xx_HAL_Driver/Src/stm32f4xx_ll_fmc.c ****   {
 905:Drivers/STM32F4xx_HAL_Driver/Src/stm32f4xx_ll_fmc.c ****     /* Check for the Timeout */
 906:Drivers/STM32F4xx_HAL_Driver/Src/stm32f4xx_ll_fmc.c ****     if (Timeout != HAL_MAX_DELAY)
 907:Drivers/STM32F4xx_HAL_Driver/Src/stm32f4xx_ll_fmc.c ****     {
 908:Drivers/STM32F4xx_HAL_Driver/Src/stm32f4xx_ll_fmc.c ****       if (((HAL_GetTick() - tickstart) > Timeout) || (Timeout == 0U))
 907              		.loc 1 908 7 is_stmt 1 view .LVU259
 908              		.loc 1 908 13 is_stmt 0 view .LVU260
 909 0014 FFF7FEFF 		bl	HAL_GetTick
 910              	.LVL60:
 911              		.loc 1 908 27 view .LVU261
 912 0018 A0EB0900 		sub	r0, r0, r9
 913              		.loc 1 908 10 view .LVU262
 914 001c B842     		cmp	r0, r7
 915 001e 22D8     		bhi	.L66
 916              		.loc 1 908 51 discriminator 1 view .LVU263
 917 0020 5FB9     		cbnz	r7, .L60
 909:Drivers/STM32F4xx_HAL_Driver/Src/stm32f4xx_ll_fmc.c ****       {
 910:Drivers/STM32F4xx_HAL_Driver/Src/stm32f4xx_ll_fmc.c ****         return HAL_TIMEOUT;
 918              		.loc 1 910 16 view .LVU264
 919 0022 0320     		movs	r0, #3
 920 0024 18E0     		b	.L61
 921              	.L62:
 903:Drivers/STM32F4xx_HAL_Driver/Src/stm32f4xx_ll_fmc.c ****   {
 922              		.loc 1 903 10 discriminator 2 view .LVU265
 923 0026 746A     		ldr	r4, [r6, #36]
 903:Drivers/STM32F4xx_HAL_Driver/Src/stm32f4xx_ll_fmc.c ****   {
 924              		.loc 1 903 60 discriminator 2 view .LVU266
 925 0028 14F0400F 		tst	r4, #64
 926 002c 0CBF     		ite	eq
 927 002e 0124     		moveq	r4, #1
 928 0030 0024     		movne	r4, #0
 929              	.L63:
 903:Drivers/STM32F4xx_HAL_Driver/Src/stm32f4xx_ll_fmc.c ****   {
 930              		.loc 1 903 9 discriminator 4 view .LVU267
 931 0032 5CB1     		cbz	r4, .L69
 906:Drivers/STM32F4xx_HAL_Driver/Src/stm32f4xx_ll_fmc.c ****     {
 932              		.loc 1 906 5 is_stmt 1 view .LVU268
 906:Drivers/STM32F4xx_HAL_Driver/Src/stm32f4xx_ll_fmc.c ****     {
 933              		.loc 1 906 8 is_stmt 0 view .LVU269
 934 0034 B7F1FF3F 		cmp	r7, #-1
 935 0038 ECD1     		bne	.L70
 936              	.L60:
 903:Drivers/STM32F4xx_HAL_Driver/Src/stm32f4xx_ll_fmc.c ****   {
 937              		.loc 1 903 9 is_stmt 1 view .LVU270
 903:Drivers/STM32F4xx_HAL_Driver/Src/stm32f4xx_ll_fmc.c ****   {
 938              		.loc 1 903 60 is_stmt 0 view .LVU271
 939 003a 102D     		cmp	r5, #16
 940 003c F3D1     		bne	.L62
 903:Drivers/STM32F4xx_HAL_Driver/Src/stm32f4xx_ll_fmc.c ****   {
 941              		.loc 1 903 10 discriminator 1 view .LVU272
 942 003e 7368     		ldr	r3, [r6, #4]
 903:Drivers/STM32F4xx_HAL_Driver/Src/stm32f4xx_ll_fmc.c ****   {
 943              		.loc 1 903 60 discriminator 1 view .LVU273
 944 0040 13F0400F 		tst	r3, #64
 945 0044 0CBF     		ite	eq
 946 0046 0124     		moveq	r4, #1
ARM GAS  C:\Users\stefa\AppData\Local\Temp\ccMreSci.s 			page 34


 947 0048 0024     		movne	r4, #0
 948 004a F2E7     		b	.L63
 949              	.L69:
 911:Drivers/STM32F4xx_HAL_Driver/Src/stm32f4xx_ll_fmc.c ****       }
 912:Drivers/STM32F4xx_HAL_Driver/Src/stm32f4xx_ll_fmc.c ****     }
 913:Drivers/STM32F4xx_HAL_Driver/Src/stm32f4xx_ll_fmc.c ****   }
 914:Drivers/STM32F4xx_HAL_Driver/Src/stm32f4xx_ll_fmc.c **** 
 915:Drivers/STM32F4xx_HAL_Driver/Src/stm32f4xx_ll_fmc.c **** #if defined(FMC_Bank2_3)
 916:Drivers/STM32F4xx_HAL_Driver/Src/stm32f4xx_ll_fmc.c ****   if (Bank == FMC_NAND_BANK2)
 950              		.loc 1 916 3 is_stmt 1 view .LVU274
 951              		.loc 1 916 6 is_stmt 0 view .LVU275
 952 004c 102D     		cmp	r5, #16
 953 004e 05D0     		beq	.L71
 917:Drivers/STM32F4xx_HAL_Driver/Src/stm32f4xx_ll_fmc.c ****   {
 918:Drivers/STM32F4xx_HAL_Driver/Src/stm32f4xx_ll_fmc.c ****     /* Get the ECCR2 register value */
 919:Drivers/STM32F4xx_HAL_Driver/Src/stm32f4xx_ll_fmc.c ****     *ECCval = (uint32_t)Device->ECCR2;
 920:Drivers/STM32F4xx_HAL_Driver/Src/stm32f4xx_ll_fmc.c ****   }
 921:Drivers/STM32F4xx_HAL_Driver/Src/stm32f4xx_ll_fmc.c ****   else
 922:Drivers/STM32F4xx_HAL_Driver/Src/stm32f4xx_ll_fmc.c ****   {
 923:Drivers/STM32F4xx_HAL_Driver/Src/stm32f4xx_ll_fmc.c ****     /* Get the ECCR3 register value */
 924:Drivers/STM32F4xx_HAL_Driver/Src/stm32f4xx_ll_fmc.c ****     *ECCval = (uint32_t)Device->ECCR3;
 954              		.loc 1 924 5 is_stmt 1 view .LVU276
 955              		.loc 1 924 31 is_stmt 0 view .LVU277
 956 0050 736B     		ldr	r3, [r6, #52]
 957              		.loc 1 924 13 view .LVU278
 958 0052 C8F80030 		str	r3, [r8]
 925:Drivers/STM32F4xx_HAL_Driver/Src/stm32f4xx_ll_fmc.c ****   }
 926:Drivers/STM32F4xx_HAL_Driver/Src/stm32f4xx_ll_fmc.c **** #else
 927:Drivers/STM32F4xx_HAL_Driver/Src/stm32f4xx_ll_fmc.c ****   /* Prevent unused argument(s) compilation warning if no assert_param check */
 928:Drivers/STM32F4xx_HAL_Driver/Src/stm32f4xx_ll_fmc.c ****   UNUSED(Bank);
 929:Drivers/STM32F4xx_HAL_Driver/Src/stm32f4xx_ll_fmc.c **** 
 930:Drivers/STM32F4xx_HAL_Driver/Src/stm32f4xx_ll_fmc.c ****   /* Get the ECCR register value */
 931:Drivers/STM32F4xx_HAL_Driver/Src/stm32f4xx_ll_fmc.c ****   *ECCval = (uint32_t)Device->ECCR;
 932:Drivers/STM32F4xx_HAL_Driver/Src/stm32f4xx_ll_fmc.c **** #endif
 933:Drivers/STM32F4xx_HAL_Driver/Src/stm32f4xx_ll_fmc.c **** 
 934:Drivers/STM32F4xx_HAL_Driver/Src/stm32f4xx_ll_fmc.c ****   return HAL_OK;
 959              		.loc 1 934 10 view .LVU279
 960 0056 0020     		movs	r0, #0
 961              	.L61:
 935:Drivers/STM32F4xx_HAL_Driver/Src/stm32f4xx_ll_fmc.c **** }
 962              		.loc 1 935 1 view .LVU280
 963 0058 BDE8F883 		pop	{r3, r4, r5, r6, r7, r8, r9, pc}
 964              	.LVL61:
 965              	.L71:
 919:Drivers/STM32F4xx_HAL_Driver/Src/stm32f4xx_ll_fmc.c ****   }
 966              		.loc 1 919 5 is_stmt 1 view .LVU281
 919:Drivers/STM32F4xx_HAL_Driver/Src/stm32f4xx_ll_fmc.c ****   }
 967              		.loc 1 919 31 is_stmt 0 view .LVU282
 968 005c 7369     		ldr	r3, [r6, #20]
 919:Drivers/STM32F4xx_HAL_Driver/Src/stm32f4xx_ll_fmc.c ****   }
 969              		.loc 1 919 13 view .LVU283
 970 005e C8F80030 		str	r3, [r8]
 934:Drivers/STM32F4xx_HAL_Driver/Src/stm32f4xx_ll_fmc.c **** }
 971              		.loc 1 934 10 view .LVU284
 972 0062 0020     		movs	r0, #0
 973 0064 F8E7     		b	.L61
 974              	.L66:
ARM GAS  C:\Users\stefa\AppData\Local\Temp\ccMreSci.s 			page 35


 910:Drivers/STM32F4xx_HAL_Driver/Src/stm32f4xx_ll_fmc.c ****       }
 975              		.loc 1 910 16 view .LVU285
 976 0066 0320     		movs	r0, #3
 977 0068 F6E7     		b	.L61
 978              		.cfi_endproc
 979              	.LFE142:
 981              		.section	.text.FMC_PCCARD_Init,"ax",%progbits
 982              		.align	1
 983              		.global	FMC_PCCARD_Init
 984              		.syntax unified
 985              		.thumb
 986              		.thumb_func
 988              	FMC_PCCARD_Init:
 989              	.LVL62:
 990              	.LFB143:
 936:Drivers/STM32F4xx_HAL_Driver/Src/stm32f4xx_ll_fmc.c **** 
 937:Drivers/STM32F4xx_HAL_Driver/Src/stm32f4xx_ll_fmc.c **** /**
 938:Drivers/STM32F4xx_HAL_Driver/Src/stm32f4xx_ll_fmc.c ****   * @}
 939:Drivers/STM32F4xx_HAL_Driver/Src/stm32f4xx_ll_fmc.c ****   */
 940:Drivers/STM32F4xx_HAL_Driver/Src/stm32f4xx_ll_fmc.c **** #endif /* FMC_Bank3) || defined(FMC_Bank2_3 */
 941:Drivers/STM32F4xx_HAL_Driver/Src/stm32f4xx_ll_fmc.c **** 
 942:Drivers/STM32F4xx_HAL_Driver/Src/stm32f4xx_ll_fmc.c **** #if defined(FMC_Bank4)
 943:Drivers/STM32F4xx_HAL_Driver/Src/stm32f4xx_ll_fmc.c **** 
 944:Drivers/STM32F4xx_HAL_Driver/Src/stm32f4xx_ll_fmc.c **** /** @addtogroup FMC_LL_PCCARD
 945:Drivers/STM32F4xx_HAL_Driver/Src/stm32f4xx_ll_fmc.c ****   * @brief    PCCARD Controller functions
 946:Drivers/STM32F4xx_HAL_Driver/Src/stm32f4xx_ll_fmc.c ****   *
 947:Drivers/STM32F4xx_HAL_Driver/Src/stm32f4xx_ll_fmc.c ****   @verbatim
 948:Drivers/STM32F4xx_HAL_Driver/Src/stm32f4xx_ll_fmc.c ****   ==============================================================================
 949:Drivers/STM32F4xx_HAL_Driver/Src/stm32f4xx_ll_fmc.c ****                     ##### How to use PCCARD device driver #####
 950:Drivers/STM32F4xx_HAL_Driver/Src/stm32f4xx_ll_fmc.c ****   ==============================================================================
 951:Drivers/STM32F4xx_HAL_Driver/Src/stm32f4xx_ll_fmc.c ****   [..]
 952:Drivers/STM32F4xx_HAL_Driver/Src/stm32f4xx_ll_fmc.c ****     This driver contains a set of APIs to interface with the FMC PCCARD bank in order
 953:Drivers/STM32F4xx_HAL_Driver/Src/stm32f4xx_ll_fmc.c ****     to run the PCCARD/compact flash external devices.
 954:Drivers/STM32F4xx_HAL_Driver/Src/stm32f4xx_ll_fmc.c **** 
 955:Drivers/STM32F4xx_HAL_Driver/Src/stm32f4xx_ll_fmc.c ****     (+) FMC PCCARD bank reset using the function FMC_PCCARD_DeInit()
 956:Drivers/STM32F4xx_HAL_Driver/Src/stm32f4xx_ll_fmc.c ****     (+) FMC PCCARD bank control configuration using the function FMC_PCCARD_Init()
 957:Drivers/STM32F4xx_HAL_Driver/Src/stm32f4xx_ll_fmc.c ****     (+) FMC PCCARD bank common space timing configuration using the function
 958:Drivers/STM32F4xx_HAL_Driver/Src/stm32f4xx_ll_fmc.c ****         FMC_PCCARD_CommonSpace_Timing_Init()
 959:Drivers/STM32F4xx_HAL_Driver/Src/stm32f4xx_ll_fmc.c ****     (+) FMC PCCARD bank attribute space timing configuration using the function
 960:Drivers/STM32F4xx_HAL_Driver/Src/stm32f4xx_ll_fmc.c ****         FMC_PCCARD_AttributeSpace_Timing_Init()
 961:Drivers/STM32F4xx_HAL_Driver/Src/stm32f4xx_ll_fmc.c ****     (+) FMC PCCARD bank IO space timing configuration using the function
 962:Drivers/STM32F4xx_HAL_Driver/Src/stm32f4xx_ll_fmc.c ****         FMC_PCCARD_IOSpace_Timing_Init()
 963:Drivers/STM32F4xx_HAL_Driver/Src/stm32f4xx_ll_fmc.c **** @endverbatim
 964:Drivers/STM32F4xx_HAL_Driver/Src/stm32f4xx_ll_fmc.c ****   * @{
 965:Drivers/STM32F4xx_HAL_Driver/Src/stm32f4xx_ll_fmc.c ****   */
 966:Drivers/STM32F4xx_HAL_Driver/Src/stm32f4xx_ll_fmc.c **** 
 967:Drivers/STM32F4xx_HAL_Driver/Src/stm32f4xx_ll_fmc.c **** /** @addtogroup FMC_LL_PCCARD_Private_Functions_Group1
 968:Drivers/STM32F4xx_HAL_Driver/Src/stm32f4xx_ll_fmc.c ****   *  @brief    Initialization and Configuration functions
 969:Drivers/STM32F4xx_HAL_Driver/Src/stm32f4xx_ll_fmc.c ****   *
 970:Drivers/STM32F4xx_HAL_Driver/Src/stm32f4xx_ll_fmc.c **** @verbatim
 971:Drivers/STM32F4xx_HAL_Driver/Src/stm32f4xx_ll_fmc.c ****   ==============================================================================
 972:Drivers/STM32F4xx_HAL_Driver/Src/stm32f4xx_ll_fmc.c ****               ##### Initialization and de_initialization functions #####
 973:Drivers/STM32F4xx_HAL_Driver/Src/stm32f4xx_ll_fmc.c ****   ==============================================================================
 974:Drivers/STM32F4xx_HAL_Driver/Src/stm32f4xx_ll_fmc.c ****   [..]
 975:Drivers/STM32F4xx_HAL_Driver/Src/stm32f4xx_ll_fmc.c ****     This section provides functions allowing to:
 976:Drivers/STM32F4xx_HAL_Driver/Src/stm32f4xx_ll_fmc.c ****     (+) Initialize and configure the FMC PCCARD interface
 977:Drivers/STM32F4xx_HAL_Driver/Src/stm32f4xx_ll_fmc.c ****     (+) De-initialize the FMC PCCARD interface
ARM GAS  C:\Users\stefa\AppData\Local\Temp\ccMreSci.s 			page 36


 978:Drivers/STM32F4xx_HAL_Driver/Src/stm32f4xx_ll_fmc.c ****     (+) Configure the FMC clock and associated GPIOs
 979:Drivers/STM32F4xx_HAL_Driver/Src/stm32f4xx_ll_fmc.c **** 
 980:Drivers/STM32F4xx_HAL_Driver/Src/stm32f4xx_ll_fmc.c **** @endverbatim
 981:Drivers/STM32F4xx_HAL_Driver/Src/stm32f4xx_ll_fmc.c ****   * @{
 982:Drivers/STM32F4xx_HAL_Driver/Src/stm32f4xx_ll_fmc.c ****   */
 983:Drivers/STM32F4xx_HAL_Driver/Src/stm32f4xx_ll_fmc.c **** 
 984:Drivers/STM32F4xx_HAL_Driver/Src/stm32f4xx_ll_fmc.c **** /**
 985:Drivers/STM32F4xx_HAL_Driver/Src/stm32f4xx_ll_fmc.c ****   * @brief  Initializes the FMC_PCCARD device according to the specified
 986:Drivers/STM32F4xx_HAL_Driver/Src/stm32f4xx_ll_fmc.c ****   *         control parameters in the FMC_PCCARD_HandleTypeDef
 987:Drivers/STM32F4xx_HAL_Driver/Src/stm32f4xx_ll_fmc.c ****   * @param  Device Pointer to PCCARD device instance
 988:Drivers/STM32F4xx_HAL_Driver/Src/stm32f4xx_ll_fmc.c ****   * @param  Init Pointer to PCCARD Initialization structure
 989:Drivers/STM32F4xx_HAL_Driver/Src/stm32f4xx_ll_fmc.c ****   * @retval HAL status
 990:Drivers/STM32F4xx_HAL_Driver/Src/stm32f4xx_ll_fmc.c ****   */
 991:Drivers/STM32F4xx_HAL_Driver/Src/stm32f4xx_ll_fmc.c **** HAL_StatusTypeDef FMC_PCCARD_Init(FMC_PCCARD_TypeDef *Device, FMC_PCCARD_InitTypeDef *Init)
 992:Drivers/STM32F4xx_HAL_Driver/Src/stm32f4xx_ll_fmc.c **** {
 991              		.loc 1 992 1 is_stmt 1 view -0
 992              		.cfi_startproc
 993              		@ args = 0, pretend = 0, frame = 0
 994              		@ frame_needed = 0, uses_anonymous_args = 0
 995              		@ link register save eliminated.
 996              		.loc 1 992 1 is_stmt 0 view .LVU287
 997 0000 10B4     		push	{r4}
 998              	.LCFI10:
 999              		.cfi_def_cfa_offset 4
 1000              		.cfi_offset 4, -4
 993:Drivers/STM32F4xx_HAL_Driver/Src/stm32f4xx_ll_fmc.c ****   /* Check the parameters */
 994:Drivers/STM32F4xx_HAL_Driver/Src/stm32f4xx_ll_fmc.c ****   assert_param(IS_FMC_PCCARD_DEVICE(Device));
 1001              		.loc 1 994 3 is_stmt 1 view .LVU288
 995:Drivers/STM32F4xx_HAL_Driver/Src/stm32f4xx_ll_fmc.c **** #if defined(FMC_Bank3) || defined(FMC_Bank2_3)
 996:Drivers/STM32F4xx_HAL_Driver/Src/stm32f4xx_ll_fmc.c ****   assert_param(IS_FMC_WAIT_FEATURE(Init->Waitfeature));
 1002              		.loc 1 996 3 view .LVU289
 997:Drivers/STM32F4xx_HAL_Driver/Src/stm32f4xx_ll_fmc.c ****   assert_param(IS_FMC_TCLR_TIME(Init->TCLRSetupTime));
 1003              		.loc 1 997 3 view .LVU290
 998:Drivers/STM32F4xx_HAL_Driver/Src/stm32f4xx_ll_fmc.c ****   assert_param(IS_FMC_TAR_TIME(Init->TARSetupTime));
 1004              		.loc 1 998 3 view .LVU291
 999:Drivers/STM32F4xx_HAL_Driver/Src/stm32f4xx_ll_fmc.c **** #endif /* FMC_Bank3) || defined(FMC_Bank2_3 */
1000:Drivers/STM32F4xx_HAL_Driver/Src/stm32f4xx_ll_fmc.c **** 
1001:Drivers/STM32F4xx_HAL_Driver/Src/stm32f4xx_ll_fmc.c ****   /* Set FMC_PCCARD device control parameters */
1002:Drivers/STM32F4xx_HAL_Driver/Src/stm32f4xx_ll_fmc.c ****   MODIFY_REG(Device->PCR4,
 1005              		.loc 1 1002 3 view .LVU292
 1006 0002 0368     		ldr	r3, [r0]
 1007 0004 23F4FF33 		bic	r3, r3, #130560
 1008 0008 23F03A03 		bic	r3, r3, #58
 1009 000c 0A68     		ldr	r2, [r1]
 1010 000e 4C68     		ldr	r4, [r1, #4]
 1011 0010 42EA4422 		orr	r2, r2, r4, lsl #9
 1012 0014 8968     		ldr	r1, [r1, #8]
 1013              	.LVL63:
 1014              		.loc 1 1002 3 is_stmt 0 view .LVU293
 1015 0016 42EA4132 		orr	r2, r2, r1, lsl #13
 1016 001a 1343     		orrs	r3, r3, r2
 1017 001c 43F01003 		orr	r3, r3, #16
 1018 0020 0360     		str	r3, [r0]
1003:Drivers/STM32F4xx_HAL_Driver/Src/stm32f4xx_ll_fmc.c ****              (FMC_PCR4_PTYP                                          |
1004:Drivers/STM32F4xx_HAL_Driver/Src/stm32f4xx_ll_fmc.c ****               FMC_PCR4_PWAITEN                                       |
1005:Drivers/STM32F4xx_HAL_Driver/Src/stm32f4xx_ll_fmc.c ****               FMC_PCR4_PWID                                          |
1006:Drivers/STM32F4xx_HAL_Driver/Src/stm32f4xx_ll_fmc.c ****               FMC_PCR4_TCLR                                          |
ARM GAS  C:\Users\stefa\AppData\Local\Temp\ccMreSci.s 			page 37


1007:Drivers/STM32F4xx_HAL_Driver/Src/stm32f4xx_ll_fmc.c ****               FMC_PCR4_TAR),
1008:Drivers/STM32F4xx_HAL_Driver/Src/stm32f4xx_ll_fmc.c ****              (FMC_PCR_MEMORY_TYPE_PCCARD                             |
1009:Drivers/STM32F4xx_HAL_Driver/Src/stm32f4xx_ll_fmc.c ****               Init->Waitfeature                                      |
1010:Drivers/STM32F4xx_HAL_Driver/Src/stm32f4xx_ll_fmc.c ****               FMC_NAND_PCC_MEM_BUS_WIDTH_16                          |
1011:Drivers/STM32F4xx_HAL_Driver/Src/stm32f4xx_ll_fmc.c ****               (Init->TCLRSetupTime << FMC_PCR4_TCLR_Pos)   |
1012:Drivers/STM32F4xx_HAL_Driver/Src/stm32f4xx_ll_fmc.c ****               (Init->TARSetupTime  << FMC_PCR4_TAR_Pos)));
1013:Drivers/STM32F4xx_HAL_Driver/Src/stm32f4xx_ll_fmc.c **** 
1014:Drivers/STM32F4xx_HAL_Driver/Src/stm32f4xx_ll_fmc.c ****   return HAL_OK;
 1019              		.loc 1 1014 3 is_stmt 1 view .LVU294
1015:Drivers/STM32F4xx_HAL_Driver/Src/stm32f4xx_ll_fmc.c **** }
 1020              		.loc 1 1015 1 is_stmt 0 view .LVU295
 1021 0022 0020     		movs	r0, #0
 1022              	.LVL64:
 1023              		.loc 1 1015 1 view .LVU296
 1024 0024 5DF8044B 		ldr	r4, [sp], #4
 1025              	.LCFI11:
 1026              		.cfi_restore 4
 1027              		.cfi_def_cfa_offset 0
 1028 0028 7047     		bx	lr
 1029              		.cfi_endproc
 1030              	.LFE143:
 1032              		.section	.text.FMC_PCCARD_CommonSpace_Timing_Init,"ax",%progbits
 1033              		.align	1
 1034              		.global	FMC_PCCARD_CommonSpace_Timing_Init
 1035              		.syntax unified
 1036              		.thumb
 1037              		.thumb_func
 1039              	FMC_PCCARD_CommonSpace_Timing_Init:
 1040              	.LVL65:
 1041              	.LFB144:
1016:Drivers/STM32F4xx_HAL_Driver/Src/stm32f4xx_ll_fmc.c **** 
1017:Drivers/STM32F4xx_HAL_Driver/Src/stm32f4xx_ll_fmc.c **** /**
1018:Drivers/STM32F4xx_HAL_Driver/Src/stm32f4xx_ll_fmc.c ****   * @brief  Initializes the FMC_PCCARD Common space Timing according to the specified
1019:Drivers/STM32F4xx_HAL_Driver/Src/stm32f4xx_ll_fmc.c ****   *         parameters in the FMC_NAND_PCC_TimingTypeDef
1020:Drivers/STM32F4xx_HAL_Driver/Src/stm32f4xx_ll_fmc.c ****   * @param  Device Pointer to PCCARD device instance
1021:Drivers/STM32F4xx_HAL_Driver/Src/stm32f4xx_ll_fmc.c ****   * @param  Timing Pointer to PCCARD timing structure
1022:Drivers/STM32F4xx_HAL_Driver/Src/stm32f4xx_ll_fmc.c ****   * @retval HAL status
1023:Drivers/STM32F4xx_HAL_Driver/Src/stm32f4xx_ll_fmc.c ****   */
1024:Drivers/STM32F4xx_HAL_Driver/Src/stm32f4xx_ll_fmc.c **** HAL_StatusTypeDef FMC_PCCARD_CommonSpace_Timing_Init(FMC_PCCARD_TypeDef *Device,
1025:Drivers/STM32F4xx_HAL_Driver/Src/stm32f4xx_ll_fmc.c ****                                                               FMC_NAND_PCC_TimingTypeDef *Timing)
1026:Drivers/STM32F4xx_HAL_Driver/Src/stm32f4xx_ll_fmc.c **** {
 1042              		.loc 1 1026 1 is_stmt 1 view -0
 1043              		.cfi_startproc
 1044              		@ args = 0, pretend = 0, frame = 0
 1045              		@ frame_needed = 0, uses_anonymous_args = 0
 1046              		@ link register save eliminated.
1027:Drivers/STM32F4xx_HAL_Driver/Src/stm32f4xx_ll_fmc.c ****   /* Check the parameters */
1028:Drivers/STM32F4xx_HAL_Driver/Src/stm32f4xx_ll_fmc.c ****   assert_param(IS_FMC_PCCARD_DEVICE(Device));
 1047              		.loc 1 1028 3 view .LVU298
1029:Drivers/STM32F4xx_HAL_Driver/Src/stm32f4xx_ll_fmc.c **** #if defined(FMC_Bank3) || defined(FMC_Bank2_3)
1030:Drivers/STM32F4xx_HAL_Driver/Src/stm32f4xx_ll_fmc.c ****   assert_param(IS_FMC_SETUP_TIME(Timing->SetupTime));
 1048              		.loc 1 1030 3 view .LVU299
1031:Drivers/STM32F4xx_HAL_Driver/Src/stm32f4xx_ll_fmc.c ****   assert_param(IS_FMC_WAIT_TIME(Timing->WaitSetupTime));
 1049              		.loc 1 1031 3 view .LVU300
1032:Drivers/STM32F4xx_HAL_Driver/Src/stm32f4xx_ll_fmc.c ****   assert_param(IS_FMC_HOLD_TIME(Timing->HoldSetupTime));
 1050              		.loc 1 1032 3 view .LVU301
1033:Drivers/STM32F4xx_HAL_Driver/Src/stm32f4xx_ll_fmc.c ****   assert_param(IS_FMC_HIZ_TIME(Timing->HiZSetupTime));
ARM GAS  C:\Users\stefa\AppData\Local\Temp\ccMreSci.s 			page 38


 1051              		.loc 1 1033 3 view .LVU302
1034:Drivers/STM32F4xx_HAL_Driver/Src/stm32f4xx_ll_fmc.c **** #endif /* FMC_Bank3) || defined(FMC_Bank2_3 */
1035:Drivers/STM32F4xx_HAL_Driver/Src/stm32f4xx_ll_fmc.c **** 
1036:Drivers/STM32F4xx_HAL_Driver/Src/stm32f4xx_ll_fmc.c ****   /* Set PCCARD timing parameters */
1037:Drivers/STM32F4xx_HAL_Driver/Src/stm32f4xx_ll_fmc.c ****   MODIFY_REG(Device->PMEM4, PMEM4_CLEAR_MASK,
 1052              		.loc 1 1037 3 view .LVU303
 1053 0000 8368     		ldr	r3, [r0, #8]
 1054 0002 0B68     		ldr	r3, [r1]
 1055 0004 4A68     		ldr	r2, [r1, #4]
 1056 0006 43EA0223 		orr	r3, r3, r2, lsl #8
 1057 000a 8A68     		ldr	r2, [r1, #8]
 1058 000c 43EA0243 		orr	r3, r3, r2, lsl #16
 1059 0010 CA68     		ldr	r2, [r1, #12]
 1060 0012 43EA0263 		orr	r3, r3, r2, lsl #24
 1061 0016 8360     		str	r3, [r0, #8]
1038:Drivers/STM32F4xx_HAL_Driver/Src/stm32f4xx_ll_fmc.c ****              (Timing->SetupTime                                              |
1039:Drivers/STM32F4xx_HAL_Driver/Src/stm32f4xx_ll_fmc.c ****               ((Timing->WaitSetupTime) << FMC_PMEM4_MEMWAIT4_Pos)  |
1040:Drivers/STM32F4xx_HAL_Driver/Src/stm32f4xx_ll_fmc.c ****               ((Timing->HoldSetupTime) << FMC_PMEM4_MEMHOLD4_Pos)  |
1041:Drivers/STM32F4xx_HAL_Driver/Src/stm32f4xx_ll_fmc.c ****               ((Timing->HiZSetupTime)  << FMC_PMEM4_MEMHIZ4_Pos)));
1042:Drivers/STM32F4xx_HAL_Driver/Src/stm32f4xx_ll_fmc.c **** 
1043:Drivers/STM32F4xx_HAL_Driver/Src/stm32f4xx_ll_fmc.c ****   return HAL_OK;
 1062              		.loc 1 1043 3 view .LVU304
1044:Drivers/STM32F4xx_HAL_Driver/Src/stm32f4xx_ll_fmc.c **** }
 1063              		.loc 1 1044 1 is_stmt 0 view .LVU305
 1064 0018 0020     		movs	r0, #0
 1065              	.LVL66:
 1066              		.loc 1 1044 1 view .LVU306
 1067 001a 7047     		bx	lr
 1068              		.cfi_endproc
 1069              	.LFE144:
 1071              		.section	.text.FMC_PCCARD_AttributeSpace_Timing_Init,"ax",%progbits
 1072              		.align	1
 1073              		.global	FMC_PCCARD_AttributeSpace_Timing_Init
 1074              		.syntax unified
 1075              		.thumb
 1076              		.thumb_func
 1078              	FMC_PCCARD_AttributeSpace_Timing_Init:
 1079              	.LVL67:
 1080              	.LFB145:
1045:Drivers/STM32F4xx_HAL_Driver/Src/stm32f4xx_ll_fmc.c **** 
1046:Drivers/STM32F4xx_HAL_Driver/Src/stm32f4xx_ll_fmc.c **** /**
1047:Drivers/STM32F4xx_HAL_Driver/Src/stm32f4xx_ll_fmc.c ****   * @brief  Initializes the FMC_PCCARD Attribute space Timing according to the specified
1048:Drivers/STM32F4xx_HAL_Driver/Src/stm32f4xx_ll_fmc.c ****   *         parameters in the FMC_NAND_PCC_TimingTypeDef
1049:Drivers/STM32F4xx_HAL_Driver/Src/stm32f4xx_ll_fmc.c ****   * @param  Device Pointer to PCCARD device instance
1050:Drivers/STM32F4xx_HAL_Driver/Src/stm32f4xx_ll_fmc.c ****   * @param  Timing Pointer to PCCARD timing structure
1051:Drivers/STM32F4xx_HAL_Driver/Src/stm32f4xx_ll_fmc.c ****   * @retval HAL status
1052:Drivers/STM32F4xx_HAL_Driver/Src/stm32f4xx_ll_fmc.c ****   */
1053:Drivers/STM32F4xx_HAL_Driver/Src/stm32f4xx_ll_fmc.c **** HAL_StatusTypeDef FMC_PCCARD_AttributeSpace_Timing_Init(FMC_PCCARD_TypeDef *Device,
1054:Drivers/STM32F4xx_HAL_Driver/Src/stm32f4xx_ll_fmc.c ****                                                                  FMC_NAND_PCC_TimingTypeDef *Timing
1055:Drivers/STM32F4xx_HAL_Driver/Src/stm32f4xx_ll_fmc.c **** {
 1081              		.loc 1 1055 1 is_stmt 1 view -0
 1082              		.cfi_startproc
 1083              		@ args = 0, pretend = 0, frame = 0
 1084              		@ frame_needed = 0, uses_anonymous_args = 0
 1085              		@ link register save eliminated.
1056:Drivers/STM32F4xx_HAL_Driver/Src/stm32f4xx_ll_fmc.c ****   /* Check the parameters */
1057:Drivers/STM32F4xx_HAL_Driver/Src/stm32f4xx_ll_fmc.c ****   assert_param(IS_FMC_PCCARD_DEVICE(Device));
ARM GAS  C:\Users\stefa\AppData\Local\Temp\ccMreSci.s 			page 39


 1086              		.loc 1 1057 3 view .LVU308
1058:Drivers/STM32F4xx_HAL_Driver/Src/stm32f4xx_ll_fmc.c **** #if defined(FMC_Bank3) || defined(FMC_Bank2_3)
1059:Drivers/STM32F4xx_HAL_Driver/Src/stm32f4xx_ll_fmc.c ****   assert_param(IS_FMC_SETUP_TIME(Timing->SetupTime));
 1087              		.loc 1 1059 3 view .LVU309
1060:Drivers/STM32F4xx_HAL_Driver/Src/stm32f4xx_ll_fmc.c ****   assert_param(IS_FMC_WAIT_TIME(Timing->WaitSetupTime));
 1088              		.loc 1 1060 3 view .LVU310
1061:Drivers/STM32F4xx_HAL_Driver/Src/stm32f4xx_ll_fmc.c ****   assert_param(IS_FMC_HOLD_TIME(Timing->HoldSetupTime));
 1089              		.loc 1 1061 3 view .LVU311
1062:Drivers/STM32F4xx_HAL_Driver/Src/stm32f4xx_ll_fmc.c ****   assert_param(IS_FMC_HIZ_TIME(Timing->HiZSetupTime));
 1090              		.loc 1 1062 3 view .LVU312
1063:Drivers/STM32F4xx_HAL_Driver/Src/stm32f4xx_ll_fmc.c **** #endif /* FMC_Bank3) || defined(FMC_Bank2_3 */
1064:Drivers/STM32F4xx_HAL_Driver/Src/stm32f4xx_ll_fmc.c **** 
1065:Drivers/STM32F4xx_HAL_Driver/Src/stm32f4xx_ll_fmc.c ****   /* Set PCCARD timing parameters */
1066:Drivers/STM32F4xx_HAL_Driver/Src/stm32f4xx_ll_fmc.c ****   MODIFY_REG(Device->PATT4, PATT4_CLEAR_MASK,
 1091              		.loc 1 1066 3 view .LVU313
 1092 0000 C368     		ldr	r3, [r0, #12]
 1093 0002 0B68     		ldr	r3, [r1]
 1094 0004 4A68     		ldr	r2, [r1, #4]
 1095 0006 43EA0223 		orr	r3, r3, r2, lsl #8
 1096 000a 8A68     		ldr	r2, [r1, #8]
 1097 000c 43EA0243 		orr	r3, r3, r2, lsl #16
 1098 0010 CA68     		ldr	r2, [r1, #12]
 1099 0012 43EA0263 		orr	r3, r3, r2, lsl #24
 1100 0016 C360     		str	r3, [r0, #12]
1067:Drivers/STM32F4xx_HAL_Driver/Src/stm32f4xx_ll_fmc.c ****              (Timing->SetupTime                                              |
1068:Drivers/STM32F4xx_HAL_Driver/Src/stm32f4xx_ll_fmc.c ****               ((Timing->WaitSetupTime) << FMC_PATT4_ATTWAIT4_Pos)  |
1069:Drivers/STM32F4xx_HAL_Driver/Src/stm32f4xx_ll_fmc.c ****               ((Timing->HoldSetupTime) << FMC_PATT4_ATTHOLD4_Pos)  |
1070:Drivers/STM32F4xx_HAL_Driver/Src/stm32f4xx_ll_fmc.c ****               ((Timing->HiZSetupTime)  << FMC_PATT4_ATTHIZ4_Pos)));
1071:Drivers/STM32F4xx_HAL_Driver/Src/stm32f4xx_ll_fmc.c **** 
1072:Drivers/STM32F4xx_HAL_Driver/Src/stm32f4xx_ll_fmc.c ****   return HAL_OK;
 1101              		.loc 1 1072 3 view .LVU314
1073:Drivers/STM32F4xx_HAL_Driver/Src/stm32f4xx_ll_fmc.c **** }
 1102              		.loc 1 1073 1 is_stmt 0 view .LVU315
 1103 0018 0020     		movs	r0, #0
 1104              	.LVL68:
 1105              		.loc 1 1073 1 view .LVU316
 1106 001a 7047     		bx	lr
 1107              		.cfi_endproc
 1108              	.LFE145:
 1110              		.section	.text.FMC_PCCARD_IOSpace_Timing_Init,"ax",%progbits
 1111              		.align	1
 1112              		.global	FMC_PCCARD_IOSpace_Timing_Init
 1113              		.syntax unified
 1114              		.thumb
 1115              		.thumb_func
 1117              	FMC_PCCARD_IOSpace_Timing_Init:
 1118              	.LVL69:
 1119              	.LFB146:
1074:Drivers/STM32F4xx_HAL_Driver/Src/stm32f4xx_ll_fmc.c **** 
1075:Drivers/STM32F4xx_HAL_Driver/Src/stm32f4xx_ll_fmc.c **** /**
1076:Drivers/STM32F4xx_HAL_Driver/Src/stm32f4xx_ll_fmc.c ****   * @brief  Initializes the FMC_PCCARD IO space Timing according to the specified
1077:Drivers/STM32F4xx_HAL_Driver/Src/stm32f4xx_ll_fmc.c ****   *         parameters in the FMC_NAND_PCC_TimingTypeDef
1078:Drivers/STM32F4xx_HAL_Driver/Src/stm32f4xx_ll_fmc.c ****   * @param  Device Pointer to PCCARD device instance
1079:Drivers/STM32F4xx_HAL_Driver/Src/stm32f4xx_ll_fmc.c ****   * @param  Timing Pointer to PCCARD timing structure
1080:Drivers/STM32F4xx_HAL_Driver/Src/stm32f4xx_ll_fmc.c ****   * @retval HAL status
1081:Drivers/STM32F4xx_HAL_Driver/Src/stm32f4xx_ll_fmc.c ****   */
1082:Drivers/STM32F4xx_HAL_Driver/Src/stm32f4xx_ll_fmc.c **** HAL_StatusTypeDef FMC_PCCARD_IOSpace_Timing_Init(FMC_PCCARD_TypeDef *Device,
ARM GAS  C:\Users\stefa\AppData\Local\Temp\ccMreSci.s 			page 40


1083:Drivers/STM32F4xx_HAL_Driver/Src/stm32f4xx_ll_fmc.c ****                                                           FMC_NAND_PCC_TimingTypeDef *Timing)
1084:Drivers/STM32F4xx_HAL_Driver/Src/stm32f4xx_ll_fmc.c **** {
 1120              		.loc 1 1084 1 is_stmt 1 view -0
 1121              		.cfi_startproc
 1122              		@ args = 0, pretend = 0, frame = 0
 1123              		@ frame_needed = 0, uses_anonymous_args = 0
 1124              		@ link register save eliminated.
1085:Drivers/STM32F4xx_HAL_Driver/Src/stm32f4xx_ll_fmc.c ****   /* Check the parameters */
1086:Drivers/STM32F4xx_HAL_Driver/Src/stm32f4xx_ll_fmc.c ****   assert_param(IS_FMC_PCCARD_DEVICE(Device));
 1125              		.loc 1 1086 3 view .LVU318
1087:Drivers/STM32F4xx_HAL_Driver/Src/stm32f4xx_ll_fmc.c **** #if defined(FMC_Bank3) || defined(FMC_Bank2_3)
1088:Drivers/STM32F4xx_HAL_Driver/Src/stm32f4xx_ll_fmc.c ****   assert_param(IS_FMC_SETUP_TIME(Timing->SetupTime));
 1126              		.loc 1 1088 3 view .LVU319
1089:Drivers/STM32F4xx_HAL_Driver/Src/stm32f4xx_ll_fmc.c ****   assert_param(IS_FMC_WAIT_TIME(Timing->WaitSetupTime));
 1127              		.loc 1 1089 3 view .LVU320
1090:Drivers/STM32F4xx_HAL_Driver/Src/stm32f4xx_ll_fmc.c ****   assert_param(IS_FMC_HOLD_TIME(Timing->HoldSetupTime));
 1128              		.loc 1 1090 3 view .LVU321
1091:Drivers/STM32F4xx_HAL_Driver/Src/stm32f4xx_ll_fmc.c ****   assert_param(IS_FMC_HIZ_TIME(Timing->HiZSetupTime));
 1129              		.loc 1 1091 3 view .LVU322
1092:Drivers/STM32F4xx_HAL_Driver/Src/stm32f4xx_ll_fmc.c **** #endif /* FMC_Bank3) || defined(FMC_Bank2_3 */
1093:Drivers/STM32F4xx_HAL_Driver/Src/stm32f4xx_ll_fmc.c **** 
1094:Drivers/STM32F4xx_HAL_Driver/Src/stm32f4xx_ll_fmc.c ****   /* Set FMC_PCCARD device timing parameters */
1095:Drivers/STM32F4xx_HAL_Driver/Src/stm32f4xx_ll_fmc.c ****   MODIFY_REG(Device->PIO4, PIO4_CLEAR_MASK,
 1130              		.loc 1 1095 3 view .LVU323
 1131 0000 0369     		ldr	r3, [r0, #16]
 1132 0002 0B68     		ldr	r3, [r1]
 1133 0004 4A68     		ldr	r2, [r1, #4]
 1134 0006 43EA0223 		orr	r3, r3, r2, lsl #8
 1135 000a 8A68     		ldr	r2, [r1, #8]
 1136 000c 43EA0243 		orr	r3, r3, r2, lsl #16
 1137 0010 CA68     		ldr	r2, [r1, #12]
 1138 0012 43EA0263 		orr	r3, r3, r2, lsl #24
 1139 0016 0361     		str	r3, [r0, #16]
1096:Drivers/STM32F4xx_HAL_Driver/Src/stm32f4xx_ll_fmc.c ****              (Timing->SetupTime                                           |
1097:Drivers/STM32F4xx_HAL_Driver/Src/stm32f4xx_ll_fmc.c ****               (Timing->WaitSetupTime   << FMC_PIO4_IOWAIT4_Pos) |
1098:Drivers/STM32F4xx_HAL_Driver/Src/stm32f4xx_ll_fmc.c ****               (Timing->HoldSetupTime   << FMC_PIO4_IOHOLD4_Pos) |
1099:Drivers/STM32F4xx_HAL_Driver/Src/stm32f4xx_ll_fmc.c ****               (Timing->HiZSetupTime    << FMC_PIO4_IOHIZ4_Pos)));
1100:Drivers/STM32F4xx_HAL_Driver/Src/stm32f4xx_ll_fmc.c **** 
1101:Drivers/STM32F4xx_HAL_Driver/Src/stm32f4xx_ll_fmc.c ****   return HAL_OK;
 1140              		.loc 1 1101 3 view .LVU324
1102:Drivers/STM32F4xx_HAL_Driver/Src/stm32f4xx_ll_fmc.c **** }
 1141              		.loc 1 1102 1 is_stmt 0 view .LVU325
 1142 0018 0020     		movs	r0, #0
 1143              	.LVL70:
 1144              		.loc 1 1102 1 view .LVU326
 1145 001a 7047     		bx	lr
 1146              		.cfi_endproc
 1147              	.LFE146:
 1149              		.section	.text.FMC_PCCARD_DeInit,"ax",%progbits
 1150              		.align	1
 1151              		.global	FMC_PCCARD_DeInit
 1152              		.syntax unified
 1153              		.thumb
 1154              		.thumb_func
 1156              	FMC_PCCARD_DeInit:
 1157              	.LVL71:
 1158              	.LFB147:
ARM GAS  C:\Users\stefa\AppData\Local\Temp\ccMreSci.s 			page 41


1103:Drivers/STM32F4xx_HAL_Driver/Src/stm32f4xx_ll_fmc.c **** 
1104:Drivers/STM32F4xx_HAL_Driver/Src/stm32f4xx_ll_fmc.c **** /**
1105:Drivers/STM32F4xx_HAL_Driver/Src/stm32f4xx_ll_fmc.c ****   * @brief  DeInitializes the FMC_PCCARD device
1106:Drivers/STM32F4xx_HAL_Driver/Src/stm32f4xx_ll_fmc.c ****   * @param  Device Pointer to PCCARD device instance
1107:Drivers/STM32F4xx_HAL_Driver/Src/stm32f4xx_ll_fmc.c ****   * @retval HAL status
1108:Drivers/STM32F4xx_HAL_Driver/Src/stm32f4xx_ll_fmc.c ****   */
1109:Drivers/STM32F4xx_HAL_Driver/Src/stm32f4xx_ll_fmc.c **** HAL_StatusTypeDef FMC_PCCARD_DeInit(FMC_PCCARD_TypeDef *Device)
1110:Drivers/STM32F4xx_HAL_Driver/Src/stm32f4xx_ll_fmc.c **** {
 1159              		.loc 1 1110 1 is_stmt 1 view -0
 1160              		.cfi_startproc
 1161              		@ args = 0, pretend = 0, frame = 0
 1162              		@ frame_needed = 0, uses_anonymous_args = 0
 1163              		@ link register save eliminated.
1111:Drivers/STM32F4xx_HAL_Driver/Src/stm32f4xx_ll_fmc.c ****   /* Check the parameters */
1112:Drivers/STM32F4xx_HAL_Driver/Src/stm32f4xx_ll_fmc.c ****   assert_param(IS_FMC_PCCARD_DEVICE(Device));
 1164              		.loc 1 1112 3 view .LVU328
1113:Drivers/STM32F4xx_HAL_Driver/Src/stm32f4xx_ll_fmc.c **** 
1114:Drivers/STM32F4xx_HAL_Driver/Src/stm32f4xx_ll_fmc.c ****   /* Disable the FMC_PCCARD device */
1115:Drivers/STM32F4xx_HAL_Driver/Src/stm32f4xx_ll_fmc.c ****   __FMC_PCCARD_DISABLE(Device);
 1165              		.loc 1 1115 3 view .LVU329
 1166 0000 0368     		ldr	r3, [r0]
 1167 0002 23F00403 		bic	r3, r3, #4
 1168 0006 0360     		str	r3, [r0]
1116:Drivers/STM32F4xx_HAL_Driver/Src/stm32f4xx_ll_fmc.c **** 
1117:Drivers/STM32F4xx_HAL_Driver/Src/stm32f4xx_ll_fmc.c ****   /* De-initialize the FMC_PCCARD device */
1118:Drivers/STM32F4xx_HAL_Driver/Src/stm32f4xx_ll_fmc.c ****   Device->PCR4    = 0x00000018U;
 1169              		.loc 1 1118 3 view .LVU330
 1170              		.loc 1 1118 19 is_stmt 0 view .LVU331
 1171 0008 1823     		movs	r3, #24
 1172 000a 0360     		str	r3, [r0]
1119:Drivers/STM32F4xx_HAL_Driver/Src/stm32f4xx_ll_fmc.c ****   Device->SR4     = 0x00000040U;
 1173              		.loc 1 1119 3 is_stmt 1 view .LVU332
 1174              		.loc 1 1119 19 is_stmt 0 view .LVU333
 1175 000c 4023     		movs	r3, #64
 1176 000e 4360     		str	r3, [r0, #4]
1120:Drivers/STM32F4xx_HAL_Driver/Src/stm32f4xx_ll_fmc.c ****   Device->PMEM4   = 0xFCFCFCFCU;
 1177              		.loc 1 1120 3 is_stmt 1 view .LVU334
 1178              		.loc 1 1120 19 is_stmt 0 view .LVU335
 1179 0010 4FF0FC33 		mov	r3, #-50529028
 1180 0014 8360     		str	r3, [r0, #8]
1121:Drivers/STM32F4xx_HAL_Driver/Src/stm32f4xx_ll_fmc.c ****   Device->PATT4   = 0xFCFCFCFCU;
 1181              		.loc 1 1121 3 is_stmt 1 view .LVU336
 1182              		.loc 1 1121 19 is_stmt 0 view .LVU337
 1183 0016 C360     		str	r3, [r0, #12]
1122:Drivers/STM32F4xx_HAL_Driver/Src/stm32f4xx_ll_fmc.c ****   Device->PIO4    = 0xFCFCFCFCU;
 1184              		.loc 1 1122 3 is_stmt 1 view .LVU338
 1185              		.loc 1 1122 19 is_stmt 0 view .LVU339
 1186 0018 0361     		str	r3, [r0, #16]
1123:Drivers/STM32F4xx_HAL_Driver/Src/stm32f4xx_ll_fmc.c **** 
1124:Drivers/STM32F4xx_HAL_Driver/Src/stm32f4xx_ll_fmc.c ****   return HAL_OK;
 1187              		.loc 1 1124 3 is_stmt 1 view .LVU340
1125:Drivers/STM32F4xx_HAL_Driver/Src/stm32f4xx_ll_fmc.c **** }
 1188              		.loc 1 1125 1 is_stmt 0 view .LVU341
 1189 001a 0020     		movs	r0, #0
 1190              	.LVL72:
 1191              		.loc 1 1125 1 view .LVU342
 1192 001c 7047     		bx	lr
ARM GAS  C:\Users\stefa\AppData\Local\Temp\ccMreSci.s 			page 42


 1193              		.cfi_endproc
 1194              	.LFE147:
 1196              		.section	.text.FMC_SDRAM_Init,"ax",%progbits
 1197              		.align	1
 1198              		.global	FMC_SDRAM_Init
 1199              		.syntax unified
 1200              		.thumb
 1201              		.thumb_func
 1203              	FMC_SDRAM_Init:
 1204              	.LVL73:
 1205              	.LFB148:
1126:Drivers/STM32F4xx_HAL_Driver/Src/stm32f4xx_ll_fmc.c **** 
1127:Drivers/STM32F4xx_HAL_Driver/Src/stm32f4xx_ll_fmc.c **** /**
1128:Drivers/STM32F4xx_HAL_Driver/Src/stm32f4xx_ll_fmc.c ****   * @}
1129:Drivers/STM32F4xx_HAL_Driver/Src/stm32f4xx_ll_fmc.c ****   */
1130:Drivers/STM32F4xx_HAL_Driver/Src/stm32f4xx_ll_fmc.c **** #endif /* FMC_Bank4 */
1131:Drivers/STM32F4xx_HAL_Driver/Src/stm32f4xx_ll_fmc.c **** 
1132:Drivers/STM32F4xx_HAL_Driver/Src/stm32f4xx_ll_fmc.c **** #if defined(FMC_Bank5_6)
1133:Drivers/STM32F4xx_HAL_Driver/Src/stm32f4xx_ll_fmc.c **** 
1134:Drivers/STM32F4xx_HAL_Driver/Src/stm32f4xx_ll_fmc.c **** /** @defgroup FMC_LL_SDRAM
1135:Drivers/STM32F4xx_HAL_Driver/Src/stm32f4xx_ll_fmc.c ****   * @brief    SDRAM Controller functions
1136:Drivers/STM32F4xx_HAL_Driver/Src/stm32f4xx_ll_fmc.c ****   *
1137:Drivers/STM32F4xx_HAL_Driver/Src/stm32f4xx_ll_fmc.c ****   @verbatim
1138:Drivers/STM32F4xx_HAL_Driver/Src/stm32f4xx_ll_fmc.c ****   ==============================================================================
1139:Drivers/STM32F4xx_HAL_Driver/Src/stm32f4xx_ll_fmc.c ****                      ##### How to use SDRAM device driver #####
1140:Drivers/STM32F4xx_HAL_Driver/Src/stm32f4xx_ll_fmc.c ****   ==============================================================================
1141:Drivers/STM32F4xx_HAL_Driver/Src/stm32f4xx_ll_fmc.c ****   [..]
1142:Drivers/STM32F4xx_HAL_Driver/Src/stm32f4xx_ll_fmc.c ****     This driver contains a set of APIs to interface with the FMC SDRAM banks in order
1143:Drivers/STM32F4xx_HAL_Driver/Src/stm32f4xx_ll_fmc.c ****     to run the SDRAM external devices.
1144:Drivers/STM32F4xx_HAL_Driver/Src/stm32f4xx_ll_fmc.c **** 
1145:Drivers/STM32F4xx_HAL_Driver/Src/stm32f4xx_ll_fmc.c ****     (+) FMC SDRAM bank reset using the function FMC_SDRAM_DeInit()
1146:Drivers/STM32F4xx_HAL_Driver/Src/stm32f4xx_ll_fmc.c ****     (+) FMC SDRAM bank control configuration using the function FMC_SDRAM_Init()
1147:Drivers/STM32F4xx_HAL_Driver/Src/stm32f4xx_ll_fmc.c ****     (+) FMC SDRAM bank timing configuration using the function FMC_SDRAM_Timing_Init()
1148:Drivers/STM32F4xx_HAL_Driver/Src/stm32f4xx_ll_fmc.c ****     (+) FMC SDRAM bank enable/disable write operation using the functions
1149:Drivers/STM32F4xx_HAL_Driver/Src/stm32f4xx_ll_fmc.c ****         FMC_SDRAM_WriteOperation_Enable()/FMC_SDRAM_WriteOperation_Disable()
1150:Drivers/STM32F4xx_HAL_Driver/Src/stm32f4xx_ll_fmc.c ****     (+) FMC SDRAM bank send command using the function FMC_SDRAM_SendCommand()
1151:Drivers/STM32F4xx_HAL_Driver/Src/stm32f4xx_ll_fmc.c **** 
1152:Drivers/STM32F4xx_HAL_Driver/Src/stm32f4xx_ll_fmc.c **** @endverbatim
1153:Drivers/STM32F4xx_HAL_Driver/Src/stm32f4xx_ll_fmc.c ****   * @{
1154:Drivers/STM32F4xx_HAL_Driver/Src/stm32f4xx_ll_fmc.c ****   */
1155:Drivers/STM32F4xx_HAL_Driver/Src/stm32f4xx_ll_fmc.c **** 
1156:Drivers/STM32F4xx_HAL_Driver/Src/stm32f4xx_ll_fmc.c **** /** @addtogroup FMC_LL_SDRAM_Private_Functions_Group1
1157:Drivers/STM32F4xx_HAL_Driver/Src/stm32f4xx_ll_fmc.c ****   *  @brief    Initialization and Configuration functions
1158:Drivers/STM32F4xx_HAL_Driver/Src/stm32f4xx_ll_fmc.c ****   *
1159:Drivers/STM32F4xx_HAL_Driver/Src/stm32f4xx_ll_fmc.c **** @verbatim
1160:Drivers/STM32F4xx_HAL_Driver/Src/stm32f4xx_ll_fmc.c ****   ==============================================================================
1161:Drivers/STM32F4xx_HAL_Driver/Src/stm32f4xx_ll_fmc.c ****               ##### Initialization and de_initialization functions #####
1162:Drivers/STM32F4xx_HAL_Driver/Src/stm32f4xx_ll_fmc.c ****   ==============================================================================
1163:Drivers/STM32F4xx_HAL_Driver/Src/stm32f4xx_ll_fmc.c ****   [..]
1164:Drivers/STM32F4xx_HAL_Driver/Src/stm32f4xx_ll_fmc.c ****     This section provides functions allowing to:
1165:Drivers/STM32F4xx_HAL_Driver/Src/stm32f4xx_ll_fmc.c ****     (+) Initialize and configure the FMC SDRAM interface
1166:Drivers/STM32F4xx_HAL_Driver/Src/stm32f4xx_ll_fmc.c ****     (+) De-initialize the FMC SDRAM interface
1167:Drivers/STM32F4xx_HAL_Driver/Src/stm32f4xx_ll_fmc.c ****     (+) Configure the FMC clock and associated GPIOs
1168:Drivers/STM32F4xx_HAL_Driver/Src/stm32f4xx_ll_fmc.c **** 
1169:Drivers/STM32F4xx_HAL_Driver/Src/stm32f4xx_ll_fmc.c **** @endverbatim
1170:Drivers/STM32F4xx_HAL_Driver/Src/stm32f4xx_ll_fmc.c ****   * @{
1171:Drivers/STM32F4xx_HAL_Driver/Src/stm32f4xx_ll_fmc.c ****   */
ARM GAS  C:\Users\stefa\AppData\Local\Temp\ccMreSci.s 			page 43


1172:Drivers/STM32F4xx_HAL_Driver/Src/stm32f4xx_ll_fmc.c **** 
1173:Drivers/STM32F4xx_HAL_Driver/Src/stm32f4xx_ll_fmc.c **** /**
1174:Drivers/STM32F4xx_HAL_Driver/Src/stm32f4xx_ll_fmc.c ****   * @brief  Initializes the FMC_SDRAM device according to the specified
1175:Drivers/STM32F4xx_HAL_Driver/Src/stm32f4xx_ll_fmc.c ****   *         control parameters in the FMC_SDRAM_InitTypeDef
1176:Drivers/STM32F4xx_HAL_Driver/Src/stm32f4xx_ll_fmc.c ****   * @param  Device Pointer to SDRAM device instance
1177:Drivers/STM32F4xx_HAL_Driver/Src/stm32f4xx_ll_fmc.c ****   * @param  Init Pointer to SDRAM Initialization structure
1178:Drivers/STM32F4xx_HAL_Driver/Src/stm32f4xx_ll_fmc.c ****   * @retval HAL status
1179:Drivers/STM32F4xx_HAL_Driver/Src/stm32f4xx_ll_fmc.c ****   */
1180:Drivers/STM32F4xx_HAL_Driver/Src/stm32f4xx_ll_fmc.c **** HAL_StatusTypeDef FMC_SDRAM_Init(FMC_SDRAM_TypeDef *Device, FMC_SDRAM_InitTypeDef *Init)
1181:Drivers/STM32F4xx_HAL_Driver/Src/stm32f4xx_ll_fmc.c **** {
 1206              		.loc 1 1181 1 is_stmt 1 view -0
 1207              		.cfi_startproc
 1208              		@ args = 0, pretend = 0, frame = 0
 1209              		@ frame_needed = 0, uses_anonymous_args = 0
 1210              		@ link register save eliminated.
 1211              		.loc 1 1181 1 is_stmt 0 view .LVU344
 1212 0000 10B4     		push	{r4}
 1213              	.LCFI12:
 1214              		.cfi_def_cfa_offset 4
 1215              		.cfi_offset 4, -4
1182:Drivers/STM32F4xx_HAL_Driver/Src/stm32f4xx_ll_fmc.c ****   /* Check the parameters */
1183:Drivers/STM32F4xx_HAL_Driver/Src/stm32f4xx_ll_fmc.c ****   assert_param(IS_FMC_SDRAM_DEVICE(Device));
 1216              		.loc 1 1183 3 is_stmt 1 view .LVU345
1184:Drivers/STM32F4xx_HAL_Driver/Src/stm32f4xx_ll_fmc.c ****   assert_param(IS_FMC_SDRAM_BANK(Init->SDBank));
 1217              		.loc 1 1184 3 view .LVU346
1185:Drivers/STM32F4xx_HAL_Driver/Src/stm32f4xx_ll_fmc.c ****   assert_param(IS_FMC_COLUMNBITS_NUMBER(Init->ColumnBitsNumber));
 1218              		.loc 1 1185 3 view .LVU347
1186:Drivers/STM32F4xx_HAL_Driver/Src/stm32f4xx_ll_fmc.c ****   assert_param(IS_FMC_ROWBITS_NUMBER(Init->RowBitsNumber));
 1219              		.loc 1 1186 3 view .LVU348
1187:Drivers/STM32F4xx_HAL_Driver/Src/stm32f4xx_ll_fmc.c ****   assert_param(IS_FMC_SDMEMORY_WIDTH(Init->MemoryDataWidth));
 1220              		.loc 1 1187 3 view .LVU349
1188:Drivers/STM32F4xx_HAL_Driver/Src/stm32f4xx_ll_fmc.c ****   assert_param(IS_FMC_INTERNALBANK_NUMBER(Init->InternalBankNumber));
 1221              		.loc 1 1188 3 view .LVU350
1189:Drivers/STM32F4xx_HAL_Driver/Src/stm32f4xx_ll_fmc.c ****   assert_param(IS_FMC_CAS_LATENCY(Init->CASLatency));
 1222              		.loc 1 1189 3 view .LVU351
1190:Drivers/STM32F4xx_HAL_Driver/Src/stm32f4xx_ll_fmc.c ****   assert_param(IS_FMC_WRITE_PROTECTION(Init->WriteProtection));
 1223              		.loc 1 1190 3 view .LVU352
1191:Drivers/STM32F4xx_HAL_Driver/Src/stm32f4xx_ll_fmc.c ****   assert_param(IS_FMC_SDCLOCK_PERIOD(Init->SDClockPeriod));
 1224              		.loc 1 1191 3 view .LVU353
1192:Drivers/STM32F4xx_HAL_Driver/Src/stm32f4xx_ll_fmc.c ****   assert_param(IS_FMC_READ_BURST(Init->ReadBurst));
 1225              		.loc 1 1192 3 view .LVU354
1193:Drivers/STM32F4xx_HAL_Driver/Src/stm32f4xx_ll_fmc.c ****   assert_param(IS_FMC_READPIPE_DELAY(Init->ReadPipeDelay));
 1226              		.loc 1 1193 3 view .LVU355
1194:Drivers/STM32F4xx_HAL_Driver/Src/stm32f4xx_ll_fmc.c **** 
1195:Drivers/STM32F4xx_HAL_Driver/Src/stm32f4xx_ll_fmc.c ****   /* Set SDRAM bank configuration parameters */
1196:Drivers/STM32F4xx_HAL_Driver/Src/stm32f4xx_ll_fmc.c ****   if (Init->SDBank == FMC_SDRAM_BANK1)
 1227              		.loc 1 1196 3 view .LVU356
 1228              		.loc 1 1196 11 is_stmt 0 view .LVU357
 1229 0002 0B68     		ldr	r3, [r1]
 1230              		.loc 1 1196 6 view .LVU358
 1231 0004 DBB9     		cbnz	r3, .L79
1197:Drivers/STM32F4xx_HAL_Driver/Src/stm32f4xx_ll_fmc.c ****   {
1198:Drivers/STM32F4xx_HAL_Driver/Src/stm32f4xx_ll_fmc.c ****     MODIFY_REG(Device->SDCR[FMC_SDRAM_BANK1],
 1232              		.loc 1 1198 5 is_stmt 1 view .LVU359
 1233 0006 0268     		ldr	r2, [r0]
 1234 0008 22F4FF42 		bic	r2, r2, #32640
 1235 000c 22F07F02 		bic	r2, r2, #127
ARM GAS  C:\Users\stefa\AppData\Local\Temp\ccMreSci.s 			page 44


 1236 0010 4B68     		ldr	r3, [r1, #4]
 1237 0012 8C68     		ldr	r4, [r1, #8]
 1238 0014 2343     		orrs	r3, r3, r4
 1239 0016 CC68     		ldr	r4, [r1, #12]
 1240 0018 2343     		orrs	r3, r3, r4
 1241 001a 0C69     		ldr	r4, [r1, #16]
 1242 001c 2343     		orrs	r3, r3, r4
 1243 001e 4C69     		ldr	r4, [r1, #20]
 1244 0020 2343     		orrs	r3, r3, r4
 1245 0022 8C69     		ldr	r4, [r1, #24]
 1246 0024 2343     		orrs	r3, r3, r4
 1247 0026 CC69     		ldr	r4, [r1, #28]
 1248 0028 2343     		orrs	r3, r3, r4
 1249 002a 0C6A     		ldr	r4, [r1, #32]
 1250 002c 2343     		orrs	r3, r3, r4
 1251 002e 496A     		ldr	r1, [r1, #36]
 1252              	.LVL74:
 1253              		.loc 1 1198 5 is_stmt 0 view .LVU360
 1254 0030 0B43     		orrs	r3, r3, r1
 1255 0032 1343     		orrs	r3, r3, r2
 1256 0034 0360     		str	r3, [r0]
 1257              	.L80:
1199:Drivers/STM32F4xx_HAL_Driver/Src/stm32f4xx_ll_fmc.c ****                SDCR_CLEAR_MASK,
1200:Drivers/STM32F4xx_HAL_Driver/Src/stm32f4xx_ll_fmc.c ****                (Init->ColumnBitsNumber   |
1201:Drivers/STM32F4xx_HAL_Driver/Src/stm32f4xx_ll_fmc.c ****                 Init->RowBitsNumber      |
1202:Drivers/STM32F4xx_HAL_Driver/Src/stm32f4xx_ll_fmc.c ****                 Init->MemoryDataWidth    |
1203:Drivers/STM32F4xx_HAL_Driver/Src/stm32f4xx_ll_fmc.c ****                 Init->InternalBankNumber |
1204:Drivers/STM32F4xx_HAL_Driver/Src/stm32f4xx_ll_fmc.c ****                 Init->CASLatency         |
1205:Drivers/STM32F4xx_HAL_Driver/Src/stm32f4xx_ll_fmc.c ****                 Init->WriteProtection    |
1206:Drivers/STM32F4xx_HAL_Driver/Src/stm32f4xx_ll_fmc.c ****                 Init->SDClockPeriod      |
1207:Drivers/STM32F4xx_HAL_Driver/Src/stm32f4xx_ll_fmc.c ****                 Init->ReadBurst          |
1208:Drivers/STM32F4xx_HAL_Driver/Src/stm32f4xx_ll_fmc.c ****                 Init->ReadPipeDelay));
1209:Drivers/STM32F4xx_HAL_Driver/Src/stm32f4xx_ll_fmc.c ****   }
1210:Drivers/STM32F4xx_HAL_Driver/Src/stm32f4xx_ll_fmc.c ****   else /* FMC_Bank2_SDRAM */
1211:Drivers/STM32F4xx_HAL_Driver/Src/stm32f4xx_ll_fmc.c ****   {
1212:Drivers/STM32F4xx_HAL_Driver/Src/stm32f4xx_ll_fmc.c ****     MODIFY_REG(Device->SDCR[FMC_SDRAM_BANK1],
1213:Drivers/STM32F4xx_HAL_Driver/Src/stm32f4xx_ll_fmc.c ****                FMC_SDCR1_SDCLK           |
1214:Drivers/STM32F4xx_HAL_Driver/Src/stm32f4xx_ll_fmc.c ****                FMC_SDCR1_RBURST          |
1215:Drivers/STM32F4xx_HAL_Driver/Src/stm32f4xx_ll_fmc.c ****                FMC_SDCR1_RPIPE,
1216:Drivers/STM32F4xx_HAL_Driver/Src/stm32f4xx_ll_fmc.c ****                (Init->SDClockPeriod      |
1217:Drivers/STM32F4xx_HAL_Driver/Src/stm32f4xx_ll_fmc.c ****                 Init->ReadBurst          |
1218:Drivers/STM32F4xx_HAL_Driver/Src/stm32f4xx_ll_fmc.c ****                 Init->ReadPipeDelay));
1219:Drivers/STM32F4xx_HAL_Driver/Src/stm32f4xx_ll_fmc.c **** 
1220:Drivers/STM32F4xx_HAL_Driver/Src/stm32f4xx_ll_fmc.c ****     MODIFY_REG(Device->SDCR[FMC_SDRAM_BANK2],
1221:Drivers/STM32F4xx_HAL_Driver/Src/stm32f4xx_ll_fmc.c ****                SDCR_CLEAR_MASK,
1222:Drivers/STM32F4xx_HAL_Driver/Src/stm32f4xx_ll_fmc.c ****                (Init->ColumnBitsNumber   |
1223:Drivers/STM32F4xx_HAL_Driver/Src/stm32f4xx_ll_fmc.c ****                 Init->RowBitsNumber      |
1224:Drivers/STM32F4xx_HAL_Driver/Src/stm32f4xx_ll_fmc.c ****                 Init->MemoryDataWidth    |
1225:Drivers/STM32F4xx_HAL_Driver/Src/stm32f4xx_ll_fmc.c ****                 Init->InternalBankNumber |
1226:Drivers/STM32F4xx_HAL_Driver/Src/stm32f4xx_ll_fmc.c ****                 Init->CASLatency         |
1227:Drivers/STM32F4xx_HAL_Driver/Src/stm32f4xx_ll_fmc.c ****                 Init->WriteProtection));
1228:Drivers/STM32F4xx_HAL_Driver/Src/stm32f4xx_ll_fmc.c ****   }
1229:Drivers/STM32F4xx_HAL_Driver/Src/stm32f4xx_ll_fmc.c **** 
1230:Drivers/STM32F4xx_HAL_Driver/Src/stm32f4xx_ll_fmc.c ****   return HAL_OK;
 1258              		.loc 1 1230 3 is_stmt 1 view .LVU361
1231:Drivers/STM32F4xx_HAL_Driver/Src/stm32f4xx_ll_fmc.c **** }
 1259              		.loc 1 1231 1 is_stmt 0 view .LVU362
ARM GAS  C:\Users\stefa\AppData\Local\Temp\ccMreSci.s 			page 45


 1260 0036 0020     		movs	r0, #0
 1261              	.LVL75:
 1262              		.loc 1 1231 1 view .LVU363
 1263 0038 5DF8044B 		ldr	r4, [sp], #4
 1264              	.LCFI13:
 1265              		.cfi_remember_state
 1266              		.cfi_restore 4
 1267              		.cfi_def_cfa_offset 0
 1268 003c 7047     		bx	lr
 1269              	.LVL76:
 1270              	.L79:
 1271              	.LCFI14:
 1272              		.cfi_restore_state
1212:Drivers/STM32F4xx_HAL_Driver/Src/stm32f4xx_ll_fmc.c ****                FMC_SDCR1_SDCLK           |
 1273              		.loc 1 1212 5 is_stmt 1 view .LVU364
 1274 003e 0368     		ldr	r3, [r0]
 1275 0040 23F4F843 		bic	r3, r3, #31744
 1276 0044 CA69     		ldr	r2, [r1, #28]
 1277 0046 0C6A     		ldr	r4, [r1, #32]
 1278 0048 2243     		orrs	r2, r2, r4
 1279 004a 4C6A     		ldr	r4, [r1, #36]
 1280 004c 2243     		orrs	r2, r2, r4
 1281 004e 1343     		orrs	r3, r3, r2
 1282 0050 0360     		str	r3, [r0]
1220:Drivers/STM32F4xx_HAL_Driver/Src/stm32f4xx_ll_fmc.c ****                SDCR_CLEAR_MASK,
 1283              		.loc 1 1220 5 view .LVU365
 1284 0052 4268     		ldr	r2, [r0, #4]
 1285 0054 22F4FF42 		bic	r2, r2, #32640
 1286 0058 22F07F02 		bic	r2, r2, #127
 1287 005c 4B68     		ldr	r3, [r1, #4]
 1288 005e 8C68     		ldr	r4, [r1, #8]
 1289 0060 2343     		orrs	r3, r3, r4
 1290 0062 CC68     		ldr	r4, [r1, #12]
 1291 0064 2343     		orrs	r3, r3, r4
 1292 0066 0C69     		ldr	r4, [r1, #16]
 1293 0068 2343     		orrs	r3, r3, r4
 1294 006a 4C69     		ldr	r4, [r1, #20]
 1295 006c 2343     		orrs	r3, r3, r4
 1296 006e 8969     		ldr	r1, [r1, #24]
 1297              	.LVL77:
1220:Drivers/STM32F4xx_HAL_Driver/Src/stm32f4xx_ll_fmc.c ****                SDCR_CLEAR_MASK,
 1298              		.loc 1 1220 5 is_stmt 0 view .LVU366
 1299 0070 0B43     		orrs	r3, r3, r1
 1300 0072 1343     		orrs	r3, r3, r2
 1301 0074 4360     		str	r3, [r0, #4]
 1302 0076 DEE7     		b	.L80
 1303              		.cfi_endproc
 1304              	.LFE148:
 1306              		.section	.text.FMC_SDRAM_Timing_Init,"ax",%progbits
 1307              		.align	1
 1308              		.global	FMC_SDRAM_Timing_Init
 1309              		.syntax unified
 1310              		.thumb
 1311              		.thumb_func
 1313              	FMC_SDRAM_Timing_Init:
 1314              	.LVL78:
 1315              	.LFB149:
ARM GAS  C:\Users\stefa\AppData\Local\Temp\ccMreSci.s 			page 46


1232:Drivers/STM32F4xx_HAL_Driver/Src/stm32f4xx_ll_fmc.c **** 
1233:Drivers/STM32F4xx_HAL_Driver/Src/stm32f4xx_ll_fmc.c **** 
1234:Drivers/STM32F4xx_HAL_Driver/Src/stm32f4xx_ll_fmc.c **** /**
1235:Drivers/STM32F4xx_HAL_Driver/Src/stm32f4xx_ll_fmc.c ****   * @brief  Initializes the FMC_SDRAM device timing according to the specified
1236:Drivers/STM32F4xx_HAL_Driver/Src/stm32f4xx_ll_fmc.c ****   *         parameters in the FMC_SDRAM_TimingTypeDef
1237:Drivers/STM32F4xx_HAL_Driver/Src/stm32f4xx_ll_fmc.c ****   * @param  Device Pointer to SDRAM device instance
1238:Drivers/STM32F4xx_HAL_Driver/Src/stm32f4xx_ll_fmc.c ****   * @param  Timing Pointer to SDRAM Timing structure
1239:Drivers/STM32F4xx_HAL_Driver/Src/stm32f4xx_ll_fmc.c ****   * @param  Bank SDRAM bank number
1240:Drivers/STM32F4xx_HAL_Driver/Src/stm32f4xx_ll_fmc.c ****   * @retval HAL status
1241:Drivers/STM32F4xx_HAL_Driver/Src/stm32f4xx_ll_fmc.c ****   */
1242:Drivers/STM32F4xx_HAL_Driver/Src/stm32f4xx_ll_fmc.c **** HAL_StatusTypeDef FMC_SDRAM_Timing_Init(FMC_SDRAM_TypeDef *Device,
1243:Drivers/STM32F4xx_HAL_Driver/Src/stm32f4xx_ll_fmc.c ****                                         FMC_SDRAM_TimingTypeDef *Timing, uint32_t Bank)
1244:Drivers/STM32F4xx_HAL_Driver/Src/stm32f4xx_ll_fmc.c **** {
 1316              		.loc 1 1244 1 is_stmt 1 view -0
 1317              		.cfi_startproc
 1318              		@ args = 0, pretend = 0, frame = 0
 1319              		@ frame_needed = 0, uses_anonymous_args = 0
 1320              		@ link register save eliminated.
 1321              		.loc 1 1244 1 is_stmt 0 view .LVU368
 1322 0000 10B4     		push	{r4}
 1323              	.LCFI15:
 1324              		.cfi_def_cfa_offset 4
 1325              		.cfi_offset 4, -4
1245:Drivers/STM32F4xx_HAL_Driver/Src/stm32f4xx_ll_fmc.c ****   /* Check the parameters */
1246:Drivers/STM32F4xx_HAL_Driver/Src/stm32f4xx_ll_fmc.c ****   assert_param(IS_FMC_SDRAM_DEVICE(Device));
 1326              		.loc 1 1246 3 is_stmt 1 view .LVU369
1247:Drivers/STM32F4xx_HAL_Driver/Src/stm32f4xx_ll_fmc.c ****   assert_param(IS_FMC_LOADTOACTIVE_DELAY(Timing->LoadToActiveDelay));
 1327              		.loc 1 1247 3 view .LVU370
1248:Drivers/STM32F4xx_HAL_Driver/Src/stm32f4xx_ll_fmc.c ****   assert_param(IS_FMC_EXITSELFREFRESH_DELAY(Timing->ExitSelfRefreshDelay));
 1328              		.loc 1 1248 3 view .LVU371
1249:Drivers/STM32F4xx_HAL_Driver/Src/stm32f4xx_ll_fmc.c ****   assert_param(IS_FMC_SELFREFRESH_TIME(Timing->SelfRefreshTime));
 1329              		.loc 1 1249 3 view .LVU372
1250:Drivers/STM32F4xx_HAL_Driver/Src/stm32f4xx_ll_fmc.c ****   assert_param(IS_FMC_ROWCYCLE_DELAY(Timing->RowCycleDelay));
 1330              		.loc 1 1250 3 view .LVU373
1251:Drivers/STM32F4xx_HAL_Driver/Src/stm32f4xx_ll_fmc.c ****   assert_param(IS_FMC_WRITE_RECOVERY_TIME(Timing->WriteRecoveryTime));
 1331              		.loc 1 1251 3 view .LVU374
1252:Drivers/STM32F4xx_HAL_Driver/Src/stm32f4xx_ll_fmc.c ****   assert_param(IS_FMC_RP_DELAY(Timing->RPDelay));
 1332              		.loc 1 1252 3 view .LVU375
1253:Drivers/STM32F4xx_HAL_Driver/Src/stm32f4xx_ll_fmc.c ****   assert_param(IS_FMC_RCD_DELAY(Timing->RCDDelay));
 1333              		.loc 1 1253 3 view .LVU376
1254:Drivers/STM32F4xx_HAL_Driver/Src/stm32f4xx_ll_fmc.c ****   assert_param(IS_FMC_SDRAM_BANK(Bank));
 1334              		.loc 1 1254 3 view .LVU377
1255:Drivers/STM32F4xx_HAL_Driver/Src/stm32f4xx_ll_fmc.c **** 
1256:Drivers/STM32F4xx_HAL_Driver/Src/stm32f4xx_ll_fmc.c ****   /* Set SDRAM device timing parameters */
1257:Drivers/STM32F4xx_HAL_Driver/Src/stm32f4xx_ll_fmc.c ****   if (Bank == FMC_SDRAM_BANK1)
 1335              		.loc 1 1257 3 view .LVU378
 1336              		.loc 1 1257 6 is_stmt 0 view .LVU379
 1337 0002 3ABB     		cbnz	r2, .L83
1258:Drivers/STM32F4xx_HAL_Driver/Src/stm32f4xx_ll_fmc.c ****   {
1259:Drivers/STM32F4xx_HAL_Driver/Src/stm32f4xx_ll_fmc.c ****     MODIFY_REG(Device->SDTR[FMC_SDRAM_BANK1],
 1338              		.loc 1 1259 5 is_stmt 1 view .LVU380
 1339 0004 8268     		ldr	r2, [r0, #8]
 1340              	.LVL79:
 1341              		.loc 1 1259 5 is_stmt 0 view .LVU381
 1342 0006 02F07042 		and	r2, r2, #-268435456
 1343 000a 0B68     		ldr	r3, [r1]
 1344 000c 013B     		subs	r3, r3, #1
ARM GAS  C:\Users\stefa\AppData\Local\Temp\ccMreSci.s 			page 47


 1345 000e 4C68     		ldr	r4, [r1, #4]
 1346 0010 04F1FF3C 		add	ip, r4, #-1
 1347 0014 43EA0C13 		orr	r3, r3, ip, lsl #4
 1348 0018 8C68     		ldr	r4, [r1, #8]
 1349 001a 04F1FF3C 		add	ip, r4, #-1
 1350 001e 43EA0C23 		orr	r3, r3, ip, lsl #8
 1351 0022 CC68     		ldr	r4, [r1, #12]
 1352 0024 04F1FF3C 		add	ip, r4, #-1
 1353 0028 43EA0C33 		orr	r3, r3, ip, lsl #12
 1354 002c 0C69     		ldr	r4, [r1, #16]
 1355 002e 04F1FF3C 		add	ip, r4, #-1
 1356 0032 43EA0C43 		orr	r3, r3, ip, lsl #16
 1357 0036 4C69     		ldr	r4, [r1, #20]
 1358 0038 04F1FF3C 		add	ip, r4, #-1
 1359 003c 43EA0C53 		orr	r3, r3, ip, lsl #20
 1360 0040 8969     		ldr	r1, [r1, #24]
 1361              	.LVL80:
 1362              		.loc 1 1259 5 view .LVU382
 1363 0042 0139     		subs	r1, r1, #1
 1364 0044 43EA0163 		orr	r3, r3, r1, lsl #24
 1365 0048 1343     		orrs	r3, r3, r2
 1366 004a 8360     		str	r3, [r0, #8]
 1367              	.L84:
1260:Drivers/STM32F4xx_HAL_Driver/Src/stm32f4xx_ll_fmc.c ****                SDTR_CLEAR_MASK,
1261:Drivers/STM32F4xx_HAL_Driver/Src/stm32f4xx_ll_fmc.c ****                (((Timing->LoadToActiveDelay) - 1U)                                      |
1262:Drivers/STM32F4xx_HAL_Driver/Src/stm32f4xx_ll_fmc.c ****                 (((Timing->ExitSelfRefreshDelay) - 1U) << FMC_SDTR1_TXSR_Pos) |
1263:Drivers/STM32F4xx_HAL_Driver/Src/stm32f4xx_ll_fmc.c ****                 (((Timing->SelfRefreshTime) - 1U)      << FMC_SDTR1_TRAS_Pos) |
1264:Drivers/STM32F4xx_HAL_Driver/Src/stm32f4xx_ll_fmc.c ****                 (((Timing->RowCycleDelay) - 1U)        << FMC_SDTR1_TRC_Pos)  |
1265:Drivers/STM32F4xx_HAL_Driver/Src/stm32f4xx_ll_fmc.c ****                 (((Timing->WriteRecoveryTime) - 1U)    << FMC_SDTR1_TWR_Pos)  |
1266:Drivers/STM32F4xx_HAL_Driver/Src/stm32f4xx_ll_fmc.c ****                 (((Timing->RPDelay) - 1U)              << FMC_SDTR1_TRP_Pos)  |
1267:Drivers/STM32F4xx_HAL_Driver/Src/stm32f4xx_ll_fmc.c ****                 (((Timing->RCDDelay) - 1U)             << FMC_SDTR1_TRCD_Pos)));
1268:Drivers/STM32F4xx_HAL_Driver/Src/stm32f4xx_ll_fmc.c ****   }
1269:Drivers/STM32F4xx_HAL_Driver/Src/stm32f4xx_ll_fmc.c ****   else /* FMC_Bank2_SDRAM */
1270:Drivers/STM32F4xx_HAL_Driver/Src/stm32f4xx_ll_fmc.c ****   {
1271:Drivers/STM32F4xx_HAL_Driver/Src/stm32f4xx_ll_fmc.c ****     MODIFY_REG(Device->SDTR[FMC_SDRAM_BANK1],
1272:Drivers/STM32F4xx_HAL_Driver/Src/stm32f4xx_ll_fmc.c ****                FMC_SDTR1_TRC |
1273:Drivers/STM32F4xx_HAL_Driver/Src/stm32f4xx_ll_fmc.c ****                FMC_SDTR1_TRP,
1274:Drivers/STM32F4xx_HAL_Driver/Src/stm32f4xx_ll_fmc.c ****                (((Timing->RowCycleDelay) - 1U)         << FMC_SDTR1_TRC_Pos)  |
1275:Drivers/STM32F4xx_HAL_Driver/Src/stm32f4xx_ll_fmc.c ****                (((Timing->RPDelay) - 1U)               << FMC_SDTR1_TRP_Pos));
1276:Drivers/STM32F4xx_HAL_Driver/Src/stm32f4xx_ll_fmc.c **** 
1277:Drivers/STM32F4xx_HAL_Driver/Src/stm32f4xx_ll_fmc.c ****     MODIFY_REG(Device->SDTR[FMC_SDRAM_BANK2],
1278:Drivers/STM32F4xx_HAL_Driver/Src/stm32f4xx_ll_fmc.c ****                SDTR_CLEAR_MASK,
1279:Drivers/STM32F4xx_HAL_Driver/Src/stm32f4xx_ll_fmc.c ****                (((Timing->LoadToActiveDelay) - 1U)                                      |
1280:Drivers/STM32F4xx_HAL_Driver/Src/stm32f4xx_ll_fmc.c ****                 (((Timing->ExitSelfRefreshDelay) - 1U) << FMC_SDTR1_TXSR_Pos) |
1281:Drivers/STM32F4xx_HAL_Driver/Src/stm32f4xx_ll_fmc.c ****                 (((Timing->SelfRefreshTime) - 1U)      << FMC_SDTR1_TRAS_Pos) |
1282:Drivers/STM32F4xx_HAL_Driver/Src/stm32f4xx_ll_fmc.c ****                 (((Timing->WriteRecoveryTime) - 1U)    << FMC_SDTR1_TWR_Pos)  |
1283:Drivers/STM32F4xx_HAL_Driver/Src/stm32f4xx_ll_fmc.c ****                 (((Timing->RCDDelay) - 1U)             << FMC_SDTR1_TRCD_Pos)));
1284:Drivers/STM32F4xx_HAL_Driver/Src/stm32f4xx_ll_fmc.c ****   }
1285:Drivers/STM32F4xx_HAL_Driver/Src/stm32f4xx_ll_fmc.c **** 
1286:Drivers/STM32F4xx_HAL_Driver/Src/stm32f4xx_ll_fmc.c ****   return HAL_OK;
 1368              		.loc 1 1286 3 is_stmt 1 view .LVU383
1287:Drivers/STM32F4xx_HAL_Driver/Src/stm32f4xx_ll_fmc.c **** }
 1369              		.loc 1 1287 1 is_stmt 0 view .LVU384
 1370 004c 0020     		movs	r0, #0
 1371              	.LVL81:
 1372              		.loc 1 1287 1 view .LVU385
 1373 004e 5DF8044B 		ldr	r4, [sp], #4
ARM GAS  C:\Users\stefa\AppData\Local\Temp\ccMreSci.s 			page 48


 1374              	.LCFI16:
 1375              		.cfi_remember_state
 1376              		.cfi_restore 4
 1377              		.cfi_def_cfa_offset 0
 1378 0052 7047     		bx	lr
 1379              	.LVL82:
 1380              	.L83:
 1381              	.LCFI17:
 1382              		.cfi_restore_state
1271:Drivers/STM32F4xx_HAL_Driver/Src/stm32f4xx_ll_fmc.c ****                FMC_SDTR1_TRC |
 1383              		.loc 1 1271 5 is_stmt 1 view .LVU386
 1384 0054 8368     		ldr	r3, [r0, #8]
 1385 0056 23F47003 		bic	r3, r3, #15728640
 1386 005a 23F47043 		bic	r3, r3, #61440
 1387 005e CA68     		ldr	r2, [r1, #12]
 1388              	.LVL83:
1271:Drivers/STM32F4xx_HAL_Driver/Src/stm32f4xx_ll_fmc.c ****                FMC_SDTR1_TRC |
 1389              		.loc 1 1271 5 is_stmt 0 view .LVU387
 1390 0060 02F1FF3C 		add	ip, r2, #-1
 1391 0064 4A69     		ldr	r2, [r1, #20]
 1392 0066 013A     		subs	r2, r2, #1
 1393 0068 1205     		lsls	r2, r2, #20
 1394 006a 42EA0C32 		orr	r2, r2, ip, lsl #12
 1395 006e 1343     		orrs	r3, r3, r2
 1396 0070 8360     		str	r3, [r0, #8]
1277:Drivers/STM32F4xx_HAL_Driver/Src/stm32f4xx_ll_fmc.c ****                SDTR_CLEAR_MASK,
 1397              		.loc 1 1277 5 is_stmt 1 view .LVU388
 1398 0072 C268     		ldr	r2, [r0, #12]
 1399 0074 02F07042 		and	r2, r2, #-268435456
 1400 0078 0B68     		ldr	r3, [r1]
 1401 007a 013B     		subs	r3, r3, #1
 1402 007c 4C68     		ldr	r4, [r1, #4]
 1403 007e 04F1FF3C 		add	ip, r4, #-1
 1404 0082 43EA0C13 		orr	r3, r3, ip, lsl #4
 1405 0086 8C68     		ldr	r4, [r1, #8]
 1406 0088 04F1FF3C 		add	ip, r4, #-1
 1407 008c 43EA0C23 		orr	r3, r3, ip, lsl #8
 1408 0090 0C69     		ldr	r4, [r1, #16]
 1409 0092 04F1FF3C 		add	ip, r4, #-1
 1410 0096 43EA0C43 		orr	r3, r3, ip, lsl #16
 1411 009a 8969     		ldr	r1, [r1, #24]
 1412              	.LVL84:
1277:Drivers/STM32F4xx_HAL_Driver/Src/stm32f4xx_ll_fmc.c ****                SDTR_CLEAR_MASK,
 1413              		.loc 1 1277 5 is_stmt 0 view .LVU389
 1414 009c 0139     		subs	r1, r1, #1
 1415 009e 43EA0163 		orr	r3, r3, r1, lsl #24
 1416 00a2 1343     		orrs	r3, r3, r2
 1417 00a4 C360     		str	r3, [r0, #12]
 1418 00a6 D1E7     		b	.L84
 1419              		.cfi_endproc
 1420              	.LFE149:
 1422              		.section	.text.FMC_SDRAM_DeInit,"ax",%progbits
 1423              		.align	1
 1424              		.global	FMC_SDRAM_DeInit
 1425              		.syntax unified
 1426              		.thumb
 1427              		.thumb_func
ARM GAS  C:\Users\stefa\AppData\Local\Temp\ccMreSci.s 			page 49


 1429              	FMC_SDRAM_DeInit:
 1430              	.LVL85:
 1431              	.LFB150:
1288:Drivers/STM32F4xx_HAL_Driver/Src/stm32f4xx_ll_fmc.c **** 
1289:Drivers/STM32F4xx_HAL_Driver/Src/stm32f4xx_ll_fmc.c **** /**
1290:Drivers/STM32F4xx_HAL_Driver/Src/stm32f4xx_ll_fmc.c ****   * @brief  DeInitializes the FMC_SDRAM peripheral
1291:Drivers/STM32F4xx_HAL_Driver/Src/stm32f4xx_ll_fmc.c ****   * @param  Device Pointer to SDRAM device instance
1292:Drivers/STM32F4xx_HAL_Driver/Src/stm32f4xx_ll_fmc.c ****   * @retval HAL status
1293:Drivers/STM32F4xx_HAL_Driver/Src/stm32f4xx_ll_fmc.c ****   */
1294:Drivers/STM32F4xx_HAL_Driver/Src/stm32f4xx_ll_fmc.c **** HAL_StatusTypeDef FMC_SDRAM_DeInit(FMC_SDRAM_TypeDef *Device, uint32_t Bank)
1295:Drivers/STM32F4xx_HAL_Driver/Src/stm32f4xx_ll_fmc.c **** {
 1432              		.loc 1 1295 1 is_stmt 1 view -0
 1433              		.cfi_startproc
 1434              		@ args = 0, pretend = 0, frame = 0
 1435              		@ frame_needed = 0, uses_anonymous_args = 0
 1436              		@ link register save eliminated.
 1437              		.loc 1 1295 1 is_stmt 0 view .LVU391
 1438 0000 0346     		mov	r3, r0
1296:Drivers/STM32F4xx_HAL_Driver/Src/stm32f4xx_ll_fmc.c ****   /* Check the parameters */
1297:Drivers/STM32F4xx_HAL_Driver/Src/stm32f4xx_ll_fmc.c ****   assert_param(IS_FMC_SDRAM_DEVICE(Device));
 1439              		.loc 1 1297 3 is_stmt 1 view .LVU392
1298:Drivers/STM32F4xx_HAL_Driver/Src/stm32f4xx_ll_fmc.c ****   assert_param(IS_FMC_SDRAM_BANK(Bank));
 1440              		.loc 1 1298 3 view .LVU393
1299:Drivers/STM32F4xx_HAL_Driver/Src/stm32f4xx_ll_fmc.c **** 
1300:Drivers/STM32F4xx_HAL_Driver/Src/stm32f4xx_ll_fmc.c ****   /* De-initialize the SDRAM device */
1301:Drivers/STM32F4xx_HAL_Driver/Src/stm32f4xx_ll_fmc.c ****   Device->SDCR[Bank] = 0x000002D0U;
 1441              		.loc 1 1301 3 view .LVU394
 1442              		.loc 1 1301 22 is_stmt 0 view .LVU395
 1443 0002 4FF43472 		mov	r2, #720
 1444 0006 40F82120 		str	r2, [r0, r1, lsl #2]
1302:Drivers/STM32F4xx_HAL_Driver/Src/stm32f4xx_ll_fmc.c ****   Device->SDTR[Bank] = 0x0FFFFFFFU;
 1445              		.loc 1 1302 3 is_stmt 1 view .LVU396
 1446              		.loc 1 1302 22 is_stmt 0 view .LVU397
 1447 000a 0231     		adds	r1, r1, #2
 1448              	.LVL86:
 1449              		.loc 1 1302 22 view .LVU398
 1450 000c 6FF07042 		mvn	r2, #-268435456
 1451 0010 40F82120 		str	r2, [r0, r1, lsl #2]
1303:Drivers/STM32F4xx_HAL_Driver/Src/stm32f4xx_ll_fmc.c ****   Device->SDCMR      = 0x00000000U;
 1452              		.loc 1 1303 3 is_stmt 1 view .LVU399
 1453              		.loc 1 1303 22 is_stmt 0 view .LVU400
 1454 0014 0020     		movs	r0, #0
 1455              	.LVL87:
 1456              		.loc 1 1303 22 view .LVU401
 1457 0016 1861     		str	r0, [r3, #16]
1304:Drivers/STM32F4xx_HAL_Driver/Src/stm32f4xx_ll_fmc.c ****   Device->SDRTR      = 0x00000000U;
 1458              		.loc 1 1304 3 is_stmt 1 view .LVU402
 1459              		.loc 1 1304 22 is_stmt 0 view .LVU403
 1460 0018 5861     		str	r0, [r3, #20]
1305:Drivers/STM32F4xx_HAL_Driver/Src/stm32f4xx_ll_fmc.c ****   Device->SDSR       = 0x00000000U;
 1461              		.loc 1 1305 3 is_stmt 1 view .LVU404
 1462              		.loc 1 1305 22 is_stmt 0 view .LVU405
 1463 001a 9861     		str	r0, [r3, #24]
1306:Drivers/STM32F4xx_HAL_Driver/Src/stm32f4xx_ll_fmc.c **** 
1307:Drivers/STM32F4xx_HAL_Driver/Src/stm32f4xx_ll_fmc.c ****   return HAL_OK;
 1464              		.loc 1 1307 3 is_stmt 1 view .LVU406
1308:Drivers/STM32F4xx_HAL_Driver/Src/stm32f4xx_ll_fmc.c **** }
ARM GAS  C:\Users\stefa\AppData\Local\Temp\ccMreSci.s 			page 50


 1465              		.loc 1 1308 1 is_stmt 0 view .LVU407
 1466 001c 7047     		bx	lr
 1467              		.cfi_endproc
 1468              	.LFE150:
 1470              		.section	.text.FMC_SDRAM_WriteProtection_Enable,"ax",%progbits
 1471              		.align	1
 1472              		.global	FMC_SDRAM_WriteProtection_Enable
 1473              		.syntax unified
 1474              		.thumb
 1475              		.thumb_func
 1477              	FMC_SDRAM_WriteProtection_Enable:
 1478              	.LVL88:
 1479              	.LFB151:
1309:Drivers/STM32F4xx_HAL_Driver/Src/stm32f4xx_ll_fmc.c **** 
1310:Drivers/STM32F4xx_HAL_Driver/Src/stm32f4xx_ll_fmc.c **** /**
1311:Drivers/STM32F4xx_HAL_Driver/Src/stm32f4xx_ll_fmc.c ****   * @}
1312:Drivers/STM32F4xx_HAL_Driver/Src/stm32f4xx_ll_fmc.c ****   */
1313:Drivers/STM32F4xx_HAL_Driver/Src/stm32f4xx_ll_fmc.c **** 
1314:Drivers/STM32F4xx_HAL_Driver/Src/stm32f4xx_ll_fmc.c **** /** @addtogroup FMC_LL_SDRAMPrivate_Functions_Group2
1315:Drivers/STM32F4xx_HAL_Driver/Src/stm32f4xx_ll_fmc.c ****   *  @brief   management functions
1316:Drivers/STM32F4xx_HAL_Driver/Src/stm32f4xx_ll_fmc.c ****   *
1317:Drivers/STM32F4xx_HAL_Driver/Src/stm32f4xx_ll_fmc.c **** @verbatim
1318:Drivers/STM32F4xx_HAL_Driver/Src/stm32f4xx_ll_fmc.c ****   ==============================================================================
1319:Drivers/STM32F4xx_HAL_Driver/Src/stm32f4xx_ll_fmc.c ****                       ##### FMC_SDRAM Control functions #####
1320:Drivers/STM32F4xx_HAL_Driver/Src/stm32f4xx_ll_fmc.c ****   ==============================================================================
1321:Drivers/STM32F4xx_HAL_Driver/Src/stm32f4xx_ll_fmc.c ****   [..]
1322:Drivers/STM32F4xx_HAL_Driver/Src/stm32f4xx_ll_fmc.c ****     This subsection provides a set of functions allowing to control dynamically
1323:Drivers/STM32F4xx_HAL_Driver/Src/stm32f4xx_ll_fmc.c ****     the FMC SDRAM interface.
1324:Drivers/STM32F4xx_HAL_Driver/Src/stm32f4xx_ll_fmc.c **** 
1325:Drivers/STM32F4xx_HAL_Driver/Src/stm32f4xx_ll_fmc.c **** @endverbatim
1326:Drivers/STM32F4xx_HAL_Driver/Src/stm32f4xx_ll_fmc.c ****   * @{
1327:Drivers/STM32F4xx_HAL_Driver/Src/stm32f4xx_ll_fmc.c ****   */
1328:Drivers/STM32F4xx_HAL_Driver/Src/stm32f4xx_ll_fmc.c **** 
1329:Drivers/STM32F4xx_HAL_Driver/Src/stm32f4xx_ll_fmc.c **** /**
1330:Drivers/STM32F4xx_HAL_Driver/Src/stm32f4xx_ll_fmc.c ****   * @brief  Enables dynamically FMC_SDRAM write protection.
1331:Drivers/STM32F4xx_HAL_Driver/Src/stm32f4xx_ll_fmc.c ****   * @param  Device Pointer to SDRAM device instance
1332:Drivers/STM32F4xx_HAL_Driver/Src/stm32f4xx_ll_fmc.c ****   * @param  Bank SDRAM bank number
1333:Drivers/STM32F4xx_HAL_Driver/Src/stm32f4xx_ll_fmc.c ****   * @retval HAL status
1334:Drivers/STM32F4xx_HAL_Driver/Src/stm32f4xx_ll_fmc.c ****   */
1335:Drivers/STM32F4xx_HAL_Driver/Src/stm32f4xx_ll_fmc.c **** HAL_StatusTypeDef FMC_SDRAM_WriteProtection_Enable(FMC_SDRAM_TypeDef *Device, uint32_t Bank)
1336:Drivers/STM32F4xx_HAL_Driver/Src/stm32f4xx_ll_fmc.c **** {
 1480              		.loc 1 1336 1 is_stmt 1 view -0
 1481              		.cfi_startproc
 1482              		@ args = 0, pretend = 0, frame = 0
 1483              		@ frame_needed = 0, uses_anonymous_args = 0
 1484              		@ link register save eliminated.
1337:Drivers/STM32F4xx_HAL_Driver/Src/stm32f4xx_ll_fmc.c ****   /* Check the parameters */
1338:Drivers/STM32F4xx_HAL_Driver/Src/stm32f4xx_ll_fmc.c ****   assert_param(IS_FMC_SDRAM_DEVICE(Device));
 1485              		.loc 1 1338 3 view .LVU409
1339:Drivers/STM32F4xx_HAL_Driver/Src/stm32f4xx_ll_fmc.c ****   assert_param(IS_FMC_SDRAM_BANK(Bank));
 1486              		.loc 1 1339 3 view .LVU410
1340:Drivers/STM32F4xx_HAL_Driver/Src/stm32f4xx_ll_fmc.c **** 
1341:Drivers/STM32F4xx_HAL_Driver/Src/stm32f4xx_ll_fmc.c ****   /* Enable write protection */
1342:Drivers/STM32F4xx_HAL_Driver/Src/stm32f4xx_ll_fmc.c ****   SET_BIT(Device->SDCR[Bank], FMC_SDRAM_WRITE_PROTECTION_ENABLE);
 1487              		.loc 1 1342 3 view .LVU411
 1488 0000 50F82130 		ldr	r3, [r0, r1, lsl #2]
 1489 0004 43F40073 		orr	r3, r3, #512
ARM GAS  C:\Users\stefa\AppData\Local\Temp\ccMreSci.s 			page 51


 1490 0008 40F82130 		str	r3, [r0, r1, lsl #2]
1343:Drivers/STM32F4xx_HAL_Driver/Src/stm32f4xx_ll_fmc.c **** 
1344:Drivers/STM32F4xx_HAL_Driver/Src/stm32f4xx_ll_fmc.c ****   return HAL_OK;
 1491              		.loc 1 1344 3 view .LVU412
1345:Drivers/STM32F4xx_HAL_Driver/Src/stm32f4xx_ll_fmc.c **** }
 1492              		.loc 1 1345 1 is_stmt 0 view .LVU413
 1493 000c 0020     		movs	r0, #0
 1494              	.LVL89:
 1495              		.loc 1 1345 1 view .LVU414
 1496 000e 7047     		bx	lr
 1497              		.cfi_endproc
 1498              	.LFE151:
 1500              		.section	.text.FMC_SDRAM_WriteProtection_Disable,"ax",%progbits
 1501              		.align	1
 1502              		.global	FMC_SDRAM_WriteProtection_Disable
 1503              		.syntax unified
 1504              		.thumb
 1505              		.thumb_func
 1507              	FMC_SDRAM_WriteProtection_Disable:
 1508              	.LVL90:
 1509              	.LFB152:
1346:Drivers/STM32F4xx_HAL_Driver/Src/stm32f4xx_ll_fmc.c **** 
1347:Drivers/STM32F4xx_HAL_Driver/Src/stm32f4xx_ll_fmc.c **** /**
1348:Drivers/STM32F4xx_HAL_Driver/Src/stm32f4xx_ll_fmc.c ****   * @brief  Disables dynamically FMC_SDRAM write protection.
1349:Drivers/STM32F4xx_HAL_Driver/Src/stm32f4xx_ll_fmc.c ****   * @param  hsdram FMC_SDRAM handle
1350:Drivers/STM32F4xx_HAL_Driver/Src/stm32f4xx_ll_fmc.c ****   * @retval HAL status
1351:Drivers/STM32F4xx_HAL_Driver/Src/stm32f4xx_ll_fmc.c ****   */
1352:Drivers/STM32F4xx_HAL_Driver/Src/stm32f4xx_ll_fmc.c **** HAL_StatusTypeDef FMC_SDRAM_WriteProtection_Disable(FMC_SDRAM_TypeDef *Device, uint32_t Bank)
1353:Drivers/STM32F4xx_HAL_Driver/Src/stm32f4xx_ll_fmc.c **** {
 1510              		.loc 1 1353 1 is_stmt 1 view -0
 1511              		.cfi_startproc
 1512              		@ args = 0, pretend = 0, frame = 0
 1513              		@ frame_needed = 0, uses_anonymous_args = 0
 1514              		@ link register save eliminated.
1354:Drivers/STM32F4xx_HAL_Driver/Src/stm32f4xx_ll_fmc.c ****   /* Check the parameters */
1355:Drivers/STM32F4xx_HAL_Driver/Src/stm32f4xx_ll_fmc.c ****   assert_param(IS_FMC_SDRAM_DEVICE(Device));
 1515              		.loc 1 1355 3 view .LVU416
1356:Drivers/STM32F4xx_HAL_Driver/Src/stm32f4xx_ll_fmc.c ****   assert_param(IS_FMC_SDRAM_BANK(Bank));
 1516              		.loc 1 1356 3 view .LVU417
1357:Drivers/STM32F4xx_HAL_Driver/Src/stm32f4xx_ll_fmc.c **** 
1358:Drivers/STM32F4xx_HAL_Driver/Src/stm32f4xx_ll_fmc.c ****   /* Disable write protection */
1359:Drivers/STM32F4xx_HAL_Driver/Src/stm32f4xx_ll_fmc.c ****   CLEAR_BIT(Device->SDCR[Bank], FMC_SDRAM_WRITE_PROTECTION_ENABLE);
 1517              		.loc 1 1359 3 view .LVU418
 1518 0000 50F82130 		ldr	r3, [r0, r1, lsl #2]
 1519 0004 23F40073 		bic	r3, r3, #512
 1520 0008 40F82130 		str	r3, [r0, r1, lsl #2]
1360:Drivers/STM32F4xx_HAL_Driver/Src/stm32f4xx_ll_fmc.c **** 
1361:Drivers/STM32F4xx_HAL_Driver/Src/stm32f4xx_ll_fmc.c ****   return HAL_OK;
 1521              		.loc 1 1361 3 view .LVU419
1362:Drivers/STM32F4xx_HAL_Driver/Src/stm32f4xx_ll_fmc.c **** }
 1522              		.loc 1 1362 1 is_stmt 0 view .LVU420
 1523 000c 0020     		movs	r0, #0
 1524              	.LVL91:
 1525              		.loc 1 1362 1 view .LVU421
 1526 000e 7047     		bx	lr
 1527              		.cfi_endproc
 1528              	.LFE152:
ARM GAS  C:\Users\stefa\AppData\Local\Temp\ccMreSci.s 			page 52


 1530              		.section	.text.FMC_SDRAM_SendCommand,"ax",%progbits
 1531              		.align	1
 1532              		.global	FMC_SDRAM_SendCommand
 1533              		.syntax unified
 1534              		.thumb
 1535              		.thumb_func
 1537              	FMC_SDRAM_SendCommand:
 1538              	.LVL92:
 1539              	.LFB153:
1363:Drivers/STM32F4xx_HAL_Driver/Src/stm32f4xx_ll_fmc.c **** 
1364:Drivers/STM32F4xx_HAL_Driver/Src/stm32f4xx_ll_fmc.c **** /**
1365:Drivers/STM32F4xx_HAL_Driver/Src/stm32f4xx_ll_fmc.c ****   * @brief  Send Command to the FMC SDRAM bank
1366:Drivers/STM32F4xx_HAL_Driver/Src/stm32f4xx_ll_fmc.c ****   * @param  Device Pointer to SDRAM device instance
1367:Drivers/STM32F4xx_HAL_Driver/Src/stm32f4xx_ll_fmc.c ****   * @param  Command Pointer to SDRAM command structure
1368:Drivers/STM32F4xx_HAL_Driver/Src/stm32f4xx_ll_fmc.c ****   * @param  Timing Pointer to SDRAM Timing structure
1369:Drivers/STM32F4xx_HAL_Driver/Src/stm32f4xx_ll_fmc.c ****   * @param  Timeout Timeout wait value
1370:Drivers/STM32F4xx_HAL_Driver/Src/stm32f4xx_ll_fmc.c ****   * @retval HAL state
1371:Drivers/STM32F4xx_HAL_Driver/Src/stm32f4xx_ll_fmc.c ****   */
1372:Drivers/STM32F4xx_HAL_Driver/Src/stm32f4xx_ll_fmc.c **** HAL_StatusTypeDef FMC_SDRAM_SendCommand(FMC_SDRAM_TypeDef *Device,
1373:Drivers/STM32F4xx_HAL_Driver/Src/stm32f4xx_ll_fmc.c ****                                         FMC_SDRAM_CommandTypeDef *Command, uint32_t Timeout)
1374:Drivers/STM32F4xx_HAL_Driver/Src/stm32f4xx_ll_fmc.c **** {
 1540              		.loc 1 1374 1 is_stmt 1 view -0
 1541              		.cfi_startproc
 1542              		@ args = 0, pretend = 0, frame = 0
 1543              		@ frame_needed = 0, uses_anonymous_args = 0
 1544              		.loc 1 1374 1 is_stmt 0 view .LVU423
 1545 0000 70B5     		push	{r4, r5, r6, lr}
 1546              	.LCFI18:
 1547              		.cfi_def_cfa_offset 16
 1548              		.cfi_offset 4, -16
 1549              		.cfi_offset 5, -12
 1550              		.cfi_offset 6, -8
 1551              		.cfi_offset 14, -4
 1552 0002 0446     		mov	r4, r0
 1553 0004 1546     		mov	r5, r2
1375:Drivers/STM32F4xx_HAL_Driver/Src/stm32f4xx_ll_fmc.c ****   uint32_t tickstart = 0U;
 1554              		.loc 1 1375 3 is_stmt 1 view .LVU424
 1555              	.LVL93:
1376:Drivers/STM32F4xx_HAL_Driver/Src/stm32f4xx_ll_fmc.c ****   /* Check the parameters */
1377:Drivers/STM32F4xx_HAL_Driver/Src/stm32f4xx_ll_fmc.c ****   assert_param(IS_FMC_SDRAM_DEVICE(Device));
 1556              		.loc 1 1377 3 view .LVU425
1378:Drivers/STM32F4xx_HAL_Driver/Src/stm32f4xx_ll_fmc.c ****   assert_param(IS_FMC_COMMAND_MODE(Command->CommandMode));
 1557              		.loc 1 1378 3 view .LVU426
1379:Drivers/STM32F4xx_HAL_Driver/Src/stm32f4xx_ll_fmc.c ****   assert_param(IS_FMC_COMMAND_TARGET(Command->CommandTarget));
 1558              		.loc 1 1379 3 view .LVU427
1380:Drivers/STM32F4xx_HAL_Driver/Src/stm32f4xx_ll_fmc.c ****   assert_param(IS_FMC_AUTOREFRESH_NUMBER(Command->AutoRefreshNumber));
 1559              		.loc 1 1380 3 view .LVU428
1381:Drivers/STM32F4xx_HAL_Driver/Src/stm32f4xx_ll_fmc.c ****   assert_param(IS_FMC_MODE_REGISTER(Command->ModeRegisterDefinition));
 1560              		.loc 1 1381 3 view .LVU429
1382:Drivers/STM32F4xx_HAL_Driver/Src/stm32f4xx_ll_fmc.c **** 
1383:Drivers/STM32F4xx_HAL_Driver/Src/stm32f4xx_ll_fmc.c ****   /* Set command register */
1384:Drivers/STM32F4xx_HAL_Driver/Src/stm32f4xx_ll_fmc.c ****   MODIFY_REG(Device->SDCMR, (FMC_SDCMR_MODE | FMC_SDCMR_CTB2 | FMC_SDCMR_CTB1 | FMC_SDCMR_NRFS | FM
 1561              		.loc 1 1384 3 view .LVU430
 1562 0006 0369     		ldr	r3, [r0, #16]
 1563 0008 9B0D     		lsrs	r3, r3, #22
 1564 000a 9B05     		lsls	r3, r3, #22
 1565 000c 0A68     		ldr	r2, [r1]
ARM GAS  C:\Users\stefa\AppData\Local\Temp\ccMreSci.s 			page 53


 1566              	.LVL94:
 1567              		.loc 1 1384 3 is_stmt 0 view .LVU431
 1568 000e 4868     		ldr	r0, [r1, #4]
 1569              	.LVL95:
 1570              		.loc 1 1384 3 view .LVU432
 1571 0010 0243     		orrs	r2, r2, r0
 1572 0012 8868     		ldr	r0, [r1, #8]
 1573 0014 0138     		subs	r0, r0, #1
 1574 0016 42EA4012 		orr	r2, r2, r0, lsl #5
 1575 001a C968     		ldr	r1, [r1, #12]
 1576              	.LVL96:
 1577              		.loc 1 1384 3 view .LVU433
 1578 001c 42EA4122 		orr	r2, r2, r1, lsl #9
 1579 0020 1343     		orrs	r3, r3, r2
 1580 0022 2361     		str	r3, [r4, #16]
1385:Drivers/STM32F4xx_HAL_Driver/Src/stm32f4xx_ll_fmc.c ****              ((Command->CommandMode) | (Command->CommandTarget) |
1386:Drivers/STM32F4xx_HAL_Driver/Src/stm32f4xx_ll_fmc.c ****               (((Command->AutoRefreshNumber) - 1U) << FMC_SDCMR_NRFS_Pos) |
1387:Drivers/STM32F4xx_HAL_Driver/Src/stm32f4xx_ll_fmc.c ****               ((Command->ModeRegisterDefinition) << FMC_SDCMR_MRD_Pos)));
1388:Drivers/STM32F4xx_HAL_Driver/Src/stm32f4xx_ll_fmc.c ****   /* Get tick */
1389:Drivers/STM32F4xx_HAL_Driver/Src/stm32f4xx_ll_fmc.c ****   tickstart = HAL_GetTick();
 1581              		.loc 1 1389 3 is_stmt 1 view .LVU434
 1582              		.loc 1 1389 15 is_stmt 0 view .LVU435
 1583 0024 FFF7FEFF 		bl	HAL_GetTick
 1584              	.LVL97:
 1585 0028 0646     		mov	r6, r0
 1586              	.LVL98:
1390:Drivers/STM32F4xx_HAL_Driver/Src/stm32f4xx_ll_fmc.c **** 
1391:Drivers/STM32F4xx_HAL_Driver/Src/stm32f4xx_ll_fmc.c ****   /* wait until command is send */
1392:Drivers/STM32F4xx_HAL_Driver/Src/stm32f4xx_ll_fmc.c ****   while (HAL_IS_BIT_SET(Device->SDSR, FMC_SDSR_BUSY))
 1587              		.loc 1 1392 3 is_stmt 1 view .LVU436
 1588              	.L91:
 1589              		.loc 1 1392 9 view .LVU437
 1590              		.loc 1 1392 10 is_stmt 0 view .LVU438
 1591 002a A369     		ldr	r3, [r4, #24]
 1592              		.loc 1 1392 9 view .LVU439
 1593 002c 13F0200F 		tst	r3, #32
 1594 0030 0AD0     		beq	.L96
1393:Drivers/STM32F4xx_HAL_Driver/Src/stm32f4xx_ll_fmc.c ****   {
1394:Drivers/STM32F4xx_HAL_Driver/Src/stm32f4xx_ll_fmc.c ****     /* Check for the Timeout */
1395:Drivers/STM32F4xx_HAL_Driver/Src/stm32f4xx_ll_fmc.c ****     if (Timeout != HAL_MAX_DELAY)
 1595              		.loc 1 1395 5 is_stmt 1 view .LVU440
 1596              		.loc 1 1395 8 is_stmt 0 view .LVU441
 1597 0032 B5F1FF3F 		cmp	r5, #-1
 1598 0036 F8D0     		beq	.L91
1396:Drivers/STM32F4xx_HAL_Driver/Src/stm32f4xx_ll_fmc.c ****     {
1397:Drivers/STM32F4xx_HAL_Driver/Src/stm32f4xx_ll_fmc.c ****       if ((Timeout == 0U) || ((HAL_GetTick() - tickstart) > Timeout))
 1599              		.loc 1 1397 7 is_stmt 1 view .LVU442
 1600              		.loc 1 1397 10 is_stmt 0 view .LVU443
 1601 0038 25B1     		cbz	r5, .L92
 1602              		.loc 1 1397 32 discriminator 1 view .LVU444
 1603 003a FFF7FEFF 		bl	HAL_GetTick
 1604              	.LVL99:
 1605              		.loc 1 1397 46 discriminator 1 view .LVU445
 1606 003e 801B     		subs	r0, r0, r6
 1607              		.loc 1 1397 27 discriminator 1 view .LVU446
 1608 0040 A842     		cmp	r0, r5
 1609 0042 F2D9     		bls	.L91
ARM GAS  C:\Users\stefa\AppData\Local\Temp\ccMreSci.s 			page 54


 1610              	.L92:
1398:Drivers/STM32F4xx_HAL_Driver/Src/stm32f4xx_ll_fmc.c ****       {
1399:Drivers/STM32F4xx_HAL_Driver/Src/stm32f4xx_ll_fmc.c ****         return HAL_TIMEOUT;
 1611              		.loc 1 1399 9 is_stmt 1 view .LVU447
 1612              		.loc 1 1399 16 is_stmt 0 view .LVU448
 1613 0044 0320     		movs	r0, #3
 1614 0046 00E0     		b	.L93
 1615              	.L96:
1400:Drivers/STM32F4xx_HAL_Driver/Src/stm32f4xx_ll_fmc.c ****       }
1401:Drivers/STM32F4xx_HAL_Driver/Src/stm32f4xx_ll_fmc.c ****     }
1402:Drivers/STM32F4xx_HAL_Driver/Src/stm32f4xx_ll_fmc.c ****   }
1403:Drivers/STM32F4xx_HAL_Driver/Src/stm32f4xx_ll_fmc.c ****   return HAL_OK;
 1616              		.loc 1 1403 10 view .LVU449
 1617 0048 0020     		movs	r0, #0
 1618              	.L93:
1404:Drivers/STM32F4xx_HAL_Driver/Src/stm32f4xx_ll_fmc.c **** }
 1619              		.loc 1 1404 1 view .LVU450
 1620 004a 70BD     		pop	{r4, r5, r6, pc}
 1621              		.loc 1 1404 1 view .LVU451
 1622              		.cfi_endproc
 1623              	.LFE153:
 1625              		.section	.text.FMC_SDRAM_ProgramRefreshRate,"ax",%progbits
 1626              		.align	1
 1627              		.global	FMC_SDRAM_ProgramRefreshRate
 1628              		.syntax unified
 1629              		.thumb
 1630              		.thumb_func
 1632              	FMC_SDRAM_ProgramRefreshRate:
 1633              	.LVL100:
 1634              	.LFB154:
1405:Drivers/STM32F4xx_HAL_Driver/Src/stm32f4xx_ll_fmc.c **** 
1406:Drivers/STM32F4xx_HAL_Driver/Src/stm32f4xx_ll_fmc.c **** /**
1407:Drivers/STM32F4xx_HAL_Driver/Src/stm32f4xx_ll_fmc.c ****   * @brief  Program the SDRAM Memory Refresh rate.
1408:Drivers/STM32F4xx_HAL_Driver/Src/stm32f4xx_ll_fmc.c ****   * @param  Device Pointer to SDRAM device instance
1409:Drivers/STM32F4xx_HAL_Driver/Src/stm32f4xx_ll_fmc.c ****   * @param  RefreshRate The SDRAM refresh rate value.
1410:Drivers/STM32F4xx_HAL_Driver/Src/stm32f4xx_ll_fmc.c ****   * @retval HAL state
1411:Drivers/STM32F4xx_HAL_Driver/Src/stm32f4xx_ll_fmc.c ****   */
1412:Drivers/STM32F4xx_HAL_Driver/Src/stm32f4xx_ll_fmc.c **** HAL_StatusTypeDef FMC_SDRAM_ProgramRefreshRate(FMC_SDRAM_TypeDef *Device, uint32_t RefreshRate)
1413:Drivers/STM32F4xx_HAL_Driver/Src/stm32f4xx_ll_fmc.c **** {
 1635              		.loc 1 1413 1 is_stmt 1 view -0
 1636              		.cfi_startproc
 1637              		@ args = 0, pretend = 0, frame = 0
 1638              		@ frame_needed = 0, uses_anonymous_args = 0
 1639              		@ link register save eliminated.
1414:Drivers/STM32F4xx_HAL_Driver/Src/stm32f4xx_ll_fmc.c ****   /* Check the parameters */
1415:Drivers/STM32F4xx_HAL_Driver/Src/stm32f4xx_ll_fmc.c ****   assert_param(IS_FMC_SDRAM_DEVICE(Device));
 1640              		.loc 1 1415 3 view .LVU453
1416:Drivers/STM32F4xx_HAL_Driver/Src/stm32f4xx_ll_fmc.c ****   assert_param(IS_FMC_REFRESH_RATE(RefreshRate));
 1641              		.loc 1 1416 3 view .LVU454
1417:Drivers/STM32F4xx_HAL_Driver/Src/stm32f4xx_ll_fmc.c **** 
1418:Drivers/STM32F4xx_HAL_Driver/Src/stm32f4xx_ll_fmc.c ****   /* Set the refresh rate in command register */
1419:Drivers/STM32F4xx_HAL_Driver/Src/stm32f4xx_ll_fmc.c ****   MODIFY_REG(Device->SDRTR, FMC_SDRTR_COUNT, (RefreshRate << FMC_SDRTR_COUNT_Pos));
 1642              		.loc 1 1419 3 view .LVU455
 1643 0000 4369     		ldr	r3, [r0, #20]
 1644 0002 23F47F53 		bic	r3, r3, #16320
 1645 0006 23F03E03 		bic	r3, r3, #62
 1646 000a 43EA4103 		orr	r3, r3, r1, lsl #1
ARM GAS  C:\Users\stefa\AppData\Local\Temp\ccMreSci.s 			page 55


 1647 000e 4361     		str	r3, [r0, #20]
1420:Drivers/STM32F4xx_HAL_Driver/Src/stm32f4xx_ll_fmc.c **** 
1421:Drivers/STM32F4xx_HAL_Driver/Src/stm32f4xx_ll_fmc.c ****   return HAL_OK;
 1648              		.loc 1 1421 3 view .LVU456
1422:Drivers/STM32F4xx_HAL_Driver/Src/stm32f4xx_ll_fmc.c **** }
 1649              		.loc 1 1422 1 is_stmt 0 view .LVU457
 1650 0010 0020     		movs	r0, #0
 1651              	.LVL101:
 1652              		.loc 1 1422 1 view .LVU458
 1653 0012 7047     		bx	lr
 1654              		.cfi_endproc
 1655              	.LFE154:
 1657              		.section	.text.FMC_SDRAM_SetAutoRefreshNumber,"ax",%progbits
 1658              		.align	1
 1659              		.global	FMC_SDRAM_SetAutoRefreshNumber
 1660              		.syntax unified
 1661              		.thumb
 1662              		.thumb_func
 1664              	FMC_SDRAM_SetAutoRefreshNumber:
 1665              	.LVL102:
 1666              	.LFB155:
1423:Drivers/STM32F4xx_HAL_Driver/Src/stm32f4xx_ll_fmc.c **** 
1424:Drivers/STM32F4xx_HAL_Driver/Src/stm32f4xx_ll_fmc.c **** /**
1425:Drivers/STM32F4xx_HAL_Driver/Src/stm32f4xx_ll_fmc.c ****   * @brief  Set the Number of consecutive SDRAM Memory auto Refresh commands.
1426:Drivers/STM32F4xx_HAL_Driver/Src/stm32f4xx_ll_fmc.c ****   * @param  Device Pointer to SDRAM device instance
1427:Drivers/STM32F4xx_HAL_Driver/Src/stm32f4xx_ll_fmc.c ****   * @param  AutoRefreshNumber Specifies the auto Refresh number.
1428:Drivers/STM32F4xx_HAL_Driver/Src/stm32f4xx_ll_fmc.c ****   * @retval None
1429:Drivers/STM32F4xx_HAL_Driver/Src/stm32f4xx_ll_fmc.c ****   */
1430:Drivers/STM32F4xx_HAL_Driver/Src/stm32f4xx_ll_fmc.c **** HAL_StatusTypeDef FMC_SDRAM_SetAutoRefreshNumber(FMC_SDRAM_TypeDef *Device,
1431:Drivers/STM32F4xx_HAL_Driver/Src/stm32f4xx_ll_fmc.c ****                                                  uint32_t AutoRefreshNumber)
1432:Drivers/STM32F4xx_HAL_Driver/Src/stm32f4xx_ll_fmc.c **** {
 1667              		.loc 1 1432 1 is_stmt 1 view -0
 1668              		.cfi_startproc
 1669              		@ args = 0, pretend = 0, frame = 0
 1670              		@ frame_needed = 0, uses_anonymous_args = 0
 1671              		@ link register save eliminated.
1433:Drivers/STM32F4xx_HAL_Driver/Src/stm32f4xx_ll_fmc.c ****   /* Check the parameters */
1434:Drivers/STM32F4xx_HAL_Driver/Src/stm32f4xx_ll_fmc.c ****   assert_param(IS_FMC_SDRAM_DEVICE(Device));
 1672              		.loc 1 1434 3 view .LVU460
1435:Drivers/STM32F4xx_HAL_Driver/Src/stm32f4xx_ll_fmc.c ****   assert_param(IS_FMC_AUTOREFRESH_NUMBER(AutoRefreshNumber));
 1673              		.loc 1 1435 3 view .LVU461
1436:Drivers/STM32F4xx_HAL_Driver/Src/stm32f4xx_ll_fmc.c **** 
1437:Drivers/STM32F4xx_HAL_Driver/Src/stm32f4xx_ll_fmc.c ****   /* Set the Auto-refresh number in command register */
1438:Drivers/STM32F4xx_HAL_Driver/Src/stm32f4xx_ll_fmc.c ****   MODIFY_REG(Device->SDCMR, FMC_SDCMR_NRFS, ((AutoRefreshNumber - 1U) << FMC_SDCMR_NRFS_Pos));
 1674              		.loc 1 1438 3 view .LVU462
 1675 0000 0369     		ldr	r3, [r0, #16]
 1676 0002 23F4F073 		bic	r3, r3, #480
 1677 0006 0139     		subs	r1, r1, #1
 1678              	.LVL103:
 1679              		.loc 1 1438 3 is_stmt 0 view .LVU463
 1680 0008 43EA4113 		orr	r3, r3, r1, lsl #5
 1681 000c 0361     		str	r3, [r0, #16]
1439:Drivers/STM32F4xx_HAL_Driver/Src/stm32f4xx_ll_fmc.c **** 
1440:Drivers/STM32F4xx_HAL_Driver/Src/stm32f4xx_ll_fmc.c ****   return HAL_OK;
 1682              		.loc 1 1440 3 is_stmt 1 view .LVU464
1441:Drivers/STM32F4xx_HAL_Driver/Src/stm32f4xx_ll_fmc.c **** }
 1683              		.loc 1 1441 1 is_stmt 0 view .LVU465
ARM GAS  C:\Users\stefa\AppData\Local\Temp\ccMreSci.s 			page 56


 1684 000e 0020     		movs	r0, #0
 1685              	.LVL104:
 1686              		.loc 1 1441 1 view .LVU466
 1687 0010 7047     		bx	lr
 1688              		.cfi_endproc
 1689              	.LFE155:
 1691              		.section	.text.FMC_SDRAM_GetModeStatus,"ax",%progbits
 1692              		.align	1
 1693              		.global	FMC_SDRAM_GetModeStatus
 1694              		.syntax unified
 1695              		.thumb
 1696              		.thumb_func
 1698              	FMC_SDRAM_GetModeStatus:
 1699              	.LVL105:
 1700              	.LFB156:
1442:Drivers/STM32F4xx_HAL_Driver/Src/stm32f4xx_ll_fmc.c **** 
1443:Drivers/STM32F4xx_HAL_Driver/Src/stm32f4xx_ll_fmc.c **** /**
1444:Drivers/STM32F4xx_HAL_Driver/Src/stm32f4xx_ll_fmc.c ****   * @brief  Returns the indicated FMC SDRAM bank mode status.
1445:Drivers/STM32F4xx_HAL_Driver/Src/stm32f4xx_ll_fmc.c ****   * @param  Device Pointer to SDRAM device instance
1446:Drivers/STM32F4xx_HAL_Driver/Src/stm32f4xx_ll_fmc.c ****   * @param  Bank Defines the FMC SDRAM bank. This parameter can be
1447:Drivers/STM32F4xx_HAL_Driver/Src/stm32f4xx_ll_fmc.c ****   *                     FMC_Bank1_SDRAM or FMC_Bank2_SDRAM.
1448:Drivers/STM32F4xx_HAL_Driver/Src/stm32f4xx_ll_fmc.c ****   * @retval The FMC SDRAM bank mode status, could be on of the following values:
1449:Drivers/STM32F4xx_HAL_Driver/Src/stm32f4xx_ll_fmc.c ****   *         FMC_SDRAM_NORMAL_MODE, FMC_SDRAM_SELF_REFRESH_MODE or
1450:Drivers/STM32F4xx_HAL_Driver/Src/stm32f4xx_ll_fmc.c ****   *         FMC_SDRAM_POWER_DOWN_MODE.
1451:Drivers/STM32F4xx_HAL_Driver/Src/stm32f4xx_ll_fmc.c ****   */
1452:Drivers/STM32F4xx_HAL_Driver/Src/stm32f4xx_ll_fmc.c **** uint32_t FMC_SDRAM_GetModeStatus(FMC_SDRAM_TypeDef *Device, uint32_t Bank)
1453:Drivers/STM32F4xx_HAL_Driver/Src/stm32f4xx_ll_fmc.c **** {
 1701              		.loc 1 1453 1 is_stmt 1 view -0
 1702              		.cfi_startproc
 1703              		@ args = 0, pretend = 0, frame = 0
 1704              		@ frame_needed = 0, uses_anonymous_args = 0
 1705              		@ link register save eliminated.
1454:Drivers/STM32F4xx_HAL_Driver/Src/stm32f4xx_ll_fmc.c ****   uint32_t tmpreg;
 1706              		.loc 1 1454 3 view .LVU468
1455:Drivers/STM32F4xx_HAL_Driver/Src/stm32f4xx_ll_fmc.c **** 
1456:Drivers/STM32F4xx_HAL_Driver/Src/stm32f4xx_ll_fmc.c ****   /* Check the parameters */
1457:Drivers/STM32F4xx_HAL_Driver/Src/stm32f4xx_ll_fmc.c ****   assert_param(IS_FMC_SDRAM_DEVICE(Device));
 1707              		.loc 1 1457 3 view .LVU469
1458:Drivers/STM32F4xx_HAL_Driver/Src/stm32f4xx_ll_fmc.c ****   assert_param(IS_FMC_SDRAM_BANK(Bank));
 1708              		.loc 1 1458 3 view .LVU470
1459:Drivers/STM32F4xx_HAL_Driver/Src/stm32f4xx_ll_fmc.c **** 
1460:Drivers/STM32F4xx_HAL_Driver/Src/stm32f4xx_ll_fmc.c ****   /* Get the corresponding bank mode */
1461:Drivers/STM32F4xx_HAL_Driver/Src/stm32f4xx_ll_fmc.c ****   if (Bank == FMC_SDRAM_BANK1)
 1709              		.loc 1 1461 3 view .LVU471
 1710              		.loc 1 1461 6 is_stmt 0 view .LVU472
 1711 0000 19B9     		cbnz	r1, .L100
1462:Drivers/STM32F4xx_HAL_Driver/Src/stm32f4xx_ll_fmc.c ****   {
1463:Drivers/STM32F4xx_HAL_Driver/Src/stm32f4xx_ll_fmc.c ****     tmpreg = (uint32_t)(Device->SDSR & FMC_SDSR_MODES1);
 1712              		.loc 1 1463 5 is_stmt 1 view .LVU473
 1713              		.loc 1 1463 31 is_stmt 0 view .LVU474
 1714 0002 8069     		ldr	r0, [r0, #24]
 1715              	.LVL106:
 1716              		.loc 1 1463 12 view .LVU475
 1717 0004 00F00600 		and	r0, r0, #6
 1718              	.LVL107:
 1719              		.loc 1 1463 12 view .LVU476
 1720 0008 7047     		bx	lr
ARM GAS  C:\Users\stefa\AppData\Local\Temp\ccMreSci.s 			page 57


 1721              	.LVL108:
 1722              	.L100:
1464:Drivers/STM32F4xx_HAL_Driver/Src/stm32f4xx_ll_fmc.c ****   }
1465:Drivers/STM32F4xx_HAL_Driver/Src/stm32f4xx_ll_fmc.c ****   else
1466:Drivers/STM32F4xx_HAL_Driver/Src/stm32f4xx_ll_fmc.c ****   {
1467:Drivers/STM32F4xx_HAL_Driver/Src/stm32f4xx_ll_fmc.c ****     tmpreg = ((uint32_t)(Device->SDSR & FMC_SDSR_MODES2) >> 2U);
 1723              		.loc 1 1467 5 is_stmt 1 view .LVU477
 1724              		.loc 1 1467 32 is_stmt 0 view .LVU478
 1725 000a 8069     		ldr	r0, [r0, #24]
 1726              	.LVL109:
 1727              		.loc 1 1467 58 view .LVU479
 1728 000c 8008     		lsrs	r0, r0, #2
 1729              		.loc 1 1467 12 view .LVU480
 1730 000e 00F00600 		and	r0, r0, #6
 1731              	.LVL110:
1468:Drivers/STM32F4xx_HAL_Driver/Src/stm32f4xx_ll_fmc.c ****   }
1469:Drivers/STM32F4xx_HAL_Driver/Src/stm32f4xx_ll_fmc.c **** 
1470:Drivers/STM32F4xx_HAL_Driver/Src/stm32f4xx_ll_fmc.c ****   /* Return the mode status */
1471:Drivers/STM32F4xx_HAL_Driver/Src/stm32f4xx_ll_fmc.c ****   return tmpreg;
 1732              		.loc 1 1471 3 is_stmt 1 view .LVU481
1472:Drivers/STM32F4xx_HAL_Driver/Src/stm32f4xx_ll_fmc.c **** }
 1733              		.loc 1 1472 1 is_stmt 0 view .LVU482
 1734 0012 7047     		bx	lr
 1735              		.cfi_endproc
 1736              	.LFE156:
 1738              		.text
 1739              	.Letext0:
 1740              		.file 2 "d:\\vscodedev\\tools\\gcc-arm-none-eabi-10.3-2021.10\\arm-none-eabi\\include\\machine\\_d
 1741              		.file 3 "d:\\vscodedev\\tools\\gcc-arm-none-eabi-10.3-2021.10\\arm-none-eabi\\include\\sys\\_stdin
 1742              		.file 4 "Drivers/CMSIS/Device/ST/STM32F4xx/Include/stm32f429xx.h"
 1743              		.file 5 "Drivers/CMSIS/Device/ST/STM32F4xx/Include/stm32f4xx.h"
 1744              		.file 6 "Drivers/STM32F4xx_HAL_Driver/Inc/stm32f4xx_hal_def.h"
 1745              		.file 7 "Drivers/STM32F4xx_HAL_Driver/Inc/stm32f4xx_ll_fmc.h"
 1746              		.file 8 "Drivers/STM32F4xx_HAL_Driver/Inc/stm32f4xx_hal.h"
ARM GAS  C:\Users\stefa\AppData\Local\Temp\ccMreSci.s 			page 58

