ARM GAS  C:\Users\stefa\AppData\Local\Temp\ccPmQnPM.s 			page 1


   1              		.cpu cortex-m4
   2              		.arch armv7e-m
   3              		.fpu fpv4-sp-d16
   4              		.eabi_attribute 27, 1
   5              		.eabi_attribute 28, 1
   6              		.eabi_attribute 20, 1
   7              		.eabi_attribute 21, 1
   8              		.eabi_attribute 23, 3
   9              		.eabi_attribute 24, 1
  10              		.eabi_attribute 25, 1
  11              		.eabi_attribute 26, 1
  12              		.eabi_attribute 30, 1
  13              		.eabi_attribute 34, 1
  14              		.eabi_attribute 18, 4
  15              		.file	"usbh_conf.c"
  16              		.text
  17              	.Ltext0:
  18              		.cfi_sections	.debug_frame
  19              		.section	.text.HAL_HCD_MspInit,"ax",%progbits
  20              		.align	1
  21              		.global	HAL_HCD_MspInit
  22              		.syntax unified
  23              		.thumb
  24              		.thumb_func
  26              	HAL_HCD_MspInit:
  27              	.LVL0:
  28              	.LFB133:
  29              		.file 1 "USB_HOST/Target/usbh_conf.c"
   1:USB_HOST/Target/usbh_conf.c **** /* USER CODE BEGIN Header */
   2:USB_HOST/Target/usbh_conf.c **** /**
   3:USB_HOST/Target/usbh_conf.c ****   ******************************************************************************
   4:USB_HOST/Target/usbh_conf.c ****   * @file           : Target/usbh_conf.c
   5:USB_HOST/Target/usbh_conf.c ****   * @version        : v1.0_Cube
   6:USB_HOST/Target/usbh_conf.c ****   * @brief          : This file implements the board support package for the USB host library
   7:USB_HOST/Target/usbh_conf.c ****   ******************************************************************************
   8:USB_HOST/Target/usbh_conf.c ****   * @attention
   9:USB_HOST/Target/usbh_conf.c ****   *
  10:USB_HOST/Target/usbh_conf.c ****   * Copyright (c) 2022 STMicroelectronics.
  11:USB_HOST/Target/usbh_conf.c ****   * All rights reserved.
  12:USB_HOST/Target/usbh_conf.c ****   *
  13:USB_HOST/Target/usbh_conf.c ****   * This software is licensed under terms that can be found in the LICENSE file
  14:USB_HOST/Target/usbh_conf.c ****   * in the root directory of this software component.
  15:USB_HOST/Target/usbh_conf.c ****   * If no LICENSE file comes with this software, it is provided AS-IS.
  16:USB_HOST/Target/usbh_conf.c ****   *
  17:USB_HOST/Target/usbh_conf.c ****   ******************************************************************************
  18:USB_HOST/Target/usbh_conf.c ****   */
  19:USB_HOST/Target/usbh_conf.c **** /* USER CODE END Header */
  20:USB_HOST/Target/usbh_conf.c **** 
  21:USB_HOST/Target/usbh_conf.c **** /* Includes ------------------------------------------------------------------*/
  22:USB_HOST/Target/usbh_conf.c **** #include "usbh_core.h"
  23:USB_HOST/Target/usbh_conf.c **** #include "usbh_platform.h"
  24:USB_HOST/Target/usbh_conf.c **** 
  25:USB_HOST/Target/usbh_conf.c **** /* USER CODE BEGIN Includes */
  26:USB_HOST/Target/usbh_conf.c **** 
  27:USB_HOST/Target/usbh_conf.c **** /* USER CODE END Includes */
  28:USB_HOST/Target/usbh_conf.c **** 
  29:USB_HOST/Target/usbh_conf.c **** /* Private typedef -----------------------------------------------------------*/
ARM GAS  C:\Users\stefa\AppData\Local\Temp\ccPmQnPM.s 			page 2


  30:USB_HOST/Target/usbh_conf.c **** /* Private define ------------------------------------------------------------*/
  31:USB_HOST/Target/usbh_conf.c **** /* Private macro -------------------------------------------------------------*/
  32:USB_HOST/Target/usbh_conf.c **** 
  33:USB_HOST/Target/usbh_conf.c **** /* USER CODE BEGIN PV */
  34:USB_HOST/Target/usbh_conf.c **** /* Private variables ---------------------------------------------------------*/
  35:USB_HOST/Target/usbh_conf.c **** 
  36:USB_HOST/Target/usbh_conf.c **** /* USER CODE END PV */
  37:USB_HOST/Target/usbh_conf.c **** 
  38:USB_HOST/Target/usbh_conf.c **** HCD_HandleTypeDef hhcd_USB_OTG_HS;
  39:USB_HOST/Target/usbh_conf.c **** void Error_Handler(void);
  40:USB_HOST/Target/usbh_conf.c **** 
  41:USB_HOST/Target/usbh_conf.c **** /* USER CODE BEGIN 0 */
  42:USB_HOST/Target/usbh_conf.c **** 
  43:USB_HOST/Target/usbh_conf.c **** /* USER CODE END 0 */
  44:USB_HOST/Target/usbh_conf.c **** 
  45:USB_HOST/Target/usbh_conf.c **** /* USER CODE BEGIN PFP */
  46:USB_HOST/Target/usbh_conf.c **** /* Private function prototypes -----------------------------------------------*/
  47:USB_HOST/Target/usbh_conf.c **** USBH_StatusTypeDef USBH_Get_USB_Status(HAL_StatusTypeDef hal_status);
  48:USB_HOST/Target/usbh_conf.c **** 
  49:USB_HOST/Target/usbh_conf.c **** /* USER CODE END PFP */
  50:USB_HOST/Target/usbh_conf.c **** 
  51:USB_HOST/Target/usbh_conf.c **** /* Private functions ---------------------------------------------------------*/
  52:USB_HOST/Target/usbh_conf.c **** 
  53:USB_HOST/Target/usbh_conf.c **** /* USER CODE BEGIN 1 */
  54:USB_HOST/Target/usbh_conf.c **** 
  55:USB_HOST/Target/usbh_conf.c **** /* USER CODE END 1 */
  56:USB_HOST/Target/usbh_conf.c **** 
  57:USB_HOST/Target/usbh_conf.c **** /*******************************************************************************
  58:USB_HOST/Target/usbh_conf.c ****                        LL Driver Callbacks (HCD -> USB Host Library)
  59:USB_HOST/Target/usbh_conf.c **** *******************************************************************************/
  60:USB_HOST/Target/usbh_conf.c **** /* MSP Init */
  61:USB_HOST/Target/usbh_conf.c **** 
  62:USB_HOST/Target/usbh_conf.c **** void HAL_HCD_MspInit(HCD_HandleTypeDef* hcdHandle)
  63:USB_HOST/Target/usbh_conf.c **** {
  30              		.loc 1 63 1 view -0
  31              		.cfi_startproc
  32              		@ args = 0, pretend = 0, frame = 32
  33              		@ frame_needed = 0, uses_anonymous_args = 0
  34              		.loc 1 63 1 is_stmt 0 view .LVU1
  35 0000 70B5     		push	{r4, r5, r6, lr}
  36              	.LCFI0:
  37              		.cfi_def_cfa_offset 16
  38              		.cfi_offset 4, -16
  39              		.cfi_offset 5, -12
  40              		.cfi_offset 6, -8
  41              		.cfi_offset 14, -4
  42 0002 88B0     		sub	sp, sp, #32
  43              	.LCFI1:
  44              		.cfi_def_cfa_offset 48
  64:USB_HOST/Target/usbh_conf.c ****   GPIO_InitTypeDef GPIO_InitStruct = {0};
  45              		.loc 1 64 3 is_stmt 1 view .LVU2
  46              		.loc 1 64 20 is_stmt 0 view .LVU3
  47 0004 0023     		movs	r3, #0
  48 0006 0393     		str	r3, [sp, #12]
  49 0008 0493     		str	r3, [sp, #16]
  50 000a 0593     		str	r3, [sp, #20]
  51 000c 0693     		str	r3, [sp, #24]
ARM GAS  C:\Users\stefa\AppData\Local\Temp\ccPmQnPM.s 			page 3


  52 000e 0793     		str	r3, [sp, #28]
  65:USB_HOST/Target/usbh_conf.c ****   if(hcdHandle->Instance==USB_OTG_HS)
  53              		.loc 1 65 3 is_stmt 1 view .LVU4
  54              		.loc 1 65 15 is_stmt 0 view .LVU5
  55 0010 0268     		ldr	r2, [r0]
  56              		.loc 1 65 5 view .LVU6
  57 0012 1D4B     		ldr	r3, .L5
  58 0014 9A42     		cmp	r2, r3
  59 0016 01D0     		beq	.L4
  60              	.LVL1:
  61              	.L1:
  66:USB_HOST/Target/usbh_conf.c ****   {
  67:USB_HOST/Target/usbh_conf.c ****   /* USER CODE BEGIN USB_OTG_HS_MspInit 0 */
  68:USB_HOST/Target/usbh_conf.c **** 
  69:USB_HOST/Target/usbh_conf.c ****   /* USER CODE END USB_OTG_HS_MspInit 0 */
  70:USB_HOST/Target/usbh_conf.c **** 
  71:USB_HOST/Target/usbh_conf.c ****     __HAL_RCC_GPIOB_CLK_ENABLE();
  72:USB_HOST/Target/usbh_conf.c ****     /**USB_OTG_HS GPIO Configuration
  73:USB_HOST/Target/usbh_conf.c ****     PB12     ------> USB_OTG_HS_ID
  74:USB_HOST/Target/usbh_conf.c ****     PB13     ------> USB_OTG_HS_VBUS
  75:USB_HOST/Target/usbh_conf.c ****     PB14     ------> USB_OTG_HS_DM
  76:USB_HOST/Target/usbh_conf.c ****     PB15     ------> USB_OTG_HS_DP
  77:USB_HOST/Target/usbh_conf.c ****     */
  78:USB_HOST/Target/usbh_conf.c ****     GPIO_InitStruct.Pin = OTG_HS_ID_Pin|OTG_HS_DM_Pin|OTG_HS_DP_Pin;
  79:USB_HOST/Target/usbh_conf.c ****     GPIO_InitStruct.Mode = GPIO_MODE_AF_PP;
  80:USB_HOST/Target/usbh_conf.c ****     GPIO_InitStruct.Pull = GPIO_NOPULL;
  81:USB_HOST/Target/usbh_conf.c ****     GPIO_InitStruct.Speed = GPIO_SPEED_FREQ_LOW;
  82:USB_HOST/Target/usbh_conf.c ****     GPIO_InitStruct.Alternate = GPIO_AF12_OTG_HS_FS;
  83:USB_HOST/Target/usbh_conf.c ****     HAL_GPIO_Init(GPIOB, &GPIO_InitStruct);
  84:USB_HOST/Target/usbh_conf.c **** 
  85:USB_HOST/Target/usbh_conf.c ****     GPIO_InitStruct.Pin = VBUS_HS_Pin;
  86:USB_HOST/Target/usbh_conf.c ****     GPIO_InitStruct.Mode = GPIO_MODE_INPUT;
  87:USB_HOST/Target/usbh_conf.c ****     GPIO_InitStruct.Pull = GPIO_NOPULL;
  88:USB_HOST/Target/usbh_conf.c ****     HAL_GPIO_Init(VBUS_HS_GPIO_Port, &GPIO_InitStruct);
  89:USB_HOST/Target/usbh_conf.c **** 
  90:USB_HOST/Target/usbh_conf.c ****     /* Peripheral clock enable */
  91:USB_HOST/Target/usbh_conf.c ****     __HAL_RCC_USB_OTG_HS_CLK_ENABLE();
  92:USB_HOST/Target/usbh_conf.c **** 
  93:USB_HOST/Target/usbh_conf.c ****     /* Peripheral interrupt init */
  94:USB_HOST/Target/usbh_conf.c ****     HAL_NVIC_SetPriority(OTG_HS_IRQn, 0, 0);
  95:USB_HOST/Target/usbh_conf.c ****     HAL_NVIC_EnableIRQ(OTG_HS_IRQn);
  96:USB_HOST/Target/usbh_conf.c ****   /* USER CODE BEGIN USB_OTG_HS_MspInit 1 */
  97:USB_HOST/Target/usbh_conf.c **** 
  98:USB_HOST/Target/usbh_conf.c ****   /* USER CODE END USB_OTG_HS_MspInit 1 */
  99:USB_HOST/Target/usbh_conf.c ****   }
 100:USB_HOST/Target/usbh_conf.c **** }
  62              		.loc 1 100 1 view .LVU7
  63 0018 08B0     		add	sp, sp, #32
  64              	.LCFI2:
  65              		.cfi_remember_state
  66              		.cfi_def_cfa_offset 16
  67              		@ sp needed
  68 001a 70BD     		pop	{r4, r5, r6, pc}
  69              	.LVL2:
  70              	.L4:
  71              	.LCFI3:
  72              		.cfi_restore_state
ARM GAS  C:\Users\stefa\AppData\Local\Temp\ccPmQnPM.s 			page 4


  71:USB_HOST/Target/usbh_conf.c ****     /**USB_OTG_HS GPIO Configuration
  73              		.loc 1 71 5 is_stmt 1 view .LVU8
  74              	.LBB2:
  71:USB_HOST/Target/usbh_conf.c ****     /**USB_OTG_HS GPIO Configuration
  75              		.loc 1 71 5 view .LVU9
  76 001c 0024     		movs	r4, #0
  77 001e 0194     		str	r4, [sp, #4]
  71:USB_HOST/Target/usbh_conf.c ****     /**USB_OTG_HS GPIO Configuration
  78              		.loc 1 71 5 view .LVU10
  79 0020 1A4D     		ldr	r5, .L5+4
  80 0022 2B6B     		ldr	r3, [r5, #48]
  81 0024 43F00203 		orr	r3, r3, #2
  82 0028 2B63     		str	r3, [r5, #48]
  71:USB_HOST/Target/usbh_conf.c ****     /**USB_OTG_HS GPIO Configuration
  83              		.loc 1 71 5 view .LVU11
  84 002a 2B6B     		ldr	r3, [r5, #48]
  85 002c 03F00203 		and	r3, r3, #2
  86 0030 0193     		str	r3, [sp, #4]
  71:USB_HOST/Target/usbh_conf.c ****     /**USB_OTG_HS GPIO Configuration
  87              		.loc 1 71 5 view .LVU12
  88 0032 019B     		ldr	r3, [sp, #4]
  89              	.LBE2:
  71:USB_HOST/Target/usbh_conf.c ****     /**USB_OTG_HS GPIO Configuration
  90              		.loc 1 71 5 view .LVU13
  78:USB_HOST/Target/usbh_conf.c ****     GPIO_InitStruct.Mode = GPIO_MODE_AF_PP;
  91              		.loc 1 78 5 view .LVU14
  78:USB_HOST/Target/usbh_conf.c ****     GPIO_InitStruct.Mode = GPIO_MODE_AF_PP;
  92              		.loc 1 78 25 is_stmt 0 view .LVU15
  93 0034 4FF45043 		mov	r3, #53248
  94 0038 0393     		str	r3, [sp, #12]
  79:USB_HOST/Target/usbh_conf.c ****     GPIO_InitStruct.Pull = GPIO_NOPULL;
  95              		.loc 1 79 5 is_stmt 1 view .LVU16
  79:USB_HOST/Target/usbh_conf.c ****     GPIO_InitStruct.Pull = GPIO_NOPULL;
  96              		.loc 1 79 26 is_stmt 0 view .LVU17
  97 003a 0223     		movs	r3, #2
  98 003c 0493     		str	r3, [sp, #16]
  80:USB_HOST/Target/usbh_conf.c ****     GPIO_InitStruct.Speed = GPIO_SPEED_FREQ_LOW;
  99              		.loc 1 80 5 is_stmt 1 view .LVU18
  81:USB_HOST/Target/usbh_conf.c ****     GPIO_InitStruct.Alternate = GPIO_AF12_OTG_HS_FS;
 100              		.loc 1 81 5 view .LVU19
  82:USB_HOST/Target/usbh_conf.c ****     HAL_GPIO_Init(GPIOB, &GPIO_InitStruct);
 101              		.loc 1 82 5 view .LVU20
  82:USB_HOST/Target/usbh_conf.c ****     HAL_GPIO_Init(GPIOB, &GPIO_InitStruct);
 102              		.loc 1 82 31 is_stmt 0 view .LVU21
 103 003e 0C23     		movs	r3, #12
 104 0040 0793     		str	r3, [sp, #28]
  83:USB_HOST/Target/usbh_conf.c **** 
 105              		.loc 1 83 5 is_stmt 1 view .LVU22
 106 0042 134E     		ldr	r6, .L5+8
 107 0044 0DEB0301 		add	r1, sp, r3
 108 0048 3046     		mov	r0, r6
 109              	.LVL3:
  83:USB_HOST/Target/usbh_conf.c **** 
 110              		.loc 1 83 5 is_stmt 0 view .LVU23
 111 004a FFF7FEFF 		bl	HAL_GPIO_Init
 112              	.LVL4:
  85:USB_HOST/Target/usbh_conf.c ****     GPIO_InitStruct.Mode = GPIO_MODE_INPUT;
ARM GAS  C:\Users\stefa\AppData\Local\Temp\ccPmQnPM.s 			page 5


 113              		.loc 1 85 5 is_stmt 1 view .LVU24
  85:USB_HOST/Target/usbh_conf.c ****     GPIO_InitStruct.Mode = GPIO_MODE_INPUT;
 114              		.loc 1 85 25 is_stmt 0 view .LVU25
 115 004e 4FF40053 		mov	r3, #8192
 116 0052 0393     		str	r3, [sp, #12]
  86:USB_HOST/Target/usbh_conf.c ****     GPIO_InitStruct.Pull = GPIO_NOPULL;
 117              		.loc 1 86 5 is_stmt 1 view .LVU26
  86:USB_HOST/Target/usbh_conf.c ****     GPIO_InitStruct.Pull = GPIO_NOPULL;
 118              		.loc 1 86 26 is_stmt 0 view .LVU27
 119 0054 0494     		str	r4, [sp, #16]
  87:USB_HOST/Target/usbh_conf.c ****     HAL_GPIO_Init(VBUS_HS_GPIO_Port, &GPIO_InitStruct);
 120              		.loc 1 87 5 is_stmt 1 view .LVU28
  87:USB_HOST/Target/usbh_conf.c ****     HAL_GPIO_Init(VBUS_HS_GPIO_Port, &GPIO_InitStruct);
 121              		.loc 1 87 26 is_stmt 0 view .LVU29
 122 0056 0594     		str	r4, [sp, #20]
  88:USB_HOST/Target/usbh_conf.c **** 
 123              		.loc 1 88 5 is_stmt 1 view .LVU30
 124 0058 03A9     		add	r1, sp, #12
 125 005a 3046     		mov	r0, r6
 126 005c FFF7FEFF 		bl	HAL_GPIO_Init
 127              	.LVL5:
  91:USB_HOST/Target/usbh_conf.c **** 
 128              		.loc 1 91 5 view .LVU31
 129              	.LBB3:
  91:USB_HOST/Target/usbh_conf.c **** 
 130              		.loc 1 91 5 view .LVU32
 131 0060 0294     		str	r4, [sp, #8]
  91:USB_HOST/Target/usbh_conf.c **** 
 132              		.loc 1 91 5 view .LVU33
 133 0062 2B6B     		ldr	r3, [r5, #48]
 134 0064 43F00053 		orr	r3, r3, #536870912
 135 0068 2B63     		str	r3, [r5, #48]
  91:USB_HOST/Target/usbh_conf.c **** 
 136              		.loc 1 91 5 view .LVU34
 137 006a 2B6B     		ldr	r3, [r5, #48]
 138 006c 03F00053 		and	r3, r3, #536870912
 139 0070 0293     		str	r3, [sp, #8]
  91:USB_HOST/Target/usbh_conf.c **** 
 140              		.loc 1 91 5 view .LVU35
 141 0072 029B     		ldr	r3, [sp, #8]
 142              	.LBE3:
  91:USB_HOST/Target/usbh_conf.c **** 
 143              		.loc 1 91 5 view .LVU36
  94:USB_HOST/Target/usbh_conf.c ****     HAL_NVIC_EnableIRQ(OTG_HS_IRQn);
 144              		.loc 1 94 5 view .LVU37
 145 0074 2246     		mov	r2, r4
 146 0076 2146     		mov	r1, r4
 147 0078 4D20     		movs	r0, #77
 148 007a FFF7FEFF 		bl	HAL_NVIC_SetPriority
 149              	.LVL6:
  95:USB_HOST/Target/usbh_conf.c ****   /* USER CODE BEGIN USB_OTG_HS_MspInit 1 */
 150              		.loc 1 95 5 view .LVU38
 151 007e 4D20     		movs	r0, #77
 152 0080 FFF7FEFF 		bl	HAL_NVIC_EnableIRQ
 153              	.LVL7:
 154              		.loc 1 100 1 is_stmt 0 view .LVU39
 155 0084 C8E7     		b	.L1
ARM GAS  C:\Users\stefa\AppData\Local\Temp\ccPmQnPM.s 			page 6


 156              	.L6:
 157 0086 00BF     		.align	2
 158              	.L5:
 159 0088 00000440 		.word	1074003968
 160 008c 00380240 		.word	1073887232
 161 0090 00040240 		.word	1073873920
 162              		.cfi_endproc
 163              	.LFE133:
 165              		.section	.text.HAL_HCD_MspDeInit,"ax",%progbits
 166              		.align	1
 167              		.global	HAL_HCD_MspDeInit
 168              		.syntax unified
 169              		.thumb
 170              		.thumb_func
 172              	HAL_HCD_MspDeInit:
 173              	.LVL8:
 174              	.LFB134:
 101:USB_HOST/Target/usbh_conf.c **** 
 102:USB_HOST/Target/usbh_conf.c **** void HAL_HCD_MspDeInit(HCD_HandleTypeDef* hcdHandle)
 103:USB_HOST/Target/usbh_conf.c **** {
 175              		.loc 1 103 1 is_stmt 1 view -0
 176              		.cfi_startproc
 177              		@ args = 0, pretend = 0, frame = 0
 178              		@ frame_needed = 0, uses_anonymous_args = 0
 179              		.loc 1 103 1 is_stmt 0 view .LVU41
 180 0000 08B5     		push	{r3, lr}
 181              	.LCFI4:
 182              		.cfi_def_cfa_offset 8
 183              		.cfi_offset 3, -8
 184              		.cfi_offset 14, -4
 104:USB_HOST/Target/usbh_conf.c ****   if(hcdHandle->Instance==USB_OTG_HS)
 185              		.loc 1 104 3 is_stmt 1 view .LVU42
 186              		.loc 1 104 15 is_stmt 0 view .LVU43
 187 0002 0268     		ldr	r2, [r0]
 188              		.loc 1 104 5 view .LVU44
 189 0004 084B     		ldr	r3, .L11
 190 0006 9A42     		cmp	r2, r3
 191 0008 00D0     		beq	.L10
 192              	.LVL9:
 193              	.L7:
 105:USB_HOST/Target/usbh_conf.c ****   {
 106:USB_HOST/Target/usbh_conf.c ****   /* USER CODE BEGIN USB_OTG_HS_MspDeInit 0 */
 107:USB_HOST/Target/usbh_conf.c **** 
 108:USB_HOST/Target/usbh_conf.c ****   /* USER CODE END USB_OTG_HS_MspDeInit 0 */
 109:USB_HOST/Target/usbh_conf.c ****     /* Peripheral clock disable */
 110:USB_HOST/Target/usbh_conf.c ****     __HAL_RCC_USB_OTG_HS_CLK_DISABLE();
 111:USB_HOST/Target/usbh_conf.c **** 
 112:USB_HOST/Target/usbh_conf.c ****     /**USB_OTG_HS GPIO Configuration
 113:USB_HOST/Target/usbh_conf.c ****     PB12     ------> USB_OTG_HS_ID
 114:USB_HOST/Target/usbh_conf.c ****     PB13     ------> USB_OTG_HS_VBUS
 115:USB_HOST/Target/usbh_conf.c ****     PB14     ------> USB_OTG_HS_DM
 116:USB_HOST/Target/usbh_conf.c ****     PB15     ------> USB_OTG_HS_DP
 117:USB_HOST/Target/usbh_conf.c ****     */
 118:USB_HOST/Target/usbh_conf.c ****     HAL_GPIO_DeInit(GPIOB, OTG_HS_ID_Pin|VBUS_HS_Pin|OTG_HS_DM_Pin|OTG_HS_DP_Pin);
 119:USB_HOST/Target/usbh_conf.c **** 
 120:USB_HOST/Target/usbh_conf.c ****     /* Peripheral interrupt Deinit*/
 121:USB_HOST/Target/usbh_conf.c ****     HAL_NVIC_DisableIRQ(OTG_HS_IRQn);
ARM GAS  C:\Users\stefa\AppData\Local\Temp\ccPmQnPM.s 			page 7


 122:USB_HOST/Target/usbh_conf.c **** 
 123:USB_HOST/Target/usbh_conf.c ****   /* USER CODE BEGIN USB_OTG_HS_MspDeInit 1 */
 124:USB_HOST/Target/usbh_conf.c **** 
 125:USB_HOST/Target/usbh_conf.c ****   /* USER CODE END USB_OTG_HS_MspDeInit 1 */
 126:USB_HOST/Target/usbh_conf.c ****   }
 127:USB_HOST/Target/usbh_conf.c **** }
 194              		.loc 1 127 1 view .LVU45
 195 000a 08BD     		pop	{r3, pc}
 196              	.LVL10:
 197              	.L10:
 110:USB_HOST/Target/usbh_conf.c **** 
 198              		.loc 1 110 5 is_stmt 1 view .LVU46
 199 000c 074A     		ldr	r2, .L11+4
 200 000e 136B     		ldr	r3, [r2, #48]
 201 0010 23F00053 		bic	r3, r3, #536870912
 202 0014 1363     		str	r3, [r2, #48]
 118:USB_HOST/Target/usbh_conf.c **** 
 203              		.loc 1 118 5 view .LVU47
 204 0016 4FF47041 		mov	r1, #61440
 205 001a 0548     		ldr	r0, .L11+8
 206              	.LVL11:
 118:USB_HOST/Target/usbh_conf.c **** 
 207              		.loc 1 118 5 is_stmt 0 view .LVU48
 208 001c FFF7FEFF 		bl	HAL_GPIO_DeInit
 209              	.LVL12:
 121:USB_HOST/Target/usbh_conf.c **** 
 210              		.loc 1 121 5 is_stmt 1 view .LVU49
 211 0020 4D20     		movs	r0, #77
 212 0022 FFF7FEFF 		bl	HAL_NVIC_DisableIRQ
 213              	.LVL13:
 214              		.loc 1 127 1 is_stmt 0 view .LVU50
 215 0026 F0E7     		b	.L7
 216              	.L12:
 217              		.align	2
 218              	.L11:
 219 0028 00000440 		.word	1074003968
 220 002c 00380240 		.word	1073887232
 221 0030 00040240 		.word	1073873920
 222              		.cfi_endproc
 223              	.LFE134:
 225              		.section	.text.HAL_HCD_SOF_Callback,"ax",%progbits
 226              		.align	1
 227              		.global	HAL_HCD_SOF_Callback
 228              		.syntax unified
 229              		.thumb
 230              		.thumb_func
 232              	HAL_HCD_SOF_Callback:
 233              	.LVL14:
 234              	.LFB135:
 128:USB_HOST/Target/usbh_conf.c **** 
 129:USB_HOST/Target/usbh_conf.c **** /**
 130:USB_HOST/Target/usbh_conf.c ****   * @brief  SOF callback.
 131:USB_HOST/Target/usbh_conf.c ****   * @param  hhcd: HCD handle
 132:USB_HOST/Target/usbh_conf.c ****   * @retval None
 133:USB_HOST/Target/usbh_conf.c ****   */
 134:USB_HOST/Target/usbh_conf.c **** void HAL_HCD_SOF_Callback(HCD_HandleTypeDef *hhcd)
 135:USB_HOST/Target/usbh_conf.c **** {
ARM GAS  C:\Users\stefa\AppData\Local\Temp\ccPmQnPM.s 			page 8


 235              		.loc 1 135 1 is_stmt 1 view -0
 236              		.cfi_startproc
 237              		@ args = 0, pretend = 0, frame = 0
 238              		@ frame_needed = 0, uses_anonymous_args = 0
 239              		.loc 1 135 1 is_stmt 0 view .LVU52
 240 0000 08B5     		push	{r3, lr}
 241              	.LCFI5:
 242              		.cfi_def_cfa_offset 8
 243              		.cfi_offset 3, -8
 244              		.cfi_offset 14, -4
 136:USB_HOST/Target/usbh_conf.c ****   USBH_LL_IncTimer(hhcd->pData);
 245              		.loc 1 136 3 is_stmt 1 view .LVU53
 246 0002 D0F80003 		ldr	r0, [r0, #768]
 247              	.LVL15:
 248              		.loc 1 136 3 is_stmt 0 view .LVU54
 249 0006 FFF7FEFF 		bl	USBH_LL_IncTimer
 250              	.LVL16:
 137:USB_HOST/Target/usbh_conf.c **** }
 251              		.loc 1 137 1 view .LVU55
 252 000a 08BD     		pop	{r3, pc}
 253              		.cfi_endproc
 254              	.LFE135:
 256              		.section	.text.HAL_HCD_Connect_Callback,"ax",%progbits
 257              		.align	1
 258              		.global	HAL_HCD_Connect_Callback
 259              		.syntax unified
 260              		.thumb
 261              		.thumb_func
 263              	HAL_HCD_Connect_Callback:
 264              	.LVL17:
 265              	.LFB136:
 138:USB_HOST/Target/usbh_conf.c **** 
 139:USB_HOST/Target/usbh_conf.c **** /**
 140:USB_HOST/Target/usbh_conf.c ****   * @brief  SOF callback.
 141:USB_HOST/Target/usbh_conf.c ****   * @param  hhcd: HCD handle
 142:USB_HOST/Target/usbh_conf.c ****   * @retval None
 143:USB_HOST/Target/usbh_conf.c ****   */
 144:USB_HOST/Target/usbh_conf.c **** void HAL_HCD_Connect_Callback(HCD_HandleTypeDef *hhcd)
 145:USB_HOST/Target/usbh_conf.c **** {
 266              		.loc 1 145 1 is_stmt 1 view -0
 267              		.cfi_startproc
 268              		@ args = 0, pretend = 0, frame = 0
 269              		@ frame_needed = 0, uses_anonymous_args = 0
 270              		.loc 1 145 1 is_stmt 0 view .LVU57
 271 0000 08B5     		push	{r3, lr}
 272              	.LCFI6:
 273              		.cfi_def_cfa_offset 8
 274              		.cfi_offset 3, -8
 275              		.cfi_offset 14, -4
 146:USB_HOST/Target/usbh_conf.c ****   USBH_LL_Connect(hhcd->pData);
 276              		.loc 1 146 3 is_stmt 1 view .LVU58
 277 0002 D0F80003 		ldr	r0, [r0, #768]
 278              	.LVL18:
 279              		.loc 1 146 3 is_stmt 0 view .LVU59
 280 0006 FFF7FEFF 		bl	USBH_LL_Connect
 281              	.LVL19:
 147:USB_HOST/Target/usbh_conf.c **** }
ARM GAS  C:\Users\stefa\AppData\Local\Temp\ccPmQnPM.s 			page 9


 282              		.loc 1 147 1 view .LVU60
 283 000a 08BD     		pop	{r3, pc}
 284              		.cfi_endproc
 285              	.LFE136:
 287              		.section	.text.HAL_HCD_Disconnect_Callback,"ax",%progbits
 288              		.align	1
 289              		.global	HAL_HCD_Disconnect_Callback
 290              		.syntax unified
 291              		.thumb
 292              		.thumb_func
 294              	HAL_HCD_Disconnect_Callback:
 295              	.LVL20:
 296              	.LFB137:
 148:USB_HOST/Target/usbh_conf.c **** 
 149:USB_HOST/Target/usbh_conf.c **** /**
 150:USB_HOST/Target/usbh_conf.c ****   * @brief  SOF callback.
 151:USB_HOST/Target/usbh_conf.c ****   * @param  hhcd: HCD handle
 152:USB_HOST/Target/usbh_conf.c ****   * @retval None
 153:USB_HOST/Target/usbh_conf.c ****   */
 154:USB_HOST/Target/usbh_conf.c **** void HAL_HCD_Disconnect_Callback(HCD_HandleTypeDef *hhcd)
 155:USB_HOST/Target/usbh_conf.c **** {
 297              		.loc 1 155 1 is_stmt 1 view -0
 298              		.cfi_startproc
 299              		@ args = 0, pretend = 0, frame = 0
 300              		@ frame_needed = 0, uses_anonymous_args = 0
 301              		.loc 1 155 1 is_stmt 0 view .LVU62
 302 0000 08B5     		push	{r3, lr}
 303              	.LCFI7:
 304              		.cfi_def_cfa_offset 8
 305              		.cfi_offset 3, -8
 306              		.cfi_offset 14, -4
 156:USB_HOST/Target/usbh_conf.c ****   USBH_LL_Disconnect(hhcd->pData);
 307              		.loc 1 156 3 is_stmt 1 view .LVU63
 308 0002 D0F80003 		ldr	r0, [r0, #768]
 309              	.LVL21:
 310              		.loc 1 156 3 is_stmt 0 view .LVU64
 311 0006 FFF7FEFF 		bl	USBH_LL_Disconnect
 312              	.LVL22:
 157:USB_HOST/Target/usbh_conf.c **** }
 313              		.loc 1 157 1 view .LVU65
 314 000a 08BD     		pop	{r3, pc}
 315              		.cfi_endproc
 316              	.LFE137:
 318              		.section	.text.HAL_HCD_HC_NotifyURBChange_Callback,"ax",%progbits
 319              		.align	1
 320              		.global	HAL_HCD_HC_NotifyURBChange_Callback
 321              		.syntax unified
 322              		.thumb
 323              		.thumb_func
 325              	HAL_HCD_HC_NotifyURBChange_Callback:
 326              	.LVL23:
 327              	.LFB138:
 158:USB_HOST/Target/usbh_conf.c **** 
 159:USB_HOST/Target/usbh_conf.c **** /**
 160:USB_HOST/Target/usbh_conf.c ****   * @brief  Notify URB state change callback.
 161:USB_HOST/Target/usbh_conf.c ****   * @param  hhcd: HCD handle
 162:USB_HOST/Target/usbh_conf.c ****   * @param  chnum: channel number
ARM GAS  C:\Users\stefa\AppData\Local\Temp\ccPmQnPM.s 			page 10


 163:USB_HOST/Target/usbh_conf.c ****   * @param  urb_state: state
 164:USB_HOST/Target/usbh_conf.c ****   * @retval None
 165:USB_HOST/Target/usbh_conf.c ****   */
 166:USB_HOST/Target/usbh_conf.c **** void HAL_HCD_HC_NotifyURBChange_Callback(HCD_HandleTypeDef *hhcd, uint8_t chnum, HCD_URBStateTypeDe
 167:USB_HOST/Target/usbh_conf.c **** {
 328              		.loc 1 167 1 is_stmt 1 view -0
 329              		.cfi_startproc
 330              		@ args = 0, pretend = 0, frame = 0
 331              		@ frame_needed = 0, uses_anonymous_args = 0
 332              		@ link register save eliminated.
 168:USB_HOST/Target/usbh_conf.c ****   /* To be used with OS to sync URB state with the global state machine */
 169:USB_HOST/Target/usbh_conf.c **** #if (USBH_USE_OS == 1)
 170:USB_HOST/Target/usbh_conf.c ****   USBH_LL_NotifyURBChange(hhcd->pData);
 171:USB_HOST/Target/usbh_conf.c **** #endif
 172:USB_HOST/Target/usbh_conf.c **** }
 333              		.loc 1 172 1 view .LVU67
 334 0000 7047     		bx	lr
 335              		.cfi_endproc
 336              	.LFE138:
 338              		.section	.text.HAL_HCD_PortEnabled_Callback,"ax",%progbits
 339              		.align	1
 340              		.global	HAL_HCD_PortEnabled_Callback
 341              		.syntax unified
 342              		.thumb
 343              		.thumb_func
 345              	HAL_HCD_PortEnabled_Callback:
 346              	.LVL24:
 347              	.LFB139:
 173:USB_HOST/Target/usbh_conf.c **** /**
 174:USB_HOST/Target/usbh_conf.c **** * @brief  Port Port Enabled callback.
 175:USB_HOST/Target/usbh_conf.c ****   * @param  hhcd: HCD handle
 176:USB_HOST/Target/usbh_conf.c ****   * @retval None
 177:USB_HOST/Target/usbh_conf.c ****   */
 178:USB_HOST/Target/usbh_conf.c **** void HAL_HCD_PortEnabled_Callback(HCD_HandleTypeDef *hhcd)
 179:USB_HOST/Target/usbh_conf.c **** {
 348              		.loc 1 179 1 view -0
 349              		.cfi_startproc
 350              		@ args = 0, pretend = 0, frame = 0
 351              		@ frame_needed = 0, uses_anonymous_args = 0
 352              		.loc 1 179 1 is_stmt 0 view .LVU69
 353 0000 08B5     		push	{r3, lr}
 354              	.LCFI8:
 355              		.cfi_def_cfa_offset 8
 356              		.cfi_offset 3, -8
 357              		.cfi_offset 14, -4
 180:USB_HOST/Target/usbh_conf.c ****   USBH_LL_PortEnabled(hhcd->pData);
 358              		.loc 1 180 3 is_stmt 1 view .LVU70
 359 0002 D0F80003 		ldr	r0, [r0, #768]
 360              	.LVL25:
 361              		.loc 1 180 3 is_stmt 0 view .LVU71
 362 0006 FFF7FEFF 		bl	USBH_LL_PortEnabled
 363              	.LVL26:
 181:USB_HOST/Target/usbh_conf.c **** }
 364              		.loc 1 181 1 view .LVU72
 365 000a 08BD     		pop	{r3, pc}
 366              		.cfi_endproc
 367              	.LFE139:
ARM GAS  C:\Users\stefa\AppData\Local\Temp\ccPmQnPM.s 			page 11


 369              		.section	.text.HAL_HCD_PortDisabled_Callback,"ax",%progbits
 370              		.align	1
 371              		.global	HAL_HCD_PortDisabled_Callback
 372              		.syntax unified
 373              		.thumb
 374              		.thumb_func
 376              	HAL_HCD_PortDisabled_Callback:
 377              	.LVL27:
 378              	.LFB140:
 182:USB_HOST/Target/usbh_conf.c **** 
 183:USB_HOST/Target/usbh_conf.c **** /**
 184:USB_HOST/Target/usbh_conf.c ****   * @brief  Port Port Disabled callback.
 185:USB_HOST/Target/usbh_conf.c ****   * @param  hhcd: HCD handle
 186:USB_HOST/Target/usbh_conf.c ****   * @retval None
 187:USB_HOST/Target/usbh_conf.c ****   */
 188:USB_HOST/Target/usbh_conf.c **** void HAL_HCD_PortDisabled_Callback(HCD_HandleTypeDef *hhcd)
 189:USB_HOST/Target/usbh_conf.c **** {
 379              		.loc 1 189 1 is_stmt 1 view -0
 380              		.cfi_startproc
 381              		@ args = 0, pretend = 0, frame = 0
 382              		@ frame_needed = 0, uses_anonymous_args = 0
 383              		.loc 1 189 1 is_stmt 0 view .LVU74
 384 0000 08B5     		push	{r3, lr}
 385              	.LCFI9:
 386              		.cfi_def_cfa_offset 8
 387              		.cfi_offset 3, -8
 388              		.cfi_offset 14, -4
 190:USB_HOST/Target/usbh_conf.c ****   USBH_LL_PortDisabled(hhcd->pData);
 389              		.loc 1 190 3 is_stmt 1 view .LVU75
 390 0002 D0F80003 		ldr	r0, [r0, #768]
 391              	.LVL28:
 392              		.loc 1 190 3 is_stmt 0 view .LVU76
 393 0006 FFF7FEFF 		bl	USBH_LL_PortDisabled
 394              	.LVL29:
 191:USB_HOST/Target/usbh_conf.c **** }
 395              		.loc 1 191 1 view .LVU77
 396 000a 08BD     		pop	{r3, pc}
 397              		.cfi_endproc
 398              	.LFE140:
 400              		.section	.text.USBH_LL_Init,"ax",%progbits
 401              		.align	1
 402              		.global	USBH_LL_Init
 403              		.syntax unified
 404              		.thumb
 405              		.thumb_func
 407              	USBH_LL_Init:
 408              	.LVL30:
 409              	.LFB141:
 192:USB_HOST/Target/usbh_conf.c **** 
 193:USB_HOST/Target/usbh_conf.c **** /*******************************************************************************
 194:USB_HOST/Target/usbh_conf.c ****                        LL Driver Interface (USB Host Library --> HCD)
 195:USB_HOST/Target/usbh_conf.c **** *******************************************************************************/
 196:USB_HOST/Target/usbh_conf.c **** 
 197:USB_HOST/Target/usbh_conf.c **** /**
 198:USB_HOST/Target/usbh_conf.c ****   * @brief  Initialize the low level portion of the host driver.
 199:USB_HOST/Target/usbh_conf.c ****   * @param  phost: Host handle
 200:USB_HOST/Target/usbh_conf.c ****   * @retval USBH status
ARM GAS  C:\Users\stefa\AppData\Local\Temp\ccPmQnPM.s 			page 12


 201:USB_HOST/Target/usbh_conf.c ****   */
 202:USB_HOST/Target/usbh_conf.c **** USBH_StatusTypeDef USBH_LL_Init(USBH_HandleTypeDef *phost)
 203:USB_HOST/Target/usbh_conf.c **** {
 410              		.loc 1 203 1 is_stmt 1 view -0
 411              		.cfi_startproc
 412              		@ args = 0, pretend = 0, frame = 0
 413              		@ frame_needed = 0, uses_anonymous_args = 0
 204:USB_HOST/Target/usbh_conf.c ****   /* Init USB_IP */
 205:USB_HOST/Target/usbh_conf.c ****   if (phost->id == HOST_HS) {
 414              		.loc 1 205 3 view .LVU79
 415              		.loc 1 205 12 is_stmt 0 view .LVU80
 416 0000 90F8CC33 		ldrb	r3, [r0, #972]	@ zero_extendqisi2
 417              		.loc 1 205 6 view .LVU81
 418 0004 0BB1     		cbz	r3, .L31
 206:USB_HOST/Target/usbh_conf.c ****   /* Link the driver to the stack. */
 207:USB_HOST/Target/usbh_conf.c ****   hhcd_USB_OTG_HS.pData = phost;
 208:USB_HOST/Target/usbh_conf.c ****   phost->pData = &hhcd_USB_OTG_HS;
 209:USB_HOST/Target/usbh_conf.c **** 
 210:USB_HOST/Target/usbh_conf.c ****   hhcd_USB_OTG_HS.Instance = USB_OTG_HS;
 211:USB_HOST/Target/usbh_conf.c ****   hhcd_USB_OTG_HS.Init.Host_channels = 12;
 212:USB_HOST/Target/usbh_conf.c ****   hhcd_USB_OTG_HS.Init.speed = HCD_SPEED_FULL;
 213:USB_HOST/Target/usbh_conf.c ****   hhcd_USB_OTG_HS.Init.dma_enable = DISABLE;
 214:USB_HOST/Target/usbh_conf.c ****   hhcd_USB_OTG_HS.Init.phy_itface = USB_OTG_EMBEDDED_PHY;
 215:USB_HOST/Target/usbh_conf.c ****   hhcd_USB_OTG_HS.Init.Sof_enable = DISABLE;
 216:USB_HOST/Target/usbh_conf.c ****   hhcd_USB_OTG_HS.Init.low_power_enable = DISABLE;
 217:USB_HOST/Target/usbh_conf.c ****   hhcd_USB_OTG_HS.Init.vbus_sensing_enable = DISABLE;
 218:USB_HOST/Target/usbh_conf.c ****   hhcd_USB_OTG_HS.Init.use_external_vbus = DISABLE;
 219:USB_HOST/Target/usbh_conf.c ****   if (HAL_HCD_Init(&hhcd_USB_OTG_HS) != HAL_OK)
 220:USB_HOST/Target/usbh_conf.c ****   {
 221:USB_HOST/Target/usbh_conf.c ****     Error_Handler( );
 222:USB_HOST/Target/usbh_conf.c ****   }
 223:USB_HOST/Target/usbh_conf.c **** 
 224:USB_HOST/Target/usbh_conf.c ****   USBH_LL_SetTimer(phost, HAL_HCD_GetCurrentFrame(&hhcd_USB_OTG_HS));
 225:USB_HOST/Target/usbh_conf.c ****   }
 226:USB_HOST/Target/usbh_conf.c ****   return USBH_OK;
 419              		.loc 1 226 3 is_stmt 1 view .LVU82
 227:USB_HOST/Target/usbh_conf.c **** }
 420              		.loc 1 227 1 is_stmt 0 view .LVU83
 421 0006 0020     		movs	r0, #0
 422              	.LVL31:
 423              		.loc 1 227 1 view .LVU84
 424 0008 7047     		bx	lr
 425              	.LVL32:
 426              	.L31:
 203:USB_HOST/Target/usbh_conf.c ****   /* Init USB_IP */
 427              		.loc 1 203 1 view .LVU85
 428 000a 10B5     		push	{r4, lr}
 429              	.LCFI10:
 430              		.cfi_def_cfa_offset 8
 431              		.cfi_offset 4, -8
 432              		.cfi_offset 14, -4
 433 000c 0446     		mov	r4, r0
 207:USB_HOST/Target/usbh_conf.c ****   phost->pData = &hhcd_USB_OTG_HS;
 434              		.loc 1 207 3 is_stmt 1 view .LVU86
 207:USB_HOST/Target/usbh_conf.c ****   phost->pData = &hhcd_USB_OTG_HS;
 435              		.loc 1 207 25 is_stmt 0 view .LVU87
 436 000e 1148     		ldr	r0, .L33
ARM GAS  C:\Users\stefa\AppData\Local\Temp\ccPmQnPM.s 			page 13


 437              	.LVL33:
 207:USB_HOST/Target/usbh_conf.c ****   phost->pData = &hhcd_USB_OTG_HS;
 438              		.loc 1 207 25 view .LVU88
 439 0010 C0F80043 		str	r4, [r0, #768]
 208:USB_HOST/Target/usbh_conf.c **** 
 440              		.loc 1 208 3 is_stmt 1 view .LVU89
 208:USB_HOST/Target/usbh_conf.c **** 
 441              		.loc 1 208 16 is_stmt 0 view .LVU90
 442 0014 C4F8D003 		str	r0, [r4, #976]
 210:USB_HOST/Target/usbh_conf.c ****   hhcd_USB_OTG_HS.Init.Host_channels = 12;
 443              		.loc 1 210 3 is_stmt 1 view .LVU91
 210:USB_HOST/Target/usbh_conf.c ****   hhcd_USB_OTG_HS.Init.Host_channels = 12;
 444              		.loc 1 210 28 is_stmt 0 view .LVU92
 445 0018 0F4B     		ldr	r3, .L33+4
 446 001a 0360     		str	r3, [r0]
 211:USB_HOST/Target/usbh_conf.c ****   hhcd_USB_OTG_HS.Init.speed = HCD_SPEED_FULL;
 447              		.loc 1 211 3 is_stmt 1 view .LVU93
 211:USB_HOST/Target/usbh_conf.c ****   hhcd_USB_OTG_HS.Init.speed = HCD_SPEED_FULL;
 448              		.loc 1 211 38 is_stmt 0 view .LVU94
 449 001c 0C23     		movs	r3, #12
 450 001e 8360     		str	r3, [r0, #8]
 212:USB_HOST/Target/usbh_conf.c ****   hhcd_USB_OTG_HS.Init.dma_enable = DISABLE;
 451              		.loc 1 212 3 is_stmt 1 view .LVU95
 212:USB_HOST/Target/usbh_conf.c ****   hhcd_USB_OTG_HS.Init.dma_enable = DISABLE;
 452              		.loc 1 212 30 is_stmt 0 view .LVU96
 453 0020 0123     		movs	r3, #1
 454 0022 C360     		str	r3, [r0, #12]
 213:USB_HOST/Target/usbh_conf.c ****   hhcd_USB_OTG_HS.Init.phy_itface = USB_OTG_EMBEDDED_PHY;
 455              		.loc 1 213 3 is_stmt 1 view .LVU97
 213:USB_HOST/Target/usbh_conf.c ****   hhcd_USB_OTG_HS.Init.phy_itface = USB_OTG_EMBEDDED_PHY;
 456              		.loc 1 213 35 is_stmt 0 view .LVU98
 457 0024 0023     		movs	r3, #0
 458 0026 0361     		str	r3, [r0, #16]
 214:USB_HOST/Target/usbh_conf.c ****   hhcd_USB_OTG_HS.Init.Sof_enable = DISABLE;
 459              		.loc 1 214 3 is_stmt 1 view .LVU99
 214:USB_HOST/Target/usbh_conf.c ****   hhcd_USB_OTG_HS.Init.Sof_enable = DISABLE;
 460              		.loc 1 214 35 is_stmt 0 view .LVU100
 461 0028 0222     		movs	r2, #2
 462 002a 8261     		str	r2, [r0, #24]
 215:USB_HOST/Target/usbh_conf.c ****   hhcd_USB_OTG_HS.Init.low_power_enable = DISABLE;
 463              		.loc 1 215 3 is_stmt 1 view .LVU101
 215:USB_HOST/Target/usbh_conf.c ****   hhcd_USB_OTG_HS.Init.low_power_enable = DISABLE;
 464              		.loc 1 215 35 is_stmt 0 view .LVU102
 465 002c C361     		str	r3, [r0, #28]
 216:USB_HOST/Target/usbh_conf.c ****   hhcd_USB_OTG_HS.Init.vbus_sensing_enable = DISABLE;
 466              		.loc 1 216 3 is_stmt 1 view .LVU103
 216:USB_HOST/Target/usbh_conf.c ****   hhcd_USB_OTG_HS.Init.vbus_sensing_enable = DISABLE;
 467              		.loc 1 216 41 is_stmt 0 view .LVU104
 468 002e 0362     		str	r3, [r0, #32]
 217:USB_HOST/Target/usbh_conf.c ****   hhcd_USB_OTG_HS.Init.use_external_vbus = DISABLE;
 469              		.loc 1 217 3 is_stmt 1 view .LVU105
 217:USB_HOST/Target/usbh_conf.c ****   hhcd_USB_OTG_HS.Init.use_external_vbus = DISABLE;
 470              		.loc 1 217 44 is_stmt 0 view .LVU106
 471 0030 C362     		str	r3, [r0, #44]
 218:USB_HOST/Target/usbh_conf.c ****   if (HAL_HCD_Init(&hhcd_USB_OTG_HS) != HAL_OK)
 472              		.loc 1 218 3 is_stmt 1 view .LVU107
 218:USB_HOST/Target/usbh_conf.c ****   if (HAL_HCD_Init(&hhcd_USB_OTG_HS) != HAL_OK)
ARM GAS  C:\Users\stefa\AppData\Local\Temp\ccPmQnPM.s 			page 14


 473              		.loc 1 218 42 is_stmt 0 view .LVU108
 474 0032 4363     		str	r3, [r0, #52]
 219:USB_HOST/Target/usbh_conf.c ****   {
 475              		.loc 1 219 3 is_stmt 1 view .LVU109
 219:USB_HOST/Target/usbh_conf.c ****   {
 476              		.loc 1 219 7 is_stmt 0 view .LVU110
 477 0034 FFF7FEFF 		bl	HAL_HCD_Init
 478              	.LVL34:
 219:USB_HOST/Target/usbh_conf.c ****   {
 479              		.loc 1 219 6 view .LVU111
 480 0038 40B9     		cbnz	r0, .L32
 481              	.L26:
 224:USB_HOST/Target/usbh_conf.c ****   }
 482              		.loc 1 224 3 is_stmt 1 view .LVU112
 483 003a 0648     		ldr	r0, .L33
 484 003c FFF7FEFF 		bl	HAL_HCD_GetCurrentFrame
 485              	.LVL35:
 486 0040 0146     		mov	r1, r0
 487 0042 2046     		mov	r0, r4
 488 0044 FFF7FEFF 		bl	USBH_LL_SetTimer
 489              	.LVL36:
 226:USB_HOST/Target/usbh_conf.c **** }
 490              		.loc 1 226 3 view .LVU113
 491              		.loc 1 227 1 is_stmt 0 view .LVU114
 492 0048 0020     		movs	r0, #0
 493 004a 10BD     		pop	{r4, pc}
 494              	.LVL37:
 495              	.L32:
 221:USB_HOST/Target/usbh_conf.c ****   }
 496              		.loc 1 221 5 is_stmt 1 view .LVU115
 497 004c FFF7FEFF 		bl	Error_Handler
 498              	.LVL38:
 499 0050 F3E7     		b	.L26
 500              	.L34:
 501 0052 00BF     		.align	2
 502              	.L33:
 503 0054 00000000 		.word	.LANCHOR0
 504 0058 00000440 		.word	1074003968
 505              		.cfi_endproc
 506              	.LFE141:
 508              		.section	.text.USBH_LL_GetSpeed,"ax",%progbits
 509              		.align	1
 510              		.global	USBH_LL_GetSpeed
 511              		.syntax unified
 512              		.thumb
 513              		.thumb_func
 515              	USBH_LL_GetSpeed:
 516              	.LVL39:
 517              	.LFB145:
 228:USB_HOST/Target/usbh_conf.c **** 
 229:USB_HOST/Target/usbh_conf.c **** /**
 230:USB_HOST/Target/usbh_conf.c ****   * @brief  De-Initialize the low level portion of the host driver.
 231:USB_HOST/Target/usbh_conf.c ****   * @param  phost: Host handle
 232:USB_HOST/Target/usbh_conf.c ****   * @retval USBH status
 233:USB_HOST/Target/usbh_conf.c ****   */
 234:USB_HOST/Target/usbh_conf.c **** USBH_StatusTypeDef USBH_LL_DeInit(USBH_HandleTypeDef *phost)
 235:USB_HOST/Target/usbh_conf.c **** {
ARM GAS  C:\Users\stefa\AppData\Local\Temp\ccPmQnPM.s 			page 15


 236:USB_HOST/Target/usbh_conf.c ****   HAL_StatusTypeDef hal_status = HAL_OK;
 237:USB_HOST/Target/usbh_conf.c ****   USBH_StatusTypeDef usb_status = USBH_OK;
 238:USB_HOST/Target/usbh_conf.c **** 
 239:USB_HOST/Target/usbh_conf.c ****   hal_status = HAL_HCD_DeInit(phost->pData);
 240:USB_HOST/Target/usbh_conf.c **** 
 241:USB_HOST/Target/usbh_conf.c ****   usb_status = USBH_Get_USB_Status(hal_status);
 242:USB_HOST/Target/usbh_conf.c **** 
 243:USB_HOST/Target/usbh_conf.c ****   return usb_status;
 244:USB_HOST/Target/usbh_conf.c **** }
 245:USB_HOST/Target/usbh_conf.c **** 
 246:USB_HOST/Target/usbh_conf.c **** /**
 247:USB_HOST/Target/usbh_conf.c ****   * @brief  Start the low level portion of the host driver.
 248:USB_HOST/Target/usbh_conf.c ****   * @param  phost: Host handle
 249:USB_HOST/Target/usbh_conf.c ****   * @retval USBH status
 250:USB_HOST/Target/usbh_conf.c ****   */
 251:USB_HOST/Target/usbh_conf.c **** USBH_StatusTypeDef USBH_LL_Start(USBH_HandleTypeDef *phost)
 252:USB_HOST/Target/usbh_conf.c **** {
 253:USB_HOST/Target/usbh_conf.c ****   HAL_StatusTypeDef hal_status = HAL_OK;
 254:USB_HOST/Target/usbh_conf.c ****   USBH_StatusTypeDef usb_status = USBH_OK;
 255:USB_HOST/Target/usbh_conf.c **** 
 256:USB_HOST/Target/usbh_conf.c ****   hal_status = HAL_HCD_Start(phost->pData);
 257:USB_HOST/Target/usbh_conf.c **** 
 258:USB_HOST/Target/usbh_conf.c ****   usb_status = USBH_Get_USB_Status(hal_status);
 259:USB_HOST/Target/usbh_conf.c **** 
 260:USB_HOST/Target/usbh_conf.c ****   return usb_status;
 261:USB_HOST/Target/usbh_conf.c **** }
 262:USB_HOST/Target/usbh_conf.c **** 
 263:USB_HOST/Target/usbh_conf.c **** /**
 264:USB_HOST/Target/usbh_conf.c ****   * @brief  Stop the low level portion of the host driver.
 265:USB_HOST/Target/usbh_conf.c ****   * @param  phost: Host handle
 266:USB_HOST/Target/usbh_conf.c ****   * @retval USBH status
 267:USB_HOST/Target/usbh_conf.c ****   */
 268:USB_HOST/Target/usbh_conf.c **** USBH_StatusTypeDef USBH_LL_Stop(USBH_HandleTypeDef *phost)
 269:USB_HOST/Target/usbh_conf.c **** {
 270:USB_HOST/Target/usbh_conf.c ****   HAL_StatusTypeDef hal_status = HAL_OK;
 271:USB_HOST/Target/usbh_conf.c ****   USBH_StatusTypeDef usb_status = USBH_OK;
 272:USB_HOST/Target/usbh_conf.c **** 
 273:USB_HOST/Target/usbh_conf.c ****   hal_status = HAL_HCD_Stop(phost->pData);
 274:USB_HOST/Target/usbh_conf.c **** 
 275:USB_HOST/Target/usbh_conf.c ****   usb_status = USBH_Get_USB_Status(hal_status);
 276:USB_HOST/Target/usbh_conf.c **** 
 277:USB_HOST/Target/usbh_conf.c ****   return usb_status;
 278:USB_HOST/Target/usbh_conf.c **** }
 279:USB_HOST/Target/usbh_conf.c **** 
 280:USB_HOST/Target/usbh_conf.c **** /**
 281:USB_HOST/Target/usbh_conf.c ****   * @brief  Return the USB host speed from the low level driver.
 282:USB_HOST/Target/usbh_conf.c ****   * @param  phost: Host handle
 283:USB_HOST/Target/usbh_conf.c ****   * @retval USBH speeds
 284:USB_HOST/Target/usbh_conf.c ****   */
 285:USB_HOST/Target/usbh_conf.c **** USBH_SpeedTypeDef USBH_LL_GetSpeed(USBH_HandleTypeDef *phost)
 286:USB_HOST/Target/usbh_conf.c **** {
 518              		.loc 1 286 1 view -0
 519              		.cfi_startproc
 520              		@ args = 0, pretend = 0, frame = 0
 521              		@ frame_needed = 0, uses_anonymous_args = 0
 522              		.loc 1 286 1 is_stmt 0 view .LVU117
 523 0000 08B5     		push	{r3, lr}
ARM GAS  C:\Users\stefa\AppData\Local\Temp\ccPmQnPM.s 			page 16


 524              	.LCFI11:
 525              		.cfi_def_cfa_offset 8
 526              		.cfi_offset 3, -8
 527              		.cfi_offset 14, -4
 287:USB_HOST/Target/usbh_conf.c ****   USBH_SpeedTypeDef speed = USBH_SPEED_FULL;
 528              		.loc 1 287 3 is_stmt 1 view .LVU118
 529              	.LVL40:
 288:USB_HOST/Target/usbh_conf.c **** 
 289:USB_HOST/Target/usbh_conf.c ****   switch (HAL_HCD_GetCurrentSpeed(phost->pData))
 530              		.loc 1 289 3 view .LVU119
 531              		.loc 1 289 11 is_stmt 0 view .LVU120
 532 0002 D0F8D003 		ldr	r0, [r0, #976]
 533              	.LVL41:
 534              		.loc 1 289 11 view .LVU121
 535 0006 FFF7FEFF 		bl	HAL_HCD_GetCurrentSpeed
 536              	.LVL42:
 537              		.loc 1 289 3 view .LVU122
 538 000a 0128     		cmp	r0, #1
 539 000c 04D0     		beq	.L37
 540 000e 0228     		cmp	r0, #2
 541 0010 04D0     		beq	.L38
 542 0012 00B1     		cbz	r0, .L36
 290:USB_HOST/Target/usbh_conf.c ****   {
 291:USB_HOST/Target/usbh_conf.c ****   case 0 :
 292:USB_HOST/Target/usbh_conf.c ****     speed = USBH_SPEED_HIGH;
 293:USB_HOST/Target/usbh_conf.c ****     break;
 294:USB_HOST/Target/usbh_conf.c **** 
 295:USB_HOST/Target/usbh_conf.c ****   case 1 :
 296:USB_HOST/Target/usbh_conf.c ****     speed = USBH_SPEED_FULL;
 297:USB_HOST/Target/usbh_conf.c ****     break;
 298:USB_HOST/Target/usbh_conf.c **** 
 299:USB_HOST/Target/usbh_conf.c ****   case 2 :
 300:USB_HOST/Target/usbh_conf.c ****     speed = USBH_SPEED_LOW;
 301:USB_HOST/Target/usbh_conf.c ****     break;
 302:USB_HOST/Target/usbh_conf.c **** 
 303:USB_HOST/Target/usbh_conf.c ****   default:
 304:USB_HOST/Target/usbh_conf.c ****    speed = USBH_SPEED_FULL;
 543              		.loc 1 304 10 view .LVU123
 544 0014 0120     		movs	r0, #1
 545              	.L36:
 546              	.LVL43:
 305:USB_HOST/Target/usbh_conf.c ****     break;
 306:USB_HOST/Target/usbh_conf.c ****   }
 307:USB_HOST/Target/usbh_conf.c ****   return  speed;
 547              		.loc 1 307 3 is_stmt 1 view .LVU124
 308:USB_HOST/Target/usbh_conf.c **** }
 548              		.loc 1 308 1 is_stmt 0 view .LVU125
 549 0016 08BD     		pop	{r3, pc}
 550              	.LVL44:
 551              	.L37:
 296:USB_HOST/Target/usbh_conf.c ****     break;
 552              		.loc 1 296 11 view .LVU126
 553 0018 0120     		movs	r0, #1
 554 001a FCE7     		b	.L36
 555              	.L38:
 300:USB_HOST/Target/usbh_conf.c ****     break;
 556              		.loc 1 300 11 view .LVU127
ARM GAS  C:\Users\stefa\AppData\Local\Temp\ccPmQnPM.s 			page 17


 557 001c 0220     		movs	r0, #2
 558 001e FAE7     		b	.L36
 559              		.cfi_endproc
 560              	.LFE145:
 562              		.section	.text.USBH_LL_GetLastXferSize,"ax",%progbits
 563              		.align	1
 564              		.global	USBH_LL_GetLastXferSize
 565              		.syntax unified
 566              		.thumb
 567              		.thumb_func
 569              	USBH_LL_GetLastXferSize:
 570              	.LVL45:
 571              	.LFB147:
 309:USB_HOST/Target/usbh_conf.c **** 
 310:USB_HOST/Target/usbh_conf.c **** /**
 311:USB_HOST/Target/usbh_conf.c ****   * @brief  Reset the Host port of the low level driver.
 312:USB_HOST/Target/usbh_conf.c ****   * @param  phost: Host handle
 313:USB_HOST/Target/usbh_conf.c ****   * @retval USBH status
 314:USB_HOST/Target/usbh_conf.c ****   */
 315:USB_HOST/Target/usbh_conf.c **** USBH_StatusTypeDef USBH_LL_ResetPort(USBH_HandleTypeDef *phost)
 316:USB_HOST/Target/usbh_conf.c **** {
 317:USB_HOST/Target/usbh_conf.c ****   HAL_StatusTypeDef hal_status = HAL_OK;
 318:USB_HOST/Target/usbh_conf.c ****   USBH_StatusTypeDef usb_status = USBH_OK;
 319:USB_HOST/Target/usbh_conf.c **** 
 320:USB_HOST/Target/usbh_conf.c ****   hal_status = HAL_HCD_ResetPort(phost->pData);
 321:USB_HOST/Target/usbh_conf.c **** 
 322:USB_HOST/Target/usbh_conf.c ****   usb_status = USBH_Get_USB_Status(hal_status);
 323:USB_HOST/Target/usbh_conf.c **** 
 324:USB_HOST/Target/usbh_conf.c ****   return usb_status;
 325:USB_HOST/Target/usbh_conf.c **** }
 326:USB_HOST/Target/usbh_conf.c **** 
 327:USB_HOST/Target/usbh_conf.c **** /**
 328:USB_HOST/Target/usbh_conf.c ****   * @brief  Return the last transferred packet size.
 329:USB_HOST/Target/usbh_conf.c ****   * @param  phost: Host handle
 330:USB_HOST/Target/usbh_conf.c ****   * @param  pipe: Pipe index
 331:USB_HOST/Target/usbh_conf.c ****   * @retval Packet size
 332:USB_HOST/Target/usbh_conf.c ****   */
 333:USB_HOST/Target/usbh_conf.c **** uint32_t USBH_LL_GetLastXferSize(USBH_HandleTypeDef *phost, uint8_t pipe)
 334:USB_HOST/Target/usbh_conf.c **** {
 572              		.loc 1 334 1 is_stmt 1 view -0
 573              		.cfi_startproc
 574              		@ args = 0, pretend = 0, frame = 0
 575              		@ frame_needed = 0, uses_anonymous_args = 0
 576              		.loc 1 334 1 is_stmt 0 view .LVU129
 577 0000 08B5     		push	{r3, lr}
 578              	.LCFI12:
 579              		.cfi_def_cfa_offset 8
 580              		.cfi_offset 3, -8
 581              		.cfi_offset 14, -4
 335:USB_HOST/Target/usbh_conf.c ****   return HAL_HCD_HC_GetXferCount(phost->pData, pipe);
 582              		.loc 1 335 3 is_stmt 1 view .LVU130
 583              		.loc 1 335 10 is_stmt 0 view .LVU131
 584 0002 D0F8D003 		ldr	r0, [r0, #976]
 585              	.LVL46:
 586              		.loc 1 335 10 view .LVU132
 587 0006 FFF7FEFF 		bl	HAL_HCD_HC_GetXferCount
 588              	.LVL47:
ARM GAS  C:\Users\stefa\AppData\Local\Temp\ccPmQnPM.s 			page 18


 336:USB_HOST/Target/usbh_conf.c **** }
 589              		.loc 1 336 1 view .LVU133
 590 000a 08BD     		pop	{r3, pc}
 591              		.cfi_endproc
 592              	.LFE147:
 594              		.section	.text.USBH_LL_GetURBState,"ax",%progbits
 595              		.align	1
 596              		.global	USBH_LL_GetURBState
 597              		.syntax unified
 598              		.thumb
 599              		.thumb_func
 601              	USBH_LL_GetURBState:
 602              	.LVL48:
 603              	.LFB151:
 337:USB_HOST/Target/usbh_conf.c **** 
 338:USB_HOST/Target/usbh_conf.c **** /**
 339:USB_HOST/Target/usbh_conf.c ****   * @brief  Open a pipe of the low level driver.
 340:USB_HOST/Target/usbh_conf.c ****   * @param  phost: Host handle
 341:USB_HOST/Target/usbh_conf.c ****   * @param  pipe_num: Pipe index
 342:USB_HOST/Target/usbh_conf.c ****   * @param  epnum: Endpoint number
 343:USB_HOST/Target/usbh_conf.c ****   * @param  dev_address: Device USB address
 344:USB_HOST/Target/usbh_conf.c ****   * @param  speed: Device Speed
 345:USB_HOST/Target/usbh_conf.c ****   * @param  ep_type: Endpoint type
 346:USB_HOST/Target/usbh_conf.c ****   * @param  mps: Endpoint max packet size
 347:USB_HOST/Target/usbh_conf.c ****   * @retval USBH status
 348:USB_HOST/Target/usbh_conf.c ****   */
 349:USB_HOST/Target/usbh_conf.c **** USBH_StatusTypeDef USBH_LL_OpenPipe(USBH_HandleTypeDef *phost, uint8_t pipe_num, uint8_t epnum,
 350:USB_HOST/Target/usbh_conf.c ****                                     uint8_t dev_address, uint8_t speed, uint8_t ep_type, uint16_t m
 351:USB_HOST/Target/usbh_conf.c **** {
 352:USB_HOST/Target/usbh_conf.c ****   HAL_StatusTypeDef hal_status = HAL_OK;
 353:USB_HOST/Target/usbh_conf.c ****   USBH_StatusTypeDef usb_status = USBH_OK;
 354:USB_HOST/Target/usbh_conf.c **** 
 355:USB_HOST/Target/usbh_conf.c ****   hal_status = HAL_HCD_HC_Init(phost->pData, pipe_num, epnum,
 356:USB_HOST/Target/usbh_conf.c ****                                dev_address, speed, ep_type, mps);
 357:USB_HOST/Target/usbh_conf.c **** 
 358:USB_HOST/Target/usbh_conf.c ****   usb_status = USBH_Get_USB_Status(hal_status);
 359:USB_HOST/Target/usbh_conf.c **** 
 360:USB_HOST/Target/usbh_conf.c ****   return usb_status;
 361:USB_HOST/Target/usbh_conf.c **** }
 362:USB_HOST/Target/usbh_conf.c **** 
 363:USB_HOST/Target/usbh_conf.c **** /**
 364:USB_HOST/Target/usbh_conf.c ****   * @brief  Close a pipe of the low level driver.
 365:USB_HOST/Target/usbh_conf.c ****   * @param  phost: Host handle
 366:USB_HOST/Target/usbh_conf.c ****   * @param  pipe: Pipe index
 367:USB_HOST/Target/usbh_conf.c ****   * @retval USBH status
 368:USB_HOST/Target/usbh_conf.c ****   */
 369:USB_HOST/Target/usbh_conf.c **** USBH_StatusTypeDef USBH_LL_ClosePipe(USBH_HandleTypeDef *phost, uint8_t pipe)
 370:USB_HOST/Target/usbh_conf.c **** {
 371:USB_HOST/Target/usbh_conf.c ****   HAL_StatusTypeDef hal_status = HAL_OK;
 372:USB_HOST/Target/usbh_conf.c ****   USBH_StatusTypeDef usb_status = USBH_OK;
 373:USB_HOST/Target/usbh_conf.c **** 
 374:USB_HOST/Target/usbh_conf.c ****   hal_status = HAL_HCD_HC_Halt(phost->pData, pipe);
 375:USB_HOST/Target/usbh_conf.c **** 
 376:USB_HOST/Target/usbh_conf.c ****   usb_status = USBH_Get_USB_Status(hal_status);
 377:USB_HOST/Target/usbh_conf.c **** 
 378:USB_HOST/Target/usbh_conf.c ****   return usb_status;
 379:USB_HOST/Target/usbh_conf.c **** }
ARM GAS  C:\Users\stefa\AppData\Local\Temp\ccPmQnPM.s 			page 19


 380:USB_HOST/Target/usbh_conf.c **** 
 381:USB_HOST/Target/usbh_conf.c **** /**
 382:USB_HOST/Target/usbh_conf.c ****   * @brief  Submit a new URB to the low level driver.
 383:USB_HOST/Target/usbh_conf.c ****   * @param  phost: Host handle
 384:USB_HOST/Target/usbh_conf.c ****   * @param  pipe: Pipe index
 385:USB_HOST/Target/usbh_conf.c ****   *         This parameter can be a value from 1 to 15
 386:USB_HOST/Target/usbh_conf.c ****   * @param  direction : Channel number
 387:USB_HOST/Target/usbh_conf.c ****   *          This parameter can be one of the these values:
 388:USB_HOST/Target/usbh_conf.c ****   *           0 : Output
 389:USB_HOST/Target/usbh_conf.c ****   *           1 : Input
 390:USB_HOST/Target/usbh_conf.c ****   * @param  ep_type : Endpoint Type
 391:USB_HOST/Target/usbh_conf.c ****   *          This parameter can be one of the these values:
 392:USB_HOST/Target/usbh_conf.c ****   *            @arg EP_TYPE_CTRL: Control type
 393:USB_HOST/Target/usbh_conf.c ****   *            @arg EP_TYPE_ISOC: Isochrounous type
 394:USB_HOST/Target/usbh_conf.c ****   *            @arg EP_TYPE_BULK: Bulk type
 395:USB_HOST/Target/usbh_conf.c ****   *            @arg EP_TYPE_INTR: Interrupt type
 396:USB_HOST/Target/usbh_conf.c ****   * @param  token : Endpoint Type
 397:USB_HOST/Target/usbh_conf.c ****   *          This parameter can be one of the these values:
 398:USB_HOST/Target/usbh_conf.c ****   *            @arg 0: PID_SETUP
 399:USB_HOST/Target/usbh_conf.c ****   *            @arg 1: PID_DATA
 400:USB_HOST/Target/usbh_conf.c ****   * @param  pbuff : pointer to URB data
 401:USB_HOST/Target/usbh_conf.c ****   * @param  length : Length of URB data
 402:USB_HOST/Target/usbh_conf.c ****   * @param  do_ping : activate do ping protocol (for high speed only)
 403:USB_HOST/Target/usbh_conf.c ****   *          This parameter can be one of the these values:
 404:USB_HOST/Target/usbh_conf.c ****   *           0 : do ping inactive
 405:USB_HOST/Target/usbh_conf.c ****   *           1 : do ping active
 406:USB_HOST/Target/usbh_conf.c ****   * @retval Status
 407:USB_HOST/Target/usbh_conf.c ****   */
 408:USB_HOST/Target/usbh_conf.c **** USBH_StatusTypeDef USBH_LL_SubmitURB(USBH_HandleTypeDef *phost, uint8_t pipe, uint8_t direction,
 409:USB_HOST/Target/usbh_conf.c ****                                      uint8_t ep_type, uint8_t token, uint8_t *pbuff, uint16_t lengt
 410:USB_HOST/Target/usbh_conf.c ****                                      uint8_t do_ping)
 411:USB_HOST/Target/usbh_conf.c **** {
 412:USB_HOST/Target/usbh_conf.c ****   HAL_StatusTypeDef hal_status = HAL_OK;
 413:USB_HOST/Target/usbh_conf.c ****   USBH_StatusTypeDef usb_status = USBH_OK;
 414:USB_HOST/Target/usbh_conf.c **** 
 415:USB_HOST/Target/usbh_conf.c ****   hal_status = HAL_HCD_HC_SubmitRequest(phost->pData, pipe, direction ,
 416:USB_HOST/Target/usbh_conf.c ****                                         ep_type, token, pbuff, length,
 417:USB_HOST/Target/usbh_conf.c ****                                         do_ping);
 418:USB_HOST/Target/usbh_conf.c ****   usb_status =  USBH_Get_USB_Status(hal_status);
 419:USB_HOST/Target/usbh_conf.c **** 
 420:USB_HOST/Target/usbh_conf.c ****   return usb_status;
 421:USB_HOST/Target/usbh_conf.c **** }
 422:USB_HOST/Target/usbh_conf.c **** 
 423:USB_HOST/Target/usbh_conf.c **** /**
 424:USB_HOST/Target/usbh_conf.c ****   * @brief  Get a URB state from the low level driver.
 425:USB_HOST/Target/usbh_conf.c ****   * @param  phost: Host handle
 426:USB_HOST/Target/usbh_conf.c ****   * @param  pipe: Pipe index
 427:USB_HOST/Target/usbh_conf.c ****   *         This parameter can be a value from 1 to 15
 428:USB_HOST/Target/usbh_conf.c ****   * @retval URB state
 429:USB_HOST/Target/usbh_conf.c ****   *          This parameter can be one of the these values:
 430:USB_HOST/Target/usbh_conf.c ****   *            @arg URB_IDLE
 431:USB_HOST/Target/usbh_conf.c ****   *            @arg URB_DONE
 432:USB_HOST/Target/usbh_conf.c ****   *            @arg URB_NOTREADY
 433:USB_HOST/Target/usbh_conf.c ****   *            @arg URB_NYET
 434:USB_HOST/Target/usbh_conf.c ****   *            @arg URB_ERROR
 435:USB_HOST/Target/usbh_conf.c ****   *            @arg URB_STALL
 436:USB_HOST/Target/usbh_conf.c ****   */
ARM GAS  C:\Users\stefa\AppData\Local\Temp\ccPmQnPM.s 			page 20


 437:USB_HOST/Target/usbh_conf.c **** USBH_URBStateTypeDef USBH_LL_GetURBState(USBH_HandleTypeDef *phost, uint8_t pipe)
 438:USB_HOST/Target/usbh_conf.c **** {
 604              		.loc 1 438 1 is_stmt 1 view -0
 605              		.cfi_startproc
 606              		@ args = 0, pretend = 0, frame = 0
 607              		@ frame_needed = 0, uses_anonymous_args = 0
 608              		.loc 1 438 1 is_stmt 0 view .LVU135
 609 0000 08B5     		push	{r3, lr}
 610              	.LCFI13:
 611              		.cfi_def_cfa_offset 8
 612              		.cfi_offset 3, -8
 613              		.cfi_offset 14, -4
 439:USB_HOST/Target/usbh_conf.c ****   return (USBH_URBStateTypeDef)HAL_HCD_HC_GetURBState (phost->pData, pipe);
 614              		.loc 1 439 3 is_stmt 1 view .LVU136
 615              		.loc 1 439 32 is_stmt 0 view .LVU137
 616 0002 D0F8D003 		ldr	r0, [r0, #976]
 617              	.LVL49:
 618              		.loc 1 439 32 view .LVU138
 619 0006 FFF7FEFF 		bl	HAL_HCD_HC_GetURBState
 620              	.LVL50:
 440:USB_HOST/Target/usbh_conf.c **** }
 621              		.loc 1 440 1 view .LVU139
 622 000a 08BD     		pop	{r3, pc}
 623              		.cfi_endproc
 624              	.LFE151:
 626              		.section	.text.USBH_LL_DriverVBUS,"ax",%progbits
 627              		.align	1
 628              		.global	USBH_LL_DriverVBUS
 629              		.syntax unified
 630              		.thumb
 631              		.thumb_func
 633              	USBH_LL_DriverVBUS:
 634              	.LVL51:
 635              	.LFB152:
 441:USB_HOST/Target/usbh_conf.c **** 
 442:USB_HOST/Target/usbh_conf.c **** /**
 443:USB_HOST/Target/usbh_conf.c ****   * @brief  Drive VBUS.
 444:USB_HOST/Target/usbh_conf.c ****   * @param  phost: Host handle
 445:USB_HOST/Target/usbh_conf.c ****   * @param  state : VBUS state
 446:USB_HOST/Target/usbh_conf.c ****   *          This parameter can be one of the these values:
 447:USB_HOST/Target/usbh_conf.c ****   *           0 : VBUS Inactive
 448:USB_HOST/Target/usbh_conf.c ****   *           1 : VBUS Active
 449:USB_HOST/Target/usbh_conf.c ****   * @retval Status
 450:USB_HOST/Target/usbh_conf.c ****   */
 451:USB_HOST/Target/usbh_conf.c **** USBH_StatusTypeDef USBH_LL_DriverVBUS(USBH_HandleTypeDef *phost, uint8_t state)
 452:USB_HOST/Target/usbh_conf.c **** {
 636              		.loc 1 452 1 is_stmt 1 view -0
 637              		.cfi_startproc
 638              		@ args = 0, pretend = 0, frame = 0
 639              		@ frame_needed = 0, uses_anonymous_args = 0
 640              		.loc 1 452 1 is_stmt 0 view .LVU141
 641 0000 08B5     		push	{r3, lr}
 642              	.LCFI14:
 643              		.cfi_def_cfa_offset 8
 644              		.cfi_offset 3, -8
 645              		.cfi_offset 14, -4
 453:USB_HOST/Target/usbh_conf.c ****   if (phost->id == HOST_HS) {
ARM GAS  C:\Users\stefa\AppData\Local\Temp\ccPmQnPM.s 			page 21


 646              		.loc 1 453 3 is_stmt 1 view .LVU142
 647              		.loc 1 453 12 is_stmt 0 view .LVU143
 648 0002 90F8CC33 		ldrb	r3, [r0, #972]	@ zero_extendqisi2
 649              		.loc 1 453 6 view .LVU144
 650 0006 23B1     		cbz	r3, .L48
 651              	.LVL52:
 652              	.L46:
 454:USB_HOST/Target/usbh_conf.c ****     MX_DriverVbusHS(state);
 455:USB_HOST/Target/usbh_conf.c ****   }
 456:USB_HOST/Target/usbh_conf.c **** 
 457:USB_HOST/Target/usbh_conf.c ****   /* USER CODE BEGIN 0 */
 458:USB_HOST/Target/usbh_conf.c **** 
 459:USB_HOST/Target/usbh_conf.c ****   /* USER CODE END 0*/
 460:USB_HOST/Target/usbh_conf.c **** 
 461:USB_HOST/Target/usbh_conf.c ****   HAL_Delay(200);
 653              		.loc 1 461 3 is_stmt 1 view .LVU145
 654 0008 C820     		movs	r0, #200
 655 000a FFF7FEFF 		bl	HAL_Delay
 656              	.LVL53:
 462:USB_HOST/Target/usbh_conf.c ****   return USBH_OK;
 657              		.loc 1 462 3 view .LVU146
 463:USB_HOST/Target/usbh_conf.c **** }
 658              		.loc 1 463 1 is_stmt 0 view .LVU147
 659 000e 0020     		movs	r0, #0
 660 0010 08BD     		pop	{r3, pc}
 661              	.LVL54:
 662              	.L48:
 454:USB_HOST/Target/usbh_conf.c ****     MX_DriverVbusHS(state);
 663              		.loc 1 454 5 is_stmt 1 view .LVU148
 664 0012 0846     		mov	r0, r1
 665              	.LVL55:
 454:USB_HOST/Target/usbh_conf.c ****     MX_DriverVbusHS(state);
 666              		.loc 1 454 5 is_stmt 0 view .LVU149
 667 0014 FFF7FEFF 		bl	MX_DriverVbusHS
 668              	.LVL56:
 454:USB_HOST/Target/usbh_conf.c ****     MX_DriverVbusHS(state);
 669              		.loc 1 454 5 view .LVU150
 670 0018 F6E7     		b	.L46
 671              		.cfi_endproc
 672              	.LFE152:
 674              		.section	.text.USBH_LL_SetToggle,"ax",%progbits
 675              		.align	1
 676              		.global	USBH_LL_SetToggle
 677              		.syntax unified
 678              		.thumb
 679              		.thumb_func
 681              	USBH_LL_SetToggle:
 682              	.LVL57:
 683              	.LFB153:
 464:USB_HOST/Target/usbh_conf.c **** 
 465:USB_HOST/Target/usbh_conf.c **** /**
 466:USB_HOST/Target/usbh_conf.c ****   * @brief  Set toggle for a pipe.
 467:USB_HOST/Target/usbh_conf.c ****   * @param  phost: Host handle
 468:USB_HOST/Target/usbh_conf.c ****   * @param  pipe: Pipe index
 469:USB_HOST/Target/usbh_conf.c ****   * @param  toggle: toggle (0/1)
 470:USB_HOST/Target/usbh_conf.c ****   * @retval Status
 471:USB_HOST/Target/usbh_conf.c ****   */
ARM GAS  C:\Users\stefa\AppData\Local\Temp\ccPmQnPM.s 			page 22


 472:USB_HOST/Target/usbh_conf.c **** USBH_StatusTypeDef USBH_LL_SetToggle(USBH_HandleTypeDef *phost, uint8_t pipe, uint8_t toggle)
 473:USB_HOST/Target/usbh_conf.c **** {
 684              		.loc 1 473 1 is_stmt 1 view -0
 685              		.cfi_startproc
 686              		@ args = 0, pretend = 0, frame = 0
 687              		@ frame_needed = 0, uses_anonymous_args = 0
 688              		@ link register save eliminated.
 474:USB_HOST/Target/usbh_conf.c ****   HCD_HandleTypeDef *pHandle;
 689              		.loc 1 474 3 view .LVU152
 475:USB_HOST/Target/usbh_conf.c ****   pHandle = phost->pData;
 690              		.loc 1 475 3 view .LVU153
 691              		.loc 1 475 11 is_stmt 0 view .LVU154
 692 0000 D0F8D033 		ldr	r3, [r0, #976]
 693              	.LVL58:
 476:USB_HOST/Target/usbh_conf.c **** 
 477:USB_HOST/Target/usbh_conf.c ****   if(pHandle->hc[pipe].ep_is_in)
 694              		.loc 1 477 3 is_stmt 1 view .LVU155
 695              		.loc 1 477 23 is_stmt 0 view .LVU156
 696 0004 2C20     		movs	r0, #44
 697              	.LVL59:
 698              		.loc 1 477 23 view .LVU157
 699 0006 00FB0130 		mla	r0, r0, r1, r3
 700 000a 90F83B00 		ldrb	r0, [r0, #59]	@ zero_extendqisi2
 701              		.loc 1 477 5 view .LVU158
 702 000e 30B1     		cbz	r0, .L50
 478:USB_HOST/Target/usbh_conf.c ****   {
 479:USB_HOST/Target/usbh_conf.c ****     pHandle->hc[pipe].toggle_in = toggle;
 703              		.loc 1 479 5 is_stmt 1 view .LVU159
 704              		.loc 1 479 33 is_stmt 0 view .LVU160
 705 0010 2C20     		movs	r0, #44
 706 0012 00FB0133 		mla	r3, r0, r1, r3
 707              	.LVL60:
 708              		.loc 1 479 33 view .LVU161
 709 0016 83F85420 		strb	r2, [r3, #84]
 710              	.LVL61:
 711              	.L51:
 480:USB_HOST/Target/usbh_conf.c ****   }
 481:USB_HOST/Target/usbh_conf.c ****   else
 482:USB_HOST/Target/usbh_conf.c ****   {
 483:USB_HOST/Target/usbh_conf.c ****     pHandle->hc[pipe].toggle_out = toggle;
 484:USB_HOST/Target/usbh_conf.c ****   }
 485:USB_HOST/Target/usbh_conf.c **** 
 486:USB_HOST/Target/usbh_conf.c ****   return USBH_OK;
 712              		.loc 1 486 3 is_stmt 1 view .LVU162
 487:USB_HOST/Target/usbh_conf.c **** }
 713              		.loc 1 487 1 is_stmt 0 view .LVU163
 714 001a 0020     		movs	r0, #0
 715 001c 7047     		bx	lr
 716              	.LVL62:
 717              	.L50:
 483:USB_HOST/Target/usbh_conf.c ****   }
 718              		.loc 1 483 5 is_stmt 1 view .LVU164
 483:USB_HOST/Target/usbh_conf.c ****   }
 719              		.loc 1 483 34 is_stmt 0 view .LVU165
 720 001e 2C20     		movs	r0, #44
 721 0020 00FB0133 		mla	r3, r0, r1, r3
 722              	.LVL63:
ARM GAS  C:\Users\stefa\AppData\Local\Temp\ccPmQnPM.s 			page 23


 483:USB_HOST/Target/usbh_conf.c ****   }
 723              		.loc 1 483 34 view .LVU166
 724 0024 83F85520 		strb	r2, [r3, #85]
 725              	.LVL64:
 483:USB_HOST/Target/usbh_conf.c ****   }
 726              		.loc 1 483 34 view .LVU167
 727 0028 F7E7     		b	.L51
 728              		.cfi_endproc
 729              	.LFE153:
 731              		.section	.text.USBH_LL_GetToggle,"ax",%progbits
 732              		.align	1
 733              		.global	USBH_LL_GetToggle
 734              		.syntax unified
 735              		.thumb
 736              		.thumb_func
 738              	USBH_LL_GetToggle:
 739              	.LVL65:
 740              	.LFB154:
 488:USB_HOST/Target/usbh_conf.c **** 
 489:USB_HOST/Target/usbh_conf.c **** /**
 490:USB_HOST/Target/usbh_conf.c ****   * @brief  Return the current toggle of a pipe.
 491:USB_HOST/Target/usbh_conf.c ****   * @param  phost: Host handle
 492:USB_HOST/Target/usbh_conf.c ****   * @param  pipe: Pipe index
 493:USB_HOST/Target/usbh_conf.c ****   * @retval toggle (0/1)
 494:USB_HOST/Target/usbh_conf.c ****   */
 495:USB_HOST/Target/usbh_conf.c **** uint8_t USBH_LL_GetToggle(USBH_HandleTypeDef *phost, uint8_t pipe)
 496:USB_HOST/Target/usbh_conf.c **** {
 741              		.loc 1 496 1 is_stmt 1 view -0
 742              		.cfi_startproc
 743              		@ args = 0, pretend = 0, frame = 0
 744              		@ frame_needed = 0, uses_anonymous_args = 0
 745              		@ link register save eliminated.
 497:USB_HOST/Target/usbh_conf.c ****   uint8_t toggle = 0;
 746              		.loc 1 497 3 view .LVU169
 498:USB_HOST/Target/usbh_conf.c ****   HCD_HandleTypeDef *pHandle;
 747              		.loc 1 498 3 view .LVU170
 499:USB_HOST/Target/usbh_conf.c ****   pHandle = phost->pData;
 748              		.loc 1 499 3 view .LVU171
 749              		.loc 1 499 11 is_stmt 0 view .LVU172
 750 0000 D0F8D033 		ldr	r3, [r0, #976]
 751              	.LVL66:
 500:USB_HOST/Target/usbh_conf.c **** 
 501:USB_HOST/Target/usbh_conf.c ****   if(pHandle->hc[pipe].ep_is_in)
 752              		.loc 1 501 3 is_stmt 1 view .LVU173
 753              		.loc 1 501 23 is_stmt 0 view .LVU174
 754 0004 2C22     		movs	r2, #44
 755 0006 02FB0132 		mla	r2, r2, r1, r3
 756 000a 92F83B20 		ldrb	r2, [r2, #59]	@ zero_extendqisi2
 757              		.loc 1 501 5 view .LVU175
 758 000e 2AB1     		cbz	r2, .L53
 502:USB_HOST/Target/usbh_conf.c ****   {
 503:USB_HOST/Target/usbh_conf.c ****     toggle = pHandle->hc[pipe].toggle_in;
 759              		.loc 1 503 5 is_stmt 1 view .LVU176
 760              		.loc 1 503 12 is_stmt 0 view .LVU177
 761 0010 2C22     		movs	r2, #44
 762 0012 02FB0133 		mla	r3, r2, r1, r3
 763              	.LVL67:
ARM GAS  C:\Users\stefa\AppData\Local\Temp\ccPmQnPM.s 			page 24


 764              		.loc 1 503 12 view .LVU178
 765 0016 93F85400 		ldrb	r0, [r3, #84]	@ zero_extendqisi2
 766              	.LVL68:
 767              		.loc 1 503 12 view .LVU179
 768 001a 7047     		bx	lr
 769              	.LVL69:
 770              	.L53:
 504:USB_HOST/Target/usbh_conf.c ****   }
 505:USB_HOST/Target/usbh_conf.c ****   else
 506:USB_HOST/Target/usbh_conf.c ****   {
 507:USB_HOST/Target/usbh_conf.c ****     toggle = pHandle->hc[pipe].toggle_out;
 771              		.loc 1 507 5 is_stmt 1 view .LVU180
 772              		.loc 1 507 12 is_stmt 0 view .LVU181
 773 001c 2C22     		movs	r2, #44
 774 001e 02FB0133 		mla	r3, r2, r1, r3
 775              	.LVL70:
 776              		.loc 1 507 12 view .LVU182
 777 0022 93F85500 		ldrb	r0, [r3, #85]	@ zero_extendqisi2
 778              	.LVL71:
 508:USB_HOST/Target/usbh_conf.c ****   }
 509:USB_HOST/Target/usbh_conf.c ****   return toggle;
 779              		.loc 1 509 3 is_stmt 1 view .LVU183
 510:USB_HOST/Target/usbh_conf.c **** }
 780              		.loc 1 510 1 is_stmt 0 view .LVU184
 781 0026 7047     		bx	lr
 782              		.cfi_endproc
 783              	.LFE154:
 785              		.section	.text.USBH_Delay,"ax",%progbits
 786              		.align	1
 787              		.global	USBH_Delay
 788              		.syntax unified
 789              		.thumb
 790              		.thumb_func
 792              	USBH_Delay:
 793              	.LVL72:
 794              	.LFB155:
 511:USB_HOST/Target/usbh_conf.c **** 
 512:USB_HOST/Target/usbh_conf.c **** /**
 513:USB_HOST/Target/usbh_conf.c ****   * @brief  Delay routine for the USB Host Library
 514:USB_HOST/Target/usbh_conf.c ****   * @param  Delay: Delay in ms
 515:USB_HOST/Target/usbh_conf.c ****   * @retval None
 516:USB_HOST/Target/usbh_conf.c ****   */
 517:USB_HOST/Target/usbh_conf.c **** void USBH_Delay(uint32_t Delay)
 518:USB_HOST/Target/usbh_conf.c **** {
 795              		.loc 1 518 1 is_stmt 1 view -0
 796              		.cfi_startproc
 797              		@ args = 0, pretend = 0, frame = 0
 798              		@ frame_needed = 0, uses_anonymous_args = 0
 799              		.loc 1 518 1 is_stmt 0 view .LVU186
 800 0000 08B5     		push	{r3, lr}
 801              	.LCFI15:
 802              		.cfi_def_cfa_offset 8
 803              		.cfi_offset 3, -8
 804              		.cfi_offset 14, -4
 519:USB_HOST/Target/usbh_conf.c ****   HAL_Delay(Delay);
 805              		.loc 1 519 3 is_stmt 1 view .LVU187
 806 0002 FFF7FEFF 		bl	HAL_Delay
ARM GAS  C:\Users\stefa\AppData\Local\Temp\ccPmQnPM.s 			page 25


 807              	.LVL73:
 520:USB_HOST/Target/usbh_conf.c **** }
 808              		.loc 1 520 1 is_stmt 0 view .LVU188
 809 0006 08BD     		pop	{r3, pc}
 810              		.cfi_endproc
 811              	.LFE155:
 813              		.section	.text.USBH_Get_USB_Status,"ax",%progbits
 814              		.align	1
 815              		.global	USBH_Get_USB_Status
 816              		.syntax unified
 817              		.thumb
 818              		.thumb_func
 820              	USBH_Get_USB_Status:
 821              	.LVL74:
 822              	.LFB156:
 521:USB_HOST/Target/usbh_conf.c **** 
 522:USB_HOST/Target/usbh_conf.c **** /**
 523:USB_HOST/Target/usbh_conf.c ****   * @brief  Returns the USB status depending on the HAL status:
 524:USB_HOST/Target/usbh_conf.c ****   * @param  hal_status: HAL status
 525:USB_HOST/Target/usbh_conf.c ****   * @retval USB status
 526:USB_HOST/Target/usbh_conf.c ****   */
 527:USB_HOST/Target/usbh_conf.c **** USBH_StatusTypeDef USBH_Get_USB_Status(HAL_StatusTypeDef hal_status)
 528:USB_HOST/Target/usbh_conf.c **** {
 823              		.loc 1 528 1 is_stmt 1 view -0
 824              		.cfi_startproc
 825              		@ args = 0, pretend = 0, frame = 0
 826              		@ frame_needed = 0, uses_anonymous_args = 0
 827              		@ link register save eliminated.
 529:USB_HOST/Target/usbh_conf.c ****   USBH_StatusTypeDef usb_status = USBH_OK;
 828              		.loc 1 529 3 view .LVU190
 530:USB_HOST/Target/usbh_conf.c **** 
 531:USB_HOST/Target/usbh_conf.c ****   switch (hal_status)
 829              		.loc 1 531 3 view .LVU191
 830 0000 0228     		cmp	r0, #2
 831 0002 05D8     		bhi	.L62
 832 0004 DFE800F0 		tbb	[pc, r0]
 833              	.L60:
 834 0008 05       		.byte	(.L58-.L60)/2
 835 0009 04       		.byte	(.L62-.L60)/2
 836 000a 02       		.byte	(.L59-.L60)/2
 837 000b 00       		.p2align 1
 838              	.L59:
 532:USB_HOST/Target/usbh_conf.c ****   {
 533:USB_HOST/Target/usbh_conf.c ****     case HAL_OK :
 534:USB_HOST/Target/usbh_conf.c ****       usb_status = USBH_OK;
 535:USB_HOST/Target/usbh_conf.c ****     break;
 536:USB_HOST/Target/usbh_conf.c ****     case HAL_ERROR :
 537:USB_HOST/Target/usbh_conf.c ****       usb_status = USBH_FAIL;
 538:USB_HOST/Target/usbh_conf.c ****     break;
 539:USB_HOST/Target/usbh_conf.c ****     case HAL_BUSY :
 540:USB_HOST/Target/usbh_conf.c ****       usb_status = USBH_BUSY;
 839              		.loc 1 540 7 view .LVU192
 840              	.LVL75:
 541:USB_HOST/Target/usbh_conf.c ****     break;
 841              		.loc 1 541 5 view .LVU193
 540:USB_HOST/Target/usbh_conf.c ****     break;
 842              		.loc 1 540 18 is_stmt 0 view .LVU194
ARM GAS  C:\Users\stefa\AppData\Local\Temp\ccPmQnPM.s 			page 26


 843 000c 0120     		movs	r0, #1
 844              	.LVL76:
 845              		.loc 1 541 5 view .LVU195
 846 000e 7047     		bx	lr
 847              	.LVL77:
 848              	.L62:
 537:USB_HOST/Target/usbh_conf.c ****     break;
 849              		.loc 1 537 18 view .LVU196
 850 0010 0220     		movs	r0, #2
 851              	.LVL78:
 852              	.L58:
 542:USB_HOST/Target/usbh_conf.c ****     case HAL_TIMEOUT :
 543:USB_HOST/Target/usbh_conf.c ****       usb_status = USBH_FAIL;
 544:USB_HOST/Target/usbh_conf.c ****     break;
 545:USB_HOST/Target/usbh_conf.c ****     default :
 546:USB_HOST/Target/usbh_conf.c ****       usb_status = USBH_FAIL;
 547:USB_HOST/Target/usbh_conf.c ****     break;
 548:USB_HOST/Target/usbh_conf.c ****   }
 549:USB_HOST/Target/usbh_conf.c ****   return usb_status;
 853              		.loc 1 549 3 is_stmt 1 view .LVU197
 550:USB_HOST/Target/usbh_conf.c **** }
 854              		.loc 1 550 1 is_stmt 0 view .LVU198
 855 0012 7047     		bx	lr
 856              		.cfi_endproc
 857              	.LFE156:
 859              		.section	.text.USBH_LL_DeInit,"ax",%progbits
 860              		.align	1
 861              		.global	USBH_LL_DeInit
 862              		.syntax unified
 863              		.thumb
 864              		.thumb_func
 866              	USBH_LL_DeInit:
 867              	.LVL79:
 868              	.LFB142:
 235:USB_HOST/Target/usbh_conf.c ****   HAL_StatusTypeDef hal_status = HAL_OK;
 869              		.loc 1 235 1 is_stmt 1 view -0
 870              		.cfi_startproc
 871              		@ args = 0, pretend = 0, frame = 0
 872              		@ frame_needed = 0, uses_anonymous_args = 0
 235:USB_HOST/Target/usbh_conf.c ****   HAL_StatusTypeDef hal_status = HAL_OK;
 873              		.loc 1 235 1 is_stmt 0 view .LVU200
 874 0000 08B5     		push	{r3, lr}
 875              	.LCFI16:
 876              		.cfi_def_cfa_offset 8
 877              		.cfi_offset 3, -8
 878              		.cfi_offset 14, -4
 236:USB_HOST/Target/usbh_conf.c ****   USBH_StatusTypeDef usb_status = USBH_OK;
 879              		.loc 1 236 3 is_stmt 1 view .LVU201
 880              	.LVL80:
 237:USB_HOST/Target/usbh_conf.c **** 
 881              		.loc 1 237 3 view .LVU202
 239:USB_HOST/Target/usbh_conf.c **** 
 882              		.loc 1 239 3 view .LVU203
 239:USB_HOST/Target/usbh_conf.c **** 
 883              		.loc 1 239 16 is_stmt 0 view .LVU204
 884 0002 D0F8D003 		ldr	r0, [r0, #976]
 885              	.LVL81:
ARM GAS  C:\Users\stefa\AppData\Local\Temp\ccPmQnPM.s 			page 27


 239:USB_HOST/Target/usbh_conf.c **** 
 886              		.loc 1 239 16 view .LVU205
 887 0006 FFF7FEFF 		bl	HAL_HCD_DeInit
 888              	.LVL82:
 241:USB_HOST/Target/usbh_conf.c **** 
 889              		.loc 1 241 3 is_stmt 1 view .LVU206
 241:USB_HOST/Target/usbh_conf.c **** 
 890              		.loc 1 241 16 is_stmt 0 view .LVU207
 891 000a FFF7FEFF 		bl	USBH_Get_USB_Status
 892              	.LVL83:
 243:USB_HOST/Target/usbh_conf.c **** }
 893              		.loc 1 243 3 is_stmt 1 view .LVU208
 244:USB_HOST/Target/usbh_conf.c **** 
 894              		.loc 1 244 1 is_stmt 0 view .LVU209
 895 000e 08BD     		pop	{r3, pc}
 896              		.cfi_endproc
 897              	.LFE142:
 899              		.section	.text.USBH_LL_Start,"ax",%progbits
 900              		.align	1
 901              		.global	USBH_LL_Start
 902              		.syntax unified
 903              		.thumb
 904              		.thumb_func
 906              	USBH_LL_Start:
 907              	.LVL84:
 908              	.LFB143:
 252:USB_HOST/Target/usbh_conf.c ****   HAL_StatusTypeDef hal_status = HAL_OK;
 909              		.loc 1 252 1 is_stmt 1 view -0
 910              		.cfi_startproc
 911              		@ args = 0, pretend = 0, frame = 0
 912              		@ frame_needed = 0, uses_anonymous_args = 0
 252:USB_HOST/Target/usbh_conf.c ****   HAL_StatusTypeDef hal_status = HAL_OK;
 913              		.loc 1 252 1 is_stmt 0 view .LVU211
 914 0000 08B5     		push	{r3, lr}
 915              	.LCFI17:
 916              		.cfi_def_cfa_offset 8
 917              		.cfi_offset 3, -8
 918              		.cfi_offset 14, -4
 253:USB_HOST/Target/usbh_conf.c ****   USBH_StatusTypeDef usb_status = USBH_OK;
 919              		.loc 1 253 3 is_stmt 1 view .LVU212
 920              	.LVL85:
 254:USB_HOST/Target/usbh_conf.c **** 
 921              		.loc 1 254 3 view .LVU213
 256:USB_HOST/Target/usbh_conf.c **** 
 922              		.loc 1 256 3 view .LVU214
 256:USB_HOST/Target/usbh_conf.c **** 
 923              		.loc 1 256 16 is_stmt 0 view .LVU215
 924 0002 D0F8D003 		ldr	r0, [r0, #976]
 925              	.LVL86:
 256:USB_HOST/Target/usbh_conf.c **** 
 926              		.loc 1 256 16 view .LVU216
 927 0006 FFF7FEFF 		bl	HAL_HCD_Start
 928              	.LVL87:
 258:USB_HOST/Target/usbh_conf.c **** 
 929              		.loc 1 258 3 is_stmt 1 view .LVU217
 258:USB_HOST/Target/usbh_conf.c **** 
 930              		.loc 1 258 16 is_stmt 0 view .LVU218
ARM GAS  C:\Users\stefa\AppData\Local\Temp\ccPmQnPM.s 			page 28


 931 000a FFF7FEFF 		bl	USBH_Get_USB_Status
 932              	.LVL88:
 260:USB_HOST/Target/usbh_conf.c **** }
 933              		.loc 1 260 3 is_stmt 1 view .LVU219
 261:USB_HOST/Target/usbh_conf.c **** 
 934              		.loc 1 261 1 is_stmt 0 view .LVU220
 935 000e 08BD     		pop	{r3, pc}
 936              		.cfi_endproc
 937              	.LFE143:
 939              		.section	.text.USBH_LL_Stop,"ax",%progbits
 940              		.align	1
 941              		.global	USBH_LL_Stop
 942              		.syntax unified
 943              		.thumb
 944              		.thumb_func
 946              	USBH_LL_Stop:
 947              	.LVL89:
 948              	.LFB144:
 269:USB_HOST/Target/usbh_conf.c ****   HAL_StatusTypeDef hal_status = HAL_OK;
 949              		.loc 1 269 1 is_stmt 1 view -0
 950              		.cfi_startproc
 951              		@ args = 0, pretend = 0, frame = 0
 952              		@ frame_needed = 0, uses_anonymous_args = 0
 269:USB_HOST/Target/usbh_conf.c ****   HAL_StatusTypeDef hal_status = HAL_OK;
 953              		.loc 1 269 1 is_stmt 0 view .LVU222
 954 0000 08B5     		push	{r3, lr}
 955              	.LCFI18:
 956              		.cfi_def_cfa_offset 8
 957              		.cfi_offset 3, -8
 958              		.cfi_offset 14, -4
 270:USB_HOST/Target/usbh_conf.c ****   USBH_StatusTypeDef usb_status = USBH_OK;
 959              		.loc 1 270 3 is_stmt 1 view .LVU223
 960              	.LVL90:
 271:USB_HOST/Target/usbh_conf.c **** 
 961              		.loc 1 271 3 view .LVU224
 273:USB_HOST/Target/usbh_conf.c **** 
 962              		.loc 1 273 3 view .LVU225
 273:USB_HOST/Target/usbh_conf.c **** 
 963              		.loc 1 273 16 is_stmt 0 view .LVU226
 964 0002 D0F8D003 		ldr	r0, [r0, #976]
 965              	.LVL91:
 273:USB_HOST/Target/usbh_conf.c **** 
 966              		.loc 1 273 16 view .LVU227
 967 0006 FFF7FEFF 		bl	HAL_HCD_Stop
 968              	.LVL92:
 275:USB_HOST/Target/usbh_conf.c **** 
 969              		.loc 1 275 3 is_stmt 1 view .LVU228
 275:USB_HOST/Target/usbh_conf.c **** 
 970              		.loc 1 275 16 is_stmt 0 view .LVU229
 971 000a FFF7FEFF 		bl	USBH_Get_USB_Status
 972              	.LVL93:
 277:USB_HOST/Target/usbh_conf.c **** }
 973              		.loc 1 277 3 is_stmt 1 view .LVU230
 278:USB_HOST/Target/usbh_conf.c **** 
 974              		.loc 1 278 1 is_stmt 0 view .LVU231
 975 000e 08BD     		pop	{r3, pc}
 976              		.cfi_endproc
ARM GAS  C:\Users\stefa\AppData\Local\Temp\ccPmQnPM.s 			page 29


 977              	.LFE144:
 979              		.section	.text.USBH_LL_ResetPort,"ax",%progbits
 980              		.align	1
 981              		.global	USBH_LL_ResetPort
 982              		.syntax unified
 983              		.thumb
 984              		.thumb_func
 986              	USBH_LL_ResetPort:
 987              	.LVL94:
 988              	.LFB146:
 316:USB_HOST/Target/usbh_conf.c ****   HAL_StatusTypeDef hal_status = HAL_OK;
 989              		.loc 1 316 1 is_stmt 1 view -0
 990              		.cfi_startproc
 991              		@ args = 0, pretend = 0, frame = 0
 992              		@ frame_needed = 0, uses_anonymous_args = 0
 316:USB_HOST/Target/usbh_conf.c ****   HAL_StatusTypeDef hal_status = HAL_OK;
 993              		.loc 1 316 1 is_stmt 0 view .LVU233
 994 0000 08B5     		push	{r3, lr}
 995              	.LCFI19:
 996              		.cfi_def_cfa_offset 8
 997              		.cfi_offset 3, -8
 998              		.cfi_offset 14, -4
 317:USB_HOST/Target/usbh_conf.c ****   USBH_StatusTypeDef usb_status = USBH_OK;
 999              		.loc 1 317 3 is_stmt 1 view .LVU234
 1000              	.LVL95:
 318:USB_HOST/Target/usbh_conf.c **** 
 1001              		.loc 1 318 3 view .LVU235
 320:USB_HOST/Target/usbh_conf.c **** 
 1002              		.loc 1 320 3 view .LVU236
 320:USB_HOST/Target/usbh_conf.c **** 
 1003              		.loc 1 320 16 is_stmt 0 view .LVU237
 1004 0002 D0F8D003 		ldr	r0, [r0, #976]
 1005              	.LVL96:
 320:USB_HOST/Target/usbh_conf.c **** 
 1006              		.loc 1 320 16 view .LVU238
 1007 0006 FFF7FEFF 		bl	HAL_HCD_ResetPort
 1008              	.LVL97:
 322:USB_HOST/Target/usbh_conf.c **** 
 1009              		.loc 1 322 3 is_stmt 1 view .LVU239
 322:USB_HOST/Target/usbh_conf.c **** 
 1010              		.loc 1 322 16 is_stmt 0 view .LVU240
 1011 000a FFF7FEFF 		bl	USBH_Get_USB_Status
 1012              	.LVL98:
 324:USB_HOST/Target/usbh_conf.c **** }
 1013              		.loc 1 324 3 is_stmt 1 view .LVU241
 325:USB_HOST/Target/usbh_conf.c **** 
 1014              		.loc 1 325 1 is_stmt 0 view .LVU242
 1015 000e 08BD     		pop	{r3, pc}
 1016              		.cfi_endproc
 1017              	.LFE146:
 1019              		.section	.text.USBH_LL_OpenPipe,"ax",%progbits
 1020              		.align	1
 1021              		.global	USBH_LL_OpenPipe
 1022              		.syntax unified
 1023              		.thumb
 1024              		.thumb_func
 1026              	USBH_LL_OpenPipe:
ARM GAS  C:\Users\stefa\AppData\Local\Temp\ccPmQnPM.s 			page 30


 1027              	.LVL99:
 1028              	.LFB148:
 351:USB_HOST/Target/usbh_conf.c ****   HAL_StatusTypeDef hal_status = HAL_OK;
 1029              		.loc 1 351 1 is_stmt 1 view -0
 1030              		.cfi_startproc
 1031              		@ args = 12, pretend = 0, frame = 0
 1032              		@ frame_needed = 0, uses_anonymous_args = 0
 351:USB_HOST/Target/usbh_conf.c ****   HAL_StatusTypeDef hal_status = HAL_OK;
 1033              		.loc 1 351 1 is_stmt 0 view .LVU244
 1034 0000 10B5     		push	{r4, lr}
 1035              	.LCFI20:
 1036              		.cfi_def_cfa_offset 8
 1037              		.cfi_offset 4, -8
 1038              		.cfi_offset 14, -4
 1039 0002 84B0     		sub	sp, sp, #16
 1040              	.LCFI21:
 1041              		.cfi_def_cfa_offset 24
 352:USB_HOST/Target/usbh_conf.c ****   USBH_StatusTypeDef usb_status = USBH_OK;
 1042              		.loc 1 352 3 is_stmt 1 view .LVU245
 1043              	.LVL100:
 353:USB_HOST/Target/usbh_conf.c **** 
 1044              		.loc 1 353 3 view .LVU246
 355:USB_HOST/Target/usbh_conf.c ****                                dev_address, speed, ep_type, mps);
 1045              		.loc 1 355 3 view .LVU247
 355:USB_HOST/Target/usbh_conf.c ****                                dev_address, speed, ep_type, mps);
 1046              		.loc 1 355 37 is_stmt 0 view .LVU248
 1047 0004 D0F8D003 		ldr	r0, [r0, #976]
 1048              	.LVL101:
 355:USB_HOST/Target/usbh_conf.c ****                                dev_address, speed, ep_type, mps);
 1049              		.loc 1 355 16 view .LVU249
 1050 0008 BDF82040 		ldrh	r4, [sp, #32]
 1051 000c 0294     		str	r4, [sp, #8]
 1052 000e 9DF81C40 		ldrb	r4, [sp, #28]	@ zero_extendqisi2
 1053 0012 0194     		str	r4, [sp, #4]
 1054 0014 9DF81840 		ldrb	r4, [sp, #24]	@ zero_extendqisi2
 1055 0018 0094     		str	r4, [sp]
 1056 001a FFF7FEFF 		bl	HAL_HCD_HC_Init
 1057              	.LVL102:
 358:USB_HOST/Target/usbh_conf.c **** 
 1058              		.loc 1 358 3 is_stmt 1 view .LVU250
 358:USB_HOST/Target/usbh_conf.c **** 
 1059              		.loc 1 358 16 is_stmt 0 view .LVU251
 1060 001e FFF7FEFF 		bl	USBH_Get_USB_Status
 1061              	.LVL103:
 360:USB_HOST/Target/usbh_conf.c **** }
 1062              		.loc 1 360 3 is_stmt 1 view .LVU252
 361:USB_HOST/Target/usbh_conf.c **** 
 1063              		.loc 1 361 1 is_stmt 0 view .LVU253
 1064 0022 04B0     		add	sp, sp, #16
 1065              	.LCFI22:
 1066              		.cfi_def_cfa_offset 8
 1067              		@ sp needed
 1068 0024 10BD     		pop	{r4, pc}
 361:USB_HOST/Target/usbh_conf.c **** 
 1069              		.loc 1 361 1 view .LVU254
 1070              		.cfi_endproc
 1071              	.LFE148:
ARM GAS  C:\Users\stefa\AppData\Local\Temp\ccPmQnPM.s 			page 31


 1073              		.section	.text.USBH_LL_ClosePipe,"ax",%progbits
 1074              		.align	1
 1075              		.global	USBH_LL_ClosePipe
 1076              		.syntax unified
 1077              		.thumb
 1078              		.thumb_func
 1080              	USBH_LL_ClosePipe:
 1081              	.LVL104:
 1082              	.LFB149:
 370:USB_HOST/Target/usbh_conf.c ****   HAL_StatusTypeDef hal_status = HAL_OK;
 1083              		.loc 1 370 1 is_stmt 1 view -0
 1084              		.cfi_startproc
 1085              		@ args = 0, pretend = 0, frame = 0
 1086              		@ frame_needed = 0, uses_anonymous_args = 0
 370:USB_HOST/Target/usbh_conf.c ****   HAL_StatusTypeDef hal_status = HAL_OK;
 1087              		.loc 1 370 1 is_stmt 0 view .LVU256
 1088 0000 08B5     		push	{r3, lr}
 1089              	.LCFI23:
 1090              		.cfi_def_cfa_offset 8
 1091              		.cfi_offset 3, -8
 1092              		.cfi_offset 14, -4
 371:USB_HOST/Target/usbh_conf.c ****   USBH_StatusTypeDef usb_status = USBH_OK;
 1093              		.loc 1 371 3 is_stmt 1 view .LVU257
 1094              	.LVL105:
 372:USB_HOST/Target/usbh_conf.c **** 
 1095              		.loc 1 372 3 view .LVU258
 374:USB_HOST/Target/usbh_conf.c **** 
 1096              		.loc 1 374 3 view .LVU259
 374:USB_HOST/Target/usbh_conf.c **** 
 1097              		.loc 1 374 16 is_stmt 0 view .LVU260
 1098 0002 D0F8D003 		ldr	r0, [r0, #976]
 1099              	.LVL106:
 374:USB_HOST/Target/usbh_conf.c **** 
 1100              		.loc 1 374 16 view .LVU261
 1101 0006 FFF7FEFF 		bl	HAL_HCD_HC_Halt
 1102              	.LVL107:
 376:USB_HOST/Target/usbh_conf.c **** 
 1103              		.loc 1 376 3 is_stmt 1 view .LVU262
 376:USB_HOST/Target/usbh_conf.c **** 
 1104              		.loc 1 376 16 is_stmt 0 view .LVU263
 1105 000a FFF7FEFF 		bl	USBH_Get_USB_Status
 1106              	.LVL108:
 378:USB_HOST/Target/usbh_conf.c **** }
 1107              		.loc 1 378 3 is_stmt 1 view .LVU264
 379:USB_HOST/Target/usbh_conf.c **** 
 1108              		.loc 1 379 1 is_stmt 0 view .LVU265
 1109 000e 08BD     		pop	{r3, pc}
 1110              		.cfi_endproc
 1111              	.LFE149:
 1113              		.section	.text.USBH_LL_SubmitURB,"ax",%progbits
 1114              		.align	1
 1115              		.global	USBH_LL_SubmitURB
 1116              		.syntax unified
 1117              		.thumb
 1118              		.thumb_func
 1120              	USBH_LL_SubmitURB:
 1121              	.LVL109:
ARM GAS  C:\Users\stefa\AppData\Local\Temp\ccPmQnPM.s 			page 32


 1122              	.LFB150:
 411:USB_HOST/Target/usbh_conf.c ****   HAL_StatusTypeDef hal_status = HAL_OK;
 1123              		.loc 1 411 1 is_stmt 1 view -0
 1124              		.cfi_startproc
 1125              		@ args = 16, pretend = 0, frame = 0
 1126              		@ frame_needed = 0, uses_anonymous_args = 0
 411:USB_HOST/Target/usbh_conf.c ****   HAL_StatusTypeDef hal_status = HAL_OK;
 1127              		.loc 1 411 1 is_stmt 0 view .LVU267
 1128 0000 10B5     		push	{r4, lr}
 1129              	.LCFI24:
 1130              		.cfi_def_cfa_offset 8
 1131              		.cfi_offset 4, -8
 1132              		.cfi_offset 14, -4
 1133 0002 84B0     		sub	sp, sp, #16
 1134              	.LCFI25:
 1135              		.cfi_def_cfa_offset 24
 412:USB_HOST/Target/usbh_conf.c ****   USBH_StatusTypeDef usb_status = USBH_OK;
 1136              		.loc 1 412 3 is_stmt 1 view .LVU268
 1137              	.LVL110:
 413:USB_HOST/Target/usbh_conf.c **** 
 1138              		.loc 1 413 3 view .LVU269
 415:USB_HOST/Target/usbh_conf.c ****                                         ep_type, token, pbuff, length,
 1139              		.loc 1 415 3 view .LVU270
 415:USB_HOST/Target/usbh_conf.c ****                                         ep_type, token, pbuff, length,
 1140              		.loc 1 415 46 is_stmt 0 view .LVU271
 1141 0004 D0F8D003 		ldr	r0, [r0, #976]
 1142              	.LVL111:
 415:USB_HOST/Target/usbh_conf.c ****                                         ep_type, token, pbuff, length,
 1143              		.loc 1 415 16 view .LVU272
 1144 0008 9DF82440 		ldrb	r4, [sp, #36]	@ zero_extendqisi2
 1145 000c 0394     		str	r4, [sp, #12]
 1146 000e BDF82040 		ldrh	r4, [sp, #32]
 1147 0012 0294     		str	r4, [sp, #8]
 1148 0014 079C     		ldr	r4, [sp, #28]
 1149 0016 0194     		str	r4, [sp, #4]
 1150 0018 9DF81840 		ldrb	r4, [sp, #24]	@ zero_extendqisi2
 1151 001c 0094     		str	r4, [sp]
 1152 001e FFF7FEFF 		bl	HAL_HCD_HC_SubmitRequest
 1153              	.LVL112:
 418:USB_HOST/Target/usbh_conf.c **** 
 1154              		.loc 1 418 3 is_stmt 1 view .LVU273
 418:USB_HOST/Target/usbh_conf.c **** 
 1155              		.loc 1 418 17 is_stmt 0 view .LVU274
 1156 0022 FFF7FEFF 		bl	USBH_Get_USB_Status
 1157              	.LVL113:
 420:USB_HOST/Target/usbh_conf.c **** }
 1158              		.loc 1 420 3 is_stmt 1 view .LVU275
 421:USB_HOST/Target/usbh_conf.c **** 
 1159              		.loc 1 421 1 is_stmt 0 view .LVU276
 1160 0026 04B0     		add	sp, sp, #16
 1161              	.LCFI26:
 1162              		.cfi_def_cfa_offset 8
 1163              		@ sp needed
 1164 0028 10BD     		pop	{r4, pc}
 421:USB_HOST/Target/usbh_conf.c **** 
 1165              		.loc 1 421 1 view .LVU277
 1166              		.cfi_endproc
ARM GAS  C:\Users\stefa\AppData\Local\Temp\ccPmQnPM.s 			page 33


 1167              	.LFE150:
 1169              		.global	hhcd_USB_OTG_HS
 1170              		.section	.bss.hhcd_USB_OTG_HS,"aw",%nobits
 1171              		.align	2
 1172              		.set	.LANCHOR0,. + 0
 1175              	hhcd_USB_OTG_HS:
 1176 0000 00000000 		.space	772
 1176      00000000 
 1176      00000000 
 1176      00000000 
 1176      00000000 
 1177              		.text
 1178              	.Letext0:
 1179              		.file 2 "d:\\vscodedev\\tools\\gcc-arm-none-eabi-10.3-2021.10\\arm-none-eabi\\include\\machine\\_d
 1180              		.file 3 "d:\\vscodedev\\tools\\gcc-arm-none-eabi-10.3-2021.10\\arm-none-eabi\\include\\sys\\_stdin
 1181              		.file 4 "Drivers/CMSIS/Device/ST/STM32F4xx/Include/stm32f429xx.h"
 1182              		.file 5 "Drivers/CMSIS/Device/ST/STM32F4xx/Include/stm32f4xx.h"
 1183              		.file 6 "Drivers/STM32F4xx_HAL_Driver/Inc/stm32f4xx_hal_def.h"
 1184              		.file 7 "Drivers/STM32F4xx_HAL_Driver/Inc/stm32f4xx_hal_gpio.h"
 1185              		.file 8 "Drivers/STM32F4xx_HAL_Driver/Inc/stm32f4xx_ll_usb.h"
 1186              		.file 9 "Drivers/STM32F4xx_HAL_Driver/Inc/stm32f4xx_hal_hcd.h"
 1187              		.file 10 "Middlewares/ST/STM32_USB_Host_Library/Core/Inc/usbh_def.h"
 1188              		.file 11 "Drivers/STM32F4xx_HAL_Driver/Inc/stm32f4xx_hal.h"
 1189              		.file 12 "USB_HOST/Target/usbh_platform.h"
 1190              		.file 13 "Middlewares/ST/STM32_USB_Host_Library/Core/Inc/usbh_core.h"
 1191              		.file 14 "Drivers/STM32F4xx_HAL_Driver/Inc/stm32f4xx_hal_cortex.h"
ARM GAS  C:\Users\stefa\AppData\Local\Temp\ccPmQnPM.s 			page 34

