ARM GAS  C:\Users\stefa\AppData\Local\Temp\ccf1pQEx.s 			page 1


   1              		.cpu cortex-m4
   2              		.arch armv7e-m
   3              		.fpu fpv4-sp-d16
   4              		.eabi_attribute 27, 1
   5              		.eabi_attribute 28, 1
   6              		.eabi_attribute 20, 1
   7              		.eabi_attribute 21, 1
   8              		.eabi_attribute 23, 3
   9              		.eabi_attribute 24, 1
  10              		.eabi_attribute 25, 1
  11              		.eabi_attribute 26, 1
  12              		.eabi_attribute 30, 1
  13              		.eabi_attribute 34, 1
  14              		.eabi_attribute 18, 4
  15              		.file	"usbh_ctlreq.c"
  16              		.text
  17              	.Ltext0:
  18              		.cfi_sections	.debug_frame
  19              		.section	.text.USBH_ParseDevDesc,"ax",%progbits
  20              		.align	1
  21              		.syntax unified
  22              		.thumb
  23              		.thumb_func
  25              	USBH_ParseDevDesc:
  26              	.LVL0:
  27              	.LFB142:
  28              		.file 1 "Middlewares/ST/STM32_USB_Host_Library/Core/Src/usbh_ctlreq.c"
   1:Middlewares/ST/STM32_USB_Host_Library/Core/Src/usbh_ctlreq.c **** /**
   2:Middlewares/ST/STM32_USB_Host_Library/Core/Src/usbh_ctlreq.c ****   ******************************************************************************
   3:Middlewares/ST/STM32_USB_Host_Library/Core/Src/usbh_ctlreq.c ****   * @file    usbh_ctlreq.c
   4:Middlewares/ST/STM32_USB_Host_Library/Core/Src/usbh_ctlreq.c ****   * @author  MCD Application Team
   5:Middlewares/ST/STM32_USB_Host_Library/Core/Src/usbh_ctlreq.c ****   * @brief   This file implements the control requests for device enumeration
   6:Middlewares/ST/STM32_USB_Host_Library/Core/Src/usbh_ctlreq.c ****   ******************************************************************************
   7:Middlewares/ST/STM32_USB_Host_Library/Core/Src/usbh_ctlreq.c ****   * @attention
   8:Middlewares/ST/STM32_USB_Host_Library/Core/Src/usbh_ctlreq.c ****   *
   9:Middlewares/ST/STM32_USB_Host_Library/Core/Src/usbh_ctlreq.c ****   * <h2><center>&copy; Copyright (c) 2015 STMicroelectronics.
  10:Middlewares/ST/STM32_USB_Host_Library/Core/Src/usbh_ctlreq.c ****   * All rights reserved.</center></h2>
  11:Middlewares/ST/STM32_USB_Host_Library/Core/Src/usbh_ctlreq.c ****   *
  12:Middlewares/ST/STM32_USB_Host_Library/Core/Src/usbh_ctlreq.c ****   * This software component is licensed by ST under Ultimate Liberty license
  13:Middlewares/ST/STM32_USB_Host_Library/Core/Src/usbh_ctlreq.c ****   * SLA0044, the "License"; You may not use this file except in compliance with
  14:Middlewares/ST/STM32_USB_Host_Library/Core/Src/usbh_ctlreq.c ****   * the License. You may obtain a copy of the License at:
  15:Middlewares/ST/STM32_USB_Host_Library/Core/Src/usbh_ctlreq.c ****   *                      www.st.com/SLA0044
  16:Middlewares/ST/STM32_USB_Host_Library/Core/Src/usbh_ctlreq.c ****   *
  17:Middlewares/ST/STM32_USB_Host_Library/Core/Src/usbh_ctlreq.c ****   ******************************************************************************
  18:Middlewares/ST/STM32_USB_Host_Library/Core/Src/usbh_ctlreq.c ****   */
  19:Middlewares/ST/STM32_USB_Host_Library/Core/Src/usbh_ctlreq.c **** 
  20:Middlewares/ST/STM32_USB_Host_Library/Core/Src/usbh_ctlreq.c **** /* Includes ------------------------------------------------------------------*/
  21:Middlewares/ST/STM32_USB_Host_Library/Core/Src/usbh_ctlreq.c **** #include "usbh_ctlreq.h"
  22:Middlewares/ST/STM32_USB_Host_Library/Core/Src/usbh_ctlreq.c **** 
  23:Middlewares/ST/STM32_USB_Host_Library/Core/Src/usbh_ctlreq.c **** /** @addtogroup USBH_LIB
  24:Middlewares/ST/STM32_USB_Host_Library/Core/Src/usbh_ctlreq.c ****   * @{
  25:Middlewares/ST/STM32_USB_Host_Library/Core/Src/usbh_ctlreq.c ****   */
  26:Middlewares/ST/STM32_USB_Host_Library/Core/Src/usbh_ctlreq.c **** 
  27:Middlewares/ST/STM32_USB_Host_Library/Core/Src/usbh_ctlreq.c **** /** @addtogroup USBH_LIB_CORE
  28:Middlewares/ST/STM32_USB_Host_Library/Core/Src/usbh_ctlreq.c ****   * @{
  29:Middlewares/ST/STM32_USB_Host_Library/Core/Src/usbh_ctlreq.c ****   */
  30:Middlewares/ST/STM32_USB_Host_Library/Core/Src/usbh_ctlreq.c **** 
ARM GAS  C:\Users\stefa\AppData\Local\Temp\ccf1pQEx.s 			page 2


  31:Middlewares/ST/STM32_USB_Host_Library/Core/Src/usbh_ctlreq.c **** /** @defgroup USBH_CTLREQ
  32:Middlewares/ST/STM32_USB_Host_Library/Core/Src/usbh_ctlreq.c ****   * @brief This file implements the standard requests for device enumeration
  33:Middlewares/ST/STM32_USB_Host_Library/Core/Src/usbh_ctlreq.c ****   * @{
  34:Middlewares/ST/STM32_USB_Host_Library/Core/Src/usbh_ctlreq.c ****   */
  35:Middlewares/ST/STM32_USB_Host_Library/Core/Src/usbh_ctlreq.c **** 
  36:Middlewares/ST/STM32_USB_Host_Library/Core/Src/usbh_ctlreq.c **** 
  37:Middlewares/ST/STM32_USB_Host_Library/Core/Src/usbh_ctlreq.c **** /** @defgroup USBH_CTLREQ_Private_Defines
  38:Middlewares/ST/STM32_USB_Host_Library/Core/Src/usbh_ctlreq.c ****   * @{
  39:Middlewares/ST/STM32_USB_Host_Library/Core/Src/usbh_ctlreq.c ****   */
  40:Middlewares/ST/STM32_USB_Host_Library/Core/Src/usbh_ctlreq.c **** /**
  41:Middlewares/ST/STM32_USB_Host_Library/Core/Src/usbh_ctlreq.c ****   * @}
  42:Middlewares/ST/STM32_USB_Host_Library/Core/Src/usbh_ctlreq.c ****   */
  43:Middlewares/ST/STM32_USB_Host_Library/Core/Src/usbh_ctlreq.c **** 
  44:Middlewares/ST/STM32_USB_Host_Library/Core/Src/usbh_ctlreq.c **** 
  45:Middlewares/ST/STM32_USB_Host_Library/Core/Src/usbh_ctlreq.c **** /** @defgroup USBH_CTLREQ_Private_TypesDefinitions
  46:Middlewares/ST/STM32_USB_Host_Library/Core/Src/usbh_ctlreq.c ****   * @{
  47:Middlewares/ST/STM32_USB_Host_Library/Core/Src/usbh_ctlreq.c ****   */
  48:Middlewares/ST/STM32_USB_Host_Library/Core/Src/usbh_ctlreq.c **** /**
  49:Middlewares/ST/STM32_USB_Host_Library/Core/Src/usbh_ctlreq.c ****   * @}
  50:Middlewares/ST/STM32_USB_Host_Library/Core/Src/usbh_ctlreq.c ****   */
  51:Middlewares/ST/STM32_USB_Host_Library/Core/Src/usbh_ctlreq.c **** 
  52:Middlewares/ST/STM32_USB_Host_Library/Core/Src/usbh_ctlreq.c **** 
  53:Middlewares/ST/STM32_USB_Host_Library/Core/Src/usbh_ctlreq.c **** 
  54:Middlewares/ST/STM32_USB_Host_Library/Core/Src/usbh_ctlreq.c **** /** @defgroup USBH_CTLREQ_Private_Macros
  55:Middlewares/ST/STM32_USB_Host_Library/Core/Src/usbh_ctlreq.c ****   * @{
  56:Middlewares/ST/STM32_USB_Host_Library/Core/Src/usbh_ctlreq.c ****   */
  57:Middlewares/ST/STM32_USB_Host_Library/Core/Src/usbh_ctlreq.c **** /**
  58:Middlewares/ST/STM32_USB_Host_Library/Core/Src/usbh_ctlreq.c ****   * @}
  59:Middlewares/ST/STM32_USB_Host_Library/Core/Src/usbh_ctlreq.c ****   */
  60:Middlewares/ST/STM32_USB_Host_Library/Core/Src/usbh_ctlreq.c **** 
  61:Middlewares/ST/STM32_USB_Host_Library/Core/Src/usbh_ctlreq.c **** 
  62:Middlewares/ST/STM32_USB_Host_Library/Core/Src/usbh_ctlreq.c **** /** @defgroup USBH_CTLREQ_Private_Variables
  63:Middlewares/ST/STM32_USB_Host_Library/Core/Src/usbh_ctlreq.c ****   * @{
  64:Middlewares/ST/STM32_USB_Host_Library/Core/Src/usbh_ctlreq.c ****   */
  65:Middlewares/ST/STM32_USB_Host_Library/Core/Src/usbh_ctlreq.c **** /**
  66:Middlewares/ST/STM32_USB_Host_Library/Core/Src/usbh_ctlreq.c ****   * @}
  67:Middlewares/ST/STM32_USB_Host_Library/Core/Src/usbh_ctlreq.c ****   */
  68:Middlewares/ST/STM32_USB_Host_Library/Core/Src/usbh_ctlreq.c **** 
  69:Middlewares/ST/STM32_USB_Host_Library/Core/Src/usbh_ctlreq.c **** /** @defgroup USBH_CTLREQ_Private_FunctionPrototypes
  70:Middlewares/ST/STM32_USB_Host_Library/Core/Src/usbh_ctlreq.c ****   * @{
  71:Middlewares/ST/STM32_USB_Host_Library/Core/Src/usbh_ctlreq.c ****   */
  72:Middlewares/ST/STM32_USB_Host_Library/Core/Src/usbh_ctlreq.c **** static USBH_StatusTypeDef USBH_HandleControl(USBH_HandleTypeDef *phost);
  73:Middlewares/ST/STM32_USB_Host_Library/Core/Src/usbh_ctlreq.c **** 
  74:Middlewares/ST/STM32_USB_Host_Library/Core/Src/usbh_ctlreq.c **** static void USBH_ParseDevDesc(USBH_DevDescTypeDef *dev_desc,
  75:Middlewares/ST/STM32_USB_Host_Library/Core/Src/usbh_ctlreq.c ****                               uint8_t *buf, uint16_t length);
  76:Middlewares/ST/STM32_USB_Host_Library/Core/Src/usbh_ctlreq.c **** 
  77:Middlewares/ST/STM32_USB_Host_Library/Core/Src/usbh_ctlreq.c **** static USBH_StatusTypeDef USBH_ParseCfgDesc(USBH_HandleTypeDef *phost,
  78:Middlewares/ST/STM32_USB_Host_Library/Core/Src/usbh_ctlreq.c ****                                             uint8_t *buf, uint16_t length);
  79:Middlewares/ST/STM32_USB_Host_Library/Core/Src/usbh_ctlreq.c **** 
  80:Middlewares/ST/STM32_USB_Host_Library/Core/Src/usbh_ctlreq.c **** static USBH_StatusTypeDef USBH_ParseEPDesc(USBH_HandleTypeDef *phost, USBH_EpDescTypeDef  *ep_descr
  81:Middlewares/ST/STM32_USB_Host_Library/Core/Src/usbh_ctlreq.c **** static void USBH_ParseStringDesc(uint8_t *psrc, uint8_t *pdest, uint16_t length);
  82:Middlewares/ST/STM32_USB_Host_Library/Core/Src/usbh_ctlreq.c **** static void USBH_ParseInterfaceDesc(USBH_InterfaceDescTypeDef  *if_descriptor, uint8_t *buf);
  83:Middlewares/ST/STM32_USB_Host_Library/Core/Src/usbh_ctlreq.c **** 
  84:Middlewares/ST/STM32_USB_Host_Library/Core/Src/usbh_ctlreq.c **** 
  85:Middlewares/ST/STM32_USB_Host_Library/Core/Src/usbh_ctlreq.c **** /**
  86:Middlewares/ST/STM32_USB_Host_Library/Core/Src/usbh_ctlreq.c ****   * @}
  87:Middlewares/ST/STM32_USB_Host_Library/Core/Src/usbh_ctlreq.c ****   */
ARM GAS  C:\Users\stefa\AppData\Local\Temp\ccf1pQEx.s 			page 3


  88:Middlewares/ST/STM32_USB_Host_Library/Core/Src/usbh_ctlreq.c **** 
  89:Middlewares/ST/STM32_USB_Host_Library/Core/Src/usbh_ctlreq.c **** 
  90:Middlewares/ST/STM32_USB_Host_Library/Core/Src/usbh_ctlreq.c **** /** @defgroup USBH_CTLREQ_Private_Functions
  91:Middlewares/ST/STM32_USB_Host_Library/Core/Src/usbh_ctlreq.c ****   * @{
  92:Middlewares/ST/STM32_USB_Host_Library/Core/Src/usbh_ctlreq.c ****   */
  93:Middlewares/ST/STM32_USB_Host_Library/Core/Src/usbh_ctlreq.c **** 
  94:Middlewares/ST/STM32_USB_Host_Library/Core/Src/usbh_ctlreq.c **** 
  95:Middlewares/ST/STM32_USB_Host_Library/Core/Src/usbh_ctlreq.c **** /**
  96:Middlewares/ST/STM32_USB_Host_Library/Core/Src/usbh_ctlreq.c ****   * @brief  USBH_Get_DevDesc
  97:Middlewares/ST/STM32_USB_Host_Library/Core/Src/usbh_ctlreq.c ****   *         Issue Get Device Descriptor command to the device. Once the response
  98:Middlewares/ST/STM32_USB_Host_Library/Core/Src/usbh_ctlreq.c ****   *         received, it parses the device descriptor and updates the status.
  99:Middlewares/ST/STM32_USB_Host_Library/Core/Src/usbh_ctlreq.c ****   * @param  phost: Host Handle
 100:Middlewares/ST/STM32_USB_Host_Library/Core/Src/usbh_ctlreq.c ****   * @param  length: Length of the descriptor
 101:Middlewares/ST/STM32_USB_Host_Library/Core/Src/usbh_ctlreq.c ****   * @retval USBH Status
 102:Middlewares/ST/STM32_USB_Host_Library/Core/Src/usbh_ctlreq.c ****   */
 103:Middlewares/ST/STM32_USB_Host_Library/Core/Src/usbh_ctlreq.c **** USBH_StatusTypeDef USBH_Get_DevDesc(USBH_HandleTypeDef *phost, uint8_t length)
 104:Middlewares/ST/STM32_USB_Host_Library/Core/Src/usbh_ctlreq.c **** {
 105:Middlewares/ST/STM32_USB_Host_Library/Core/Src/usbh_ctlreq.c ****   USBH_StatusTypeDef status;
 106:Middlewares/ST/STM32_USB_Host_Library/Core/Src/usbh_ctlreq.c **** 
 107:Middlewares/ST/STM32_USB_Host_Library/Core/Src/usbh_ctlreq.c ****   status = USBH_GetDescriptor(phost,
 108:Middlewares/ST/STM32_USB_Host_Library/Core/Src/usbh_ctlreq.c ****                               USB_REQ_RECIPIENT_DEVICE | USB_REQ_TYPE_STANDARD,
 109:Middlewares/ST/STM32_USB_Host_Library/Core/Src/usbh_ctlreq.c ****                               USB_DESC_DEVICE, phost->device.Data,
 110:Middlewares/ST/STM32_USB_Host_Library/Core/Src/usbh_ctlreq.c ****                               (uint16_t)length);
 111:Middlewares/ST/STM32_USB_Host_Library/Core/Src/usbh_ctlreq.c **** 
 112:Middlewares/ST/STM32_USB_Host_Library/Core/Src/usbh_ctlreq.c ****   if (status == USBH_OK)
 113:Middlewares/ST/STM32_USB_Host_Library/Core/Src/usbh_ctlreq.c ****   {
 114:Middlewares/ST/STM32_USB_Host_Library/Core/Src/usbh_ctlreq.c ****     /* Commands successfully sent and Response Received */
 115:Middlewares/ST/STM32_USB_Host_Library/Core/Src/usbh_ctlreq.c ****     USBH_ParseDevDesc(&phost->device.DevDesc, phost->device.Data,
 116:Middlewares/ST/STM32_USB_Host_Library/Core/Src/usbh_ctlreq.c ****                       (uint16_t)length);
 117:Middlewares/ST/STM32_USB_Host_Library/Core/Src/usbh_ctlreq.c ****   }
 118:Middlewares/ST/STM32_USB_Host_Library/Core/Src/usbh_ctlreq.c **** 
 119:Middlewares/ST/STM32_USB_Host_Library/Core/Src/usbh_ctlreq.c ****   return status;
 120:Middlewares/ST/STM32_USB_Host_Library/Core/Src/usbh_ctlreq.c **** }
 121:Middlewares/ST/STM32_USB_Host_Library/Core/Src/usbh_ctlreq.c **** 
 122:Middlewares/ST/STM32_USB_Host_Library/Core/Src/usbh_ctlreq.c **** 
 123:Middlewares/ST/STM32_USB_Host_Library/Core/Src/usbh_ctlreq.c **** /**
 124:Middlewares/ST/STM32_USB_Host_Library/Core/Src/usbh_ctlreq.c ****   * @brief  USBH_Get_CfgDesc
 125:Middlewares/ST/STM32_USB_Host_Library/Core/Src/usbh_ctlreq.c ****   *         Issues Configuration Descriptor to the device. Once the response
 126:Middlewares/ST/STM32_USB_Host_Library/Core/Src/usbh_ctlreq.c ****   *         received, it parses the configuration descriptor and updates the
 127:Middlewares/ST/STM32_USB_Host_Library/Core/Src/usbh_ctlreq.c ****   *         status.
 128:Middlewares/ST/STM32_USB_Host_Library/Core/Src/usbh_ctlreq.c ****   * @param  phost: Host Handle
 129:Middlewares/ST/STM32_USB_Host_Library/Core/Src/usbh_ctlreq.c ****   * @param  length: Length of the descriptor
 130:Middlewares/ST/STM32_USB_Host_Library/Core/Src/usbh_ctlreq.c ****   * @retval USBH Status
 131:Middlewares/ST/STM32_USB_Host_Library/Core/Src/usbh_ctlreq.c ****   */
 132:Middlewares/ST/STM32_USB_Host_Library/Core/Src/usbh_ctlreq.c **** USBH_StatusTypeDef USBH_Get_CfgDesc(USBH_HandleTypeDef *phost,
 133:Middlewares/ST/STM32_USB_Host_Library/Core/Src/usbh_ctlreq.c ****                                     uint16_t length)
 134:Middlewares/ST/STM32_USB_Host_Library/Core/Src/usbh_ctlreq.c **** 
 135:Middlewares/ST/STM32_USB_Host_Library/Core/Src/usbh_ctlreq.c **** {
 136:Middlewares/ST/STM32_USB_Host_Library/Core/Src/usbh_ctlreq.c ****   USBH_StatusTypeDef status;
 137:Middlewares/ST/STM32_USB_Host_Library/Core/Src/usbh_ctlreq.c ****   uint8_t *pData = phost->device.CfgDesc_Raw;
 138:Middlewares/ST/STM32_USB_Host_Library/Core/Src/usbh_ctlreq.c **** 
 139:Middlewares/ST/STM32_USB_Host_Library/Core/Src/usbh_ctlreq.c ****   status = USBH_GetDescriptor(phost, (USB_REQ_RECIPIENT_DEVICE | USB_REQ_TYPE_STANDARD),
 140:Middlewares/ST/STM32_USB_Host_Library/Core/Src/usbh_ctlreq.c ****                               USB_DESC_CONFIGURATION, pData, length);
 141:Middlewares/ST/STM32_USB_Host_Library/Core/Src/usbh_ctlreq.c **** 
 142:Middlewares/ST/STM32_USB_Host_Library/Core/Src/usbh_ctlreq.c ****   if (status == USBH_OK)
 143:Middlewares/ST/STM32_USB_Host_Library/Core/Src/usbh_ctlreq.c ****   {
 144:Middlewares/ST/STM32_USB_Host_Library/Core/Src/usbh_ctlreq.c ****     /* Commands successfully sent and Response Received  */
ARM GAS  C:\Users\stefa\AppData\Local\Temp\ccf1pQEx.s 			page 4


 145:Middlewares/ST/STM32_USB_Host_Library/Core/Src/usbh_ctlreq.c ****     status = USBH_ParseCfgDesc(phost, pData, length);
 146:Middlewares/ST/STM32_USB_Host_Library/Core/Src/usbh_ctlreq.c ****   }
 147:Middlewares/ST/STM32_USB_Host_Library/Core/Src/usbh_ctlreq.c **** 
 148:Middlewares/ST/STM32_USB_Host_Library/Core/Src/usbh_ctlreq.c ****   return status;
 149:Middlewares/ST/STM32_USB_Host_Library/Core/Src/usbh_ctlreq.c **** }
 150:Middlewares/ST/STM32_USB_Host_Library/Core/Src/usbh_ctlreq.c **** 
 151:Middlewares/ST/STM32_USB_Host_Library/Core/Src/usbh_ctlreq.c **** 
 152:Middlewares/ST/STM32_USB_Host_Library/Core/Src/usbh_ctlreq.c **** /**
 153:Middlewares/ST/STM32_USB_Host_Library/Core/Src/usbh_ctlreq.c ****   * @brief  USBH_Get_StringDesc
 154:Middlewares/ST/STM32_USB_Host_Library/Core/Src/usbh_ctlreq.c ****   *         Issues string Descriptor command to the device. Once the response
 155:Middlewares/ST/STM32_USB_Host_Library/Core/Src/usbh_ctlreq.c ****   *         received, it parses the string descriptor and updates the status.
 156:Middlewares/ST/STM32_USB_Host_Library/Core/Src/usbh_ctlreq.c ****   * @param  phost: Host Handle
 157:Middlewares/ST/STM32_USB_Host_Library/Core/Src/usbh_ctlreq.c ****   * @param  string_index: String index for the descriptor
 158:Middlewares/ST/STM32_USB_Host_Library/Core/Src/usbh_ctlreq.c ****   * @param  buff: Buffer address for the descriptor
 159:Middlewares/ST/STM32_USB_Host_Library/Core/Src/usbh_ctlreq.c ****   * @param  length: Length of the descriptor
 160:Middlewares/ST/STM32_USB_Host_Library/Core/Src/usbh_ctlreq.c ****   * @retval USBH Status
 161:Middlewares/ST/STM32_USB_Host_Library/Core/Src/usbh_ctlreq.c ****   */
 162:Middlewares/ST/STM32_USB_Host_Library/Core/Src/usbh_ctlreq.c **** USBH_StatusTypeDef USBH_Get_StringDesc(USBH_HandleTypeDef *phost,
 163:Middlewares/ST/STM32_USB_Host_Library/Core/Src/usbh_ctlreq.c ****                                        uint8_t string_index, uint8_t *buff,
 164:Middlewares/ST/STM32_USB_Host_Library/Core/Src/usbh_ctlreq.c ****                                        uint16_t length)
 165:Middlewares/ST/STM32_USB_Host_Library/Core/Src/usbh_ctlreq.c **** {
 166:Middlewares/ST/STM32_USB_Host_Library/Core/Src/usbh_ctlreq.c ****   USBH_StatusTypeDef status;
 167:Middlewares/ST/STM32_USB_Host_Library/Core/Src/usbh_ctlreq.c **** 
 168:Middlewares/ST/STM32_USB_Host_Library/Core/Src/usbh_ctlreq.c ****   status = USBH_GetDescriptor(phost,
 169:Middlewares/ST/STM32_USB_Host_Library/Core/Src/usbh_ctlreq.c ****                               USB_REQ_RECIPIENT_DEVICE | USB_REQ_TYPE_STANDARD,
 170:Middlewares/ST/STM32_USB_Host_Library/Core/Src/usbh_ctlreq.c ****                               USB_DESC_STRING | string_index,
 171:Middlewares/ST/STM32_USB_Host_Library/Core/Src/usbh_ctlreq.c ****                               phost->device.Data, length);
 172:Middlewares/ST/STM32_USB_Host_Library/Core/Src/usbh_ctlreq.c **** 
 173:Middlewares/ST/STM32_USB_Host_Library/Core/Src/usbh_ctlreq.c ****   if (status == USBH_OK)
 174:Middlewares/ST/STM32_USB_Host_Library/Core/Src/usbh_ctlreq.c ****   {
 175:Middlewares/ST/STM32_USB_Host_Library/Core/Src/usbh_ctlreq.c ****     /* Commands successfully sent and Response Received  */
 176:Middlewares/ST/STM32_USB_Host_Library/Core/Src/usbh_ctlreq.c ****     USBH_ParseStringDesc(phost->device.Data, buff, length);
 177:Middlewares/ST/STM32_USB_Host_Library/Core/Src/usbh_ctlreq.c ****   }
 178:Middlewares/ST/STM32_USB_Host_Library/Core/Src/usbh_ctlreq.c **** 
 179:Middlewares/ST/STM32_USB_Host_Library/Core/Src/usbh_ctlreq.c ****   return status;
 180:Middlewares/ST/STM32_USB_Host_Library/Core/Src/usbh_ctlreq.c **** }
 181:Middlewares/ST/STM32_USB_Host_Library/Core/Src/usbh_ctlreq.c **** 
 182:Middlewares/ST/STM32_USB_Host_Library/Core/Src/usbh_ctlreq.c **** 
 183:Middlewares/ST/STM32_USB_Host_Library/Core/Src/usbh_ctlreq.c **** /**
 184:Middlewares/ST/STM32_USB_Host_Library/Core/Src/usbh_ctlreq.c ****   * @brief  USBH_GetDescriptor
 185:Middlewares/ST/STM32_USB_Host_Library/Core/Src/usbh_ctlreq.c ****   *         Issues Descriptor command to the device. Once the response received,
 186:Middlewares/ST/STM32_USB_Host_Library/Core/Src/usbh_ctlreq.c ****   *         it parses the descriptor and updates the status.
 187:Middlewares/ST/STM32_USB_Host_Library/Core/Src/usbh_ctlreq.c ****   * @param  phost: Host Handle
 188:Middlewares/ST/STM32_USB_Host_Library/Core/Src/usbh_ctlreq.c ****   * @param  req_type: Descriptor type
 189:Middlewares/ST/STM32_USB_Host_Library/Core/Src/usbh_ctlreq.c ****   * @param  value_idx: Value for the GetDescriptr request
 190:Middlewares/ST/STM32_USB_Host_Library/Core/Src/usbh_ctlreq.c ****   * @param  buff: Buffer to store the descriptor
 191:Middlewares/ST/STM32_USB_Host_Library/Core/Src/usbh_ctlreq.c ****   * @param  length: Length of the descriptor
 192:Middlewares/ST/STM32_USB_Host_Library/Core/Src/usbh_ctlreq.c ****   * @retval USBH Status
 193:Middlewares/ST/STM32_USB_Host_Library/Core/Src/usbh_ctlreq.c ****   */
 194:Middlewares/ST/STM32_USB_Host_Library/Core/Src/usbh_ctlreq.c **** USBH_StatusTypeDef USBH_GetDescriptor(USBH_HandleTypeDef *phost,
 195:Middlewares/ST/STM32_USB_Host_Library/Core/Src/usbh_ctlreq.c ****                                       uint8_t  req_type,
 196:Middlewares/ST/STM32_USB_Host_Library/Core/Src/usbh_ctlreq.c ****                                       uint16_t value_idx,
 197:Middlewares/ST/STM32_USB_Host_Library/Core/Src/usbh_ctlreq.c ****                                       uint8_t *buff,
 198:Middlewares/ST/STM32_USB_Host_Library/Core/Src/usbh_ctlreq.c ****                                       uint16_t length)
 199:Middlewares/ST/STM32_USB_Host_Library/Core/Src/usbh_ctlreq.c **** {
 200:Middlewares/ST/STM32_USB_Host_Library/Core/Src/usbh_ctlreq.c ****   if (phost->RequestState == CMD_SEND)
 201:Middlewares/ST/STM32_USB_Host_Library/Core/Src/usbh_ctlreq.c ****   {
ARM GAS  C:\Users\stefa\AppData\Local\Temp\ccf1pQEx.s 			page 5


 202:Middlewares/ST/STM32_USB_Host_Library/Core/Src/usbh_ctlreq.c ****     phost->Control.setup.b.bmRequestType = USB_D2H | req_type;
 203:Middlewares/ST/STM32_USB_Host_Library/Core/Src/usbh_ctlreq.c ****     phost->Control.setup.b.bRequest = USB_REQ_GET_DESCRIPTOR;
 204:Middlewares/ST/STM32_USB_Host_Library/Core/Src/usbh_ctlreq.c ****     phost->Control.setup.b.wValue.w = value_idx;
 205:Middlewares/ST/STM32_USB_Host_Library/Core/Src/usbh_ctlreq.c **** 
 206:Middlewares/ST/STM32_USB_Host_Library/Core/Src/usbh_ctlreq.c ****     if ((value_idx & 0xff00U) == USB_DESC_STRING)
 207:Middlewares/ST/STM32_USB_Host_Library/Core/Src/usbh_ctlreq.c ****     {
 208:Middlewares/ST/STM32_USB_Host_Library/Core/Src/usbh_ctlreq.c ****       phost->Control.setup.b.wIndex.w = 0x0409U;
 209:Middlewares/ST/STM32_USB_Host_Library/Core/Src/usbh_ctlreq.c ****     }
 210:Middlewares/ST/STM32_USB_Host_Library/Core/Src/usbh_ctlreq.c ****     else
 211:Middlewares/ST/STM32_USB_Host_Library/Core/Src/usbh_ctlreq.c ****     {
 212:Middlewares/ST/STM32_USB_Host_Library/Core/Src/usbh_ctlreq.c ****       phost->Control.setup.b.wIndex.w = 0U;
 213:Middlewares/ST/STM32_USB_Host_Library/Core/Src/usbh_ctlreq.c ****     }
 214:Middlewares/ST/STM32_USB_Host_Library/Core/Src/usbh_ctlreq.c ****     phost->Control.setup.b.wLength.w = length;
 215:Middlewares/ST/STM32_USB_Host_Library/Core/Src/usbh_ctlreq.c ****   }
 216:Middlewares/ST/STM32_USB_Host_Library/Core/Src/usbh_ctlreq.c **** 
 217:Middlewares/ST/STM32_USB_Host_Library/Core/Src/usbh_ctlreq.c ****   return USBH_CtlReq(phost, buff, length);
 218:Middlewares/ST/STM32_USB_Host_Library/Core/Src/usbh_ctlreq.c **** }
 219:Middlewares/ST/STM32_USB_Host_Library/Core/Src/usbh_ctlreq.c **** 
 220:Middlewares/ST/STM32_USB_Host_Library/Core/Src/usbh_ctlreq.c **** 
 221:Middlewares/ST/STM32_USB_Host_Library/Core/Src/usbh_ctlreq.c **** /**
 222:Middlewares/ST/STM32_USB_Host_Library/Core/Src/usbh_ctlreq.c ****   * @brief  USBH_SetAddress
 223:Middlewares/ST/STM32_USB_Host_Library/Core/Src/usbh_ctlreq.c ****   *         This command sets the address to the connected device
 224:Middlewares/ST/STM32_USB_Host_Library/Core/Src/usbh_ctlreq.c ****   * @param  phost: Host Handle
 225:Middlewares/ST/STM32_USB_Host_Library/Core/Src/usbh_ctlreq.c ****   * @param  DeviceAddress: Device address to assign
 226:Middlewares/ST/STM32_USB_Host_Library/Core/Src/usbh_ctlreq.c ****   * @retval USBH Status
 227:Middlewares/ST/STM32_USB_Host_Library/Core/Src/usbh_ctlreq.c ****   */
 228:Middlewares/ST/STM32_USB_Host_Library/Core/Src/usbh_ctlreq.c **** USBH_StatusTypeDef USBH_SetAddress(USBH_HandleTypeDef *phost,
 229:Middlewares/ST/STM32_USB_Host_Library/Core/Src/usbh_ctlreq.c ****                                    uint8_t DeviceAddress)
 230:Middlewares/ST/STM32_USB_Host_Library/Core/Src/usbh_ctlreq.c **** {
 231:Middlewares/ST/STM32_USB_Host_Library/Core/Src/usbh_ctlreq.c ****   if (phost->RequestState == CMD_SEND)
 232:Middlewares/ST/STM32_USB_Host_Library/Core/Src/usbh_ctlreq.c ****   {
 233:Middlewares/ST/STM32_USB_Host_Library/Core/Src/usbh_ctlreq.c ****     phost->Control.setup.b.bmRequestType = USB_H2D | USB_REQ_RECIPIENT_DEVICE | \
 234:Middlewares/ST/STM32_USB_Host_Library/Core/Src/usbh_ctlreq.c ****                                            USB_REQ_TYPE_STANDARD;
 235:Middlewares/ST/STM32_USB_Host_Library/Core/Src/usbh_ctlreq.c **** 
 236:Middlewares/ST/STM32_USB_Host_Library/Core/Src/usbh_ctlreq.c ****     phost->Control.setup.b.bRequest = USB_REQ_SET_ADDRESS;
 237:Middlewares/ST/STM32_USB_Host_Library/Core/Src/usbh_ctlreq.c **** 
 238:Middlewares/ST/STM32_USB_Host_Library/Core/Src/usbh_ctlreq.c ****     phost->Control.setup.b.wValue.w = (uint16_t)DeviceAddress;
 239:Middlewares/ST/STM32_USB_Host_Library/Core/Src/usbh_ctlreq.c ****     phost->Control.setup.b.wIndex.w = 0U;
 240:Middlewares/ST/STM32_USB_Host_Library/Core/Src/usbh_ctlreq.c ****     phost->Control.setup.b.wLength.w = 0U;
 241:Middlewares/ST/STM32_USB_Host_Library/Core/Src/usbh_ctlreq.c ****   }
 242:Middlewares/ST/STM32_USB_Host_Library/Core/Src/usbh_ctlreq.c **** 
 243:Middlewares/ST/STM32_USB_Host_Library/Core/Src/usbh_ctlreq.c ****   return USBH_CtlReq(phost, NULL, 0U);
 244:Middlewares/ST/STM32_USB_Host_Library/Core/Src/usbh_ctlreq.c **** }
 245:Middlewares/ST/STM32_USB_Host_Library/Core/Src/usbh_ctlreq.c **** 
 246:Middlewares/ST/STM32_USB_Host_Library/Core/Src/usbh_ctlreq.c **** 
 247:Middlewares/ST/STM32_USB_Host_Library/Core/Src/usbh_ctlreq.c **** /**
 248:Middlewares/ST/STM32_USB_Host_Library/Core/Src/usbh_ctlreq.c ****   * @brief  USBH_SetCfg
 249:Middlewares/ST/STM32_USB_Host_Library/Core/Src/usbh_ctlreq.c ****   *         The command sets the configuration value to the connected device
 250:Middlewares/ST/STM32_USB_Host_Library/Core/Src/usbh_ctlreq.c ****   * @param  phost: Host Handle
 251:Middlewares/ST/STM32_USB_Host_Library/Core/Src/usbh_ctlreq.c ****   * @param  cfg_idx: Configuration value
 252:Middlewares/ST/STM32_USB_Host_Library/Core/Src/usbh_ctlreq.c ****   * @retval USBH Status
 253:Middlewares/ST/STM32_USB_Host_Library/Core/Src/usbh_ctlreq.c ****   */
 254:Middlewares/ST/STM32_USB_Host_Library/Core/Src/usbh_ctlreq.c **** USBH_StatusTypeDef USBH_SetCfg(USBH_HandleTypeDef *phost, uint16_t cfg_idx)
 255:Middlewares/ST/STM32_USB_Host_Library/Core/Src/usbh_ctlreq.c **** {
 256:Middlewares/ST/STM32_USB_Host_Library/Core/Src/usbh_ctlreq.c ****   if (phost->RequestState == CMD_SEND)
 257:Middlewares/ST/STM32_USB_Host_Library/Core/Src/usbh_ctlreq.c ****   {
 258:Middlewares/ST/STM32_USB_Host_Library/Core/Src/usbh_ctlreq.c ****     phost->Control.setup.b.bmRequestType = USB_H2D | USB_REQ_RECIPIENT_DEVICE
ARM GAS  C:\Users\stefa\AppData\Local\Temp\ccf1pQEx.s 			page 6


 259:Middlewares/ST/STM32_USB_Host_Library/Core/Src/usbh_ctlreq.c ****                                            | USB_REQ_TYPE_STANDARD;
 260:Middlewares/ST/STM32_USB_Host_Library/Core/Src/usbh_ctlreq.c **** 
 261:Middlewares/ST/STM32_USB_Host_Library/Core/Src/usbh_ctlreq.c ****     phost->Control.setup.b.bRequest = USB_REQ_SET_CONFIGURATION;
 262:Middlewares/ST/STM32_USB_Host_Library/Core/Src/usbh_ctlreq.c ****     phost->Control.setup.b.wValue.w = cfg_idx;
 263:Middlewares/ST/STM32_USB_Host_Library/Core/Src/usbh_ctlreq.c ****     phost->Control.setup.b.wIndex.w = 0U;
 264:Middlewares/ST/STM32_USB_Host_Library/Core/Src/usbh_ctlreq.c ****     phost->Control.setup.b.wLength.w = 0U;
 265:Middlewares/ST/STM32_USB_Host_Library/Core/Src/usbh_ctlreq.c ****   }
 266:Middlewares/ST/STM32_USB_Host_Library/Core/Src/usbh_ctlreq.c **** 
 267:Middlewares/ST/STM32_USB_Host_Library/Core/Src/usbh_ctlreq.c ****   return USBH_CtlReq(phost, NULL, 0U);
 268:Middlewares/ST/STM32_USB_Host_Library/Core/Src/usbh_ctlreq.c **** }
 269:Middlewares/ST/STM32_USB_Host_Library/Core/Src/usbh_ctlreq.c **** 
 270:Middlewares/ST/STM32_USB_Host_Library/Core/Src/usbh_ctlreq.c **** 
 271:Middlewares/ST/STM32_USB_Host_Library/Core/Src/usbh_ctlreq.c **** /**
 272:Middlewares/ST/STM32_USB_Host_Library/Core/Src/usbh_ctlreq.c ****   * @brief  USBH_SetInterface
 273:Middlewares/ST/STM32_USB_Host_Library/Core/Src/usbh_ctlreq.c ****   *         The command sets the Interface value to the connected device
 274:Middlewares/ST/STM32_USB_Host_Library/Core/Src/usbh_ctlreq.c ****   * @param  phost: Host Handle
 275:Middlewares/ST/STM32_USB_Host_Library/Core/Src/usbh_ctlreq.c ****   * @param  altSetting: Interface value
 276:Middlewares/ST/STM32_USB_Host_Library/Core/Src/usbh_ctlreq.c ****   * @retval USBH Status
 277:Middlewares/ST/STM32_USB_Host_Library/Core/Src/usbh_ctlreq.c ****   */
 278:Middlewares/ST/STM32_USB_Host_Library/Core/Src/usbh_ctlreq.c **** USBH_StatusTypeDef USBH_SetInterface(USBH_HandleTypeDef *phost, uint8_t ep_num,
 279:Middlewares/ST/STM32_USB_Host_Library/Core/Src/usbh_ctlreq.c ****                                      uint8_t altSetting)
 280:Middlewares/ST/STM32_USB_Host_Library/Core/Src/usbh_ctlreq.c **** {
 281:Middlewares/ST/STM32_USB_Host_Library/Core/Src/usbh_ctlreq.c ****   if (phost->RequestState == CMD_SEND)
 282:Middlewares/ST/STM32_USB_Host_Library/Core/Src/usbh_ctlreq.c ****   {
 283:Middlewares/ST/STM32_USB_Host_Library/Core/Src/usbh_ctlreq.c ****     phost->Control.setup.b.bmRequestType = USB_H2D | USB_REQ_RECIPIENT_INTERFACE
 284:Middlewares/ST/STM32_USB_Host_Library/Core/Src/usbh_ctlreq.c ****                                            | USB_REQ_TYPE_STANDARD;
 285:Middlewares/ST/STM32_USB_Host_Library/Core/Src/usbh_ctlreq.c **** 
 286:Middlewares/ST/STM32_USB_Host_Library/Core/Src/usbh_ctlreq.c ****     phost->Control.setup.b.bRequest = USB_REQ_SET_INTERFACE;
 287:Middlewares/ST/STM32_USB_Host_Library/Core/Src/usbh_ctlreq.c ****     phost->Control.setup.b.wValue.w = altSetting;
 288:Middlewares/ST/STM32_USB_Host_Library/Core/Src/usbh_ctlreq.c ****     phost->Control.setup.b.wIndex.w = ep_num;
 289:Middlewares/ST/STM32_USB_Host_Library/Core/Src/usbh_ctlreq.c ****     phost->Control.setup.b.wLength.w = 0U;
 290:Middlewares/ST/STM32_USB_Host_Library/Core/Src/usbh_ctlreq.c ****   }
 291:Middlewares/ST/STM32_USB_Host_Library/Core/Src/usbh_ctlreq.c **** 
 292:Middlewares/ST/STM32_USB_Host_Library/Core/Src/usbh_ctlreq.c ****   return USBH_CtlReq(phost, NULL, 0U);
 293:Middlewares/ST/STM32_USB_Host_Library/Core/Src/usbh_ctlreq.c **** }
 294:Middlewares/ST/STM32_USB_Host_Library/Core/Src/usbh_ctlreq.c **** 
 295:Middlewares/ST/STM32_USB_Host_Library/Core/Src/usbh_ctlreq.c **** 
 296:Middlewares/ST/STM32_USB_Host_Library/Core/Src/usbh_ctlreq.c **** /**
 297:Middlewares/ST/STM32_USB_Host_Library/Core/Src/usbh_ctlreq.c ****   * @brief  USBH_SetFeature
 298:Middlewares/ST/STM32_USB_Host_Library/Core/Src/usbh_ctlreq.c ****   *         The command sets the device features (remote wakeup feature,..)
 299:Middlewares/ST/STM32_USB_Host_Library/Core/Src/usbh_ctlreq.c ****   * @param  pdev: Selected device
 300:Middlewares/ST/STM32_USB_Host_Library/Core/Src/usbh_ctlreq.c ****   * @param  itf_idx
 301:Middlewares/ST/STM32_USB_Host_Library/Core/Src/usbh_ctlreq.c ****   * @retval Status
 302:Middlewares/ST/STM32_USB_Host_Library/Core/Src/usbh_ctlreq.c ****   */
 303:Middlewares/ST/STM32_USB_Host_Library/Core/Src/usbh_ctlreq.c **** USBH_StatusTypeDef USBH_SetFeature(USBH_HandleTypeDef *phost, uint8_t wValue)
 304:Middlewares/ST/STM32_USB_Host_Library/Core/Src/usbh_ctlreq.c **** {
 305:Middlewares/ST/STM32_USB_Host_Library/Core/Src/usbh_ctlreq.c ****   if (phost->RequestState == CMD_SEND)
 306:Middlewares/ST/STM32_USB_Host_Library/Core/Src/usbh_ctlreq.c ****   {
 307:Middlewares/ST/STM32_USB_Host_Library/Core/Src/usbh_ctlreq.c ****     phost->Control.setup.b.bmRequestType = USB_H2D | USB_REQ_RECIPIENT_DEVICE
 308:Middlewares/ST/STM32_USB_Host_Library/Core/Src/usbh_ctlreq.c ****                                            | USB_REQ_TYPE_STANDARD;
 309:Middlewares/ST/STM32_USB_Host_Library/Core/Src/usbh_ctlreq.c **** 
 310:Middlewares/ST/STM32_USB_Host_Library/Core/Src/usbh_ctlreq.c ****     phost->Control.setup.b.bRequest = USB_REQ_SET_FEATURE;
 311:Middlewares/ST/STM32_USB_Host_Library/Core/Src/usbh_ctlreq.c ****     phost->Control.setup.b.wValue.w = wValue;
 312:Middlewares/ST/STM32_USB_Host_Library/Core/Src/usbh_ctlreq.c ****     phost->Control.setup.b.wIndex.w = 0U;
 313:Middlewares/ST/STM32_USB_Host_Library/Core/Src/usbh_ctlreq.c ****     phost->Control.setup.b.wLength.w = 0U;
 314:Middlewares/ST/STM32_USB_Host_Library/Core/Src/usbh_ctlreq.c ****   }
 315:Middlewares/ST/STM32_USB_Host_Library/Core/Src/usbh_ctlreq.c **** 
ARM GAS  C:\Users\stefa\AppData\Local\Temp\ccf1pQEx.s 			page 7


 316:Middlewares/ST/STM32_USB_Host_Library/Core/Src/usbh_ctlreq.c ****   return USBH_CtlReq(phost, NULL, 0U);
 317:Middlewares/ST/STM32_USB_Host_Library/Core/Src/usbh_ctlreq.c **** }
 318:Middlewares/ST/STM32_USB_Host_Library/Core/Src/usbh_ctlreq.c **** 
 319:Middlewares/ST/STM32_USB_Host_Library/Core/Src/usbh_ctlreq.c **** 
 320:Middlewares/ST/STM32_USB_Host_Library/Core/Src/usbh_ctlreq.c **** /**
 321:Middlewares/ST/STM32_USB_Host_Library/Core/Src/usbh_ctlreq.c ****   * @brief  USBH_ClrFeature
 322:Middlewares/ST/STM32_USB_Host_Library/Core/Src/usbh_ctlreq.c ****   *         This request is used to clear or disable a specific feature.
 323:Middlewares/ST/STM32_USB_Host_Library/Core/Src/usbh_ctlreq.c ****   * @param  phost: Host Handle
 324:Middlewares/ST/STM32_USB_Host_Library/Core/Src/usbh_ctlreq.c ****   * @param  ep_num: endpoint number
 325:Middlewares/ST/STM32_USB_Host_Library/Core/Src/usbh_ctlreq.c ****   * @param  hc_num: Host channel number
 326:Middlewares/ST/STM32_USB_Host_Library/Core/Src/usbh_ctlreq.c ****   * @retval USBH Status
 327:Middlewares/ST/STM32_USB_Host_Library/Core/Src/usbh_ctlreq.c ****   */
 328:Middlewares/ST/STM32_USB_Host_Library/Core/Src/usbh_ctlreq.c **** USBH_StatusTypeDef USBH_ClrFeature(USBH_HandleTypeDef *phost, uint8_t ep_num)
 329:Middlewares/ST/STM32_USB_Host_Library/Core/Src/usbh_ctlreq.c **** {
 330:Middlewares/ST/STM32_USB_Host_Library/Core/Src/usbh_ctlreq.c ****   if (phost->RequestState == CMD_SEND)
 331:Middlewares/ST/STM32_USB_Host_Library/Core/Src/usbh_ctlreq.c ****   {
 332:Middlewares/ST/STM32_USB_Host_Library/Core/Src/usbh_ctlreq.c ****     phost->Control.setup.b.bmRequestType = USB_H2D | USB_REQ_RECIPIENT_ENDPOINT
 333:Middlewares/ST/STM32_USB_Host_Library/Core/Src/usbh_ctlreq.c ****                                            | USB_REQ_TYPE_STANDARD;
 334:Middlewares/ST/STM32_USB_Host_Library/Core/Src/usbh_ctlreq.c **** 
 335:Middlewares/ST/STM32_USB_Host_Library/Core/Src/usbh_ctlreq.c ****     phost->Control.setup.b.bRequest = USB_REQ_CLEAR_FEATURE;
 336:Middlewares/ST/STM32_USB_Host_Library/Core/Src/usbh_ctlreq.c ****     phost->Control.setup.b.wValue.w = FEATURE_SELECTOR_ENDPOINT;
 337:Middlewares/ST/STM32_USB_Host_Library/Core/Src/usbh_ctlreq.c ****     phost->Control.setup.b.wIndex.w = ep_num;
 338:Middlewares/ST/STM32_USB_Host_Library/Core/Src/usbh_ctlreq.c ****     phost->Control.setup.b.wLength.w = 0U;
 339:Middlewares/ST/STM32_USB_Host_Library/Core/Src/usbh_ctlreq.c ****   }
 340:Middlewares/ST/STM32_USB_Host_Library/Core/Src/usbh_ctlreq.c ****   return USBH_CtlReq(phost, NULL, 0U);
 341:Middlewares/ST/STM32_USB_Host_Library/Core/Src/usbh_ctlreq.c **** }
 342:Middlewares/ST/STM32_USB_Host_Library/Core/Src/usbh_ctlreq.c **** 
 343:Middlewares/ST/STM32_USB_Host_Library/Core/Src/usbh_ctlreq.c **** 
 344:Middlewares/ST/STM32_USB_Host_Library/Core/Src/usbh_ctlreq.c **** /**
 345:Middlewares/ST/STM32_USB_Host_Library/Core/Src/usbh_ctlreq.c ****   * @brief  USBH_ParseDevDesc
 346:Middlewares/ST/STM32_USB_Host_Library/Core/Src/usbh_ctlreq.c ****   *         This function Parses the device descriptor
 347:Middlewares/ST/STM32_USB_Host_Library/Core/Src/usbh_ctlreq.c ****   * @param  dev_desc: device_descriptor destination address
 348:Middlewares/ST/STM32_USB_Host_Library/Core/Src/usbh_ctlreq.c ****   * @param  buf: Buffer where the source descriptor is available
 349:Middlewares/ST/STM32_USB_Host_Library/Core/Src/usbh_ctlreq.c ****   * @param  length: Length of the descriptor
 350:Middlewares/ST/STM32_USB_Host_Library/Core/Src/usbh_ctlreq.c ****   * @retval None
 351:Middlewares/ST/STM32_USB_Host_Library/Core/Src/usbh_ctlreq.c ****   */
 352:Middlewares/ST/STM32_USB_Host_Library/Core/Src/usbh_ctlreq.c **** static void  USBH_ParseDevDesc(USBH_DevDescTypeDef *dev_desc, uint8_t *buf,
 353:Middlewares/ST/STM32_USB_Host_Library/Core/Src/usbh_ctlreq.c ****                                uint16_t length)
 354:Middlewares/ST/STM32_USB_Host_Library/Core/Src/usbh_ctlreq.c **** {
  29              		.loc 1 354 1 view -0
  30              		.cfi_startproc
  31              		@ args = 0, pretend = 0, frame = 0
  32              		@ frame_needed = 0, uses_anonymous_args = 0
  33              		@ link register save eliminated.
 355:Middlewares/ST/STM32_USB_Host_Library/Core/Src/usbh_ctlreq.c ****   dev_desc->bLength            = *(uint8_t *)(buf +  0);
  34              		.loc 1 355 3 view .LVU1
  35              		.loc 1 355 34 is_stmt 0 view .LVU2
  36 0000 0B78     		ldrb	r3, [r1]	@ zero_extendqisi2
  37              		.loc 1 355 32 view .LVU3
  38 0002 0370     		strb	r3, [r0]
 356:Middlewares/ST/STM32_USB_Host_Library/Core/Src/usbh_ctlreq.c ****   dev_desc->bDescriptorType    = *(uint8_t *)(buf +  1);
  39              		.loc 1 356 3 is_stmt 1 view .LVU4
  40              		.loc 1 356 32 is_stmt 0 view .LVU5
  41 0004 4B78     		ldrb	r3, [r1, #1]	@ zero_extendqisi2
  42 0006 4370     		strb	r3, [r0, #1]
 357:Middlewares/ST/STM32_USB_Host_Library/Core/Src/usbh_ctlreq.c ****   dev_desc->bcdUSB             = LE16(buf +  2);
  43              		.loc 1 357 3 is_stmt 1 view .LVU6
ARM GAS  C:\Users\stefa\AppData\Local\Temp\ccf1pQEx.s 			page 8


  44              		.loc 1 357 34 is_stmt 0 view .LVU7
  45 0008 8B78     		ldrb	r3, [r1, #2]	@ zero_extendqisi2
  46 000a 91F803C0 		ldrb	ip, [r1, #3]	@ zero_extendqisi2
  47 000e 43EA0C23 		orr	r3, r3, ip, lsl #8
  48              		.loc 1 357 32 view .LVU8
  49 0012 4380     		strh	r3, [r0, #2]	@ movhi
 358:Middlewares/ST/STM32_USB_Host_Library/Core/Src/usbh_ctlreq.c ****   dev_desc->bDeviceClass       = *(uint8_t *)(buf +  4);
  50              		.loc 1 358 3 is_stmt 1 view .LVU9
  51              		.loc 1 358 32 is_stmt 0 view .LVU10
  52 0014 0B79     		ldrb	r3, [r1, #4]	@ zero_extendqisi2
  53 0016 0371     		strb	r3, [r0, #4]
 359:Middlewares/ST/STM32_USB_Host_Library/Core/Src/usbh_ctlreq.c ****   dev_desc->bDeviceSubClass    = *(uint8_t *)(buf +  5);
  54              		.loc 1 359 3 is_stmt 1 view .LVU11
  55              		.loc 1 359 32 is_stmt 0 view .LVU12
  56 0018 4B79     		ldrb	r3, [r1, #5]	@ zero_extendqisi2
  57 001a 4371     		strb	r3, [r0, #5]
 360:Middlewares/ST/STM32_USB_Host_Library/Core/Src/usbh_ctlreq.c ****   dev_desc->bDeviceProtocol    = *(uint8_t *)(buf +  6);
  58              		.loc 1 360 3 is_stmt 1 view .LVU13
  59              		.loc 1 360 32 is_stmt 0 view .LVU14
  60 001c 8B79     		ldrb	r3, [r1, #6]	@ zero_extendqisi2
  61 001e 8371     		strb	r3, [r0, #6]
 361:Middlewares/ST/STM32_USB_Host_Library/Core/Src/usbh_ctlreq.c ****   dev_desc->bMaxPacketSize     = *(uint8_t *)(buf +  7);
  62              		.loc 1 361 3 is_stmt 1 view .LVU15
  63              		.loc 1 361 32 is_stmt 0 view .LVU16
  64 0020 CB79     		ldrb	r3, [r1, #7]	@ zero_extendqisi2
  65 0022 C371     		strb	r3, [r0, #7]
 362:Middlewares/ST/STM32_USB_Host_Library/Core/Src/usbh_ctlreq.c **** 
 363:Middlewares/ST/STM32_USB_Host_Library/Core/Src/usbh_ctlreq.c ****   /* Make sure that the max packet size is either 8, 16, 32, 64 or force it to 64 */
 364:Middlewares/ST/STM32_USB_Host_Library/Core/Src/usbh_ctlreq.c ****   switch (dev_desc->bMaxPacketSize)
  66              		.loc 1 364 3 is_stmt 1 view .LVU17
  67 0024 202B     		cmp	r3, #32
  68 0026 28D8     		bhi	.L2
  69 0028 082B     		cmp	r3, #8
  70 002a 0AD3     		bcc	.L3
  71 002c 083B     		subs	r3, r3, #8
  72 002e DBB2     		uxtb	r3, r3
  73 0030 4FF0010C 		mov	ip, #1
  74 0034 0CFA03F3 		lsl	r3, ip, r3
  75 0038 03F00133 		and	r3, r3, #16843009
  76 003c 23F48033 		bic	r3, r3, #65536
  77 0040 0BB9     		cbnz	r3, .L4
  78              	.L3:
 365:Middlewares/ST/STM32_USB_Host_Library/Core/Src/usbh_ctlreq.c ****   {
 366:Middlewares/ST/STM32_USB_Host_Library/Core/Src/usbh_ctlreq.c ****     case 8:
 367:Middlewares/ST/STM32_USB_Host_Library/Core/Src/usbh_ctlreq.c ****     case 16:
 368:Middlewares/ST/STM32_USB_Host_Library/Core/Src/usbh_ctlreq.c ****     case 32:
 369:Middlewares/ST/STM32_USB_Host_Library/Core/Src/usbh_ctlreq.c ****     case 64:
 370:Middlewares/ST/STM32_USB_Host_Library/Core/Src/usbh_ctlreq.c ****       dev_desc->bMaxPacketSize = dev_desc->bMaxPacketSize;
 371:Middlewares/ST/STM32_USB_Host_Library/Core/Src/usbh_ctlreq.c ****       break;
 372:Middlewares/ST/STM32_USB_Host_Library/Core/Src/usbh_ctlreq.c **** 
 373:Middlewares/ST/STM32_USB_Host_Library/Core/Src/usbh_ctlreq.c ****     default:
 374:Middlewares/ST/STM32_USB_Host_Library/Core/Src/usbh_ctlreq.c ****       /*set the size to 64 in case the device has answered with incorrect size */
 375:Middlewares/ST/STM32_USB_Host_Library/Core/Src/usbh_ctlreq.c ****       dev_desc->bMaxPacketSize = 64U;
  79              		.loc 1 375 7 view .LVU18
  80              		.loc 1 375 32 is_stmt 0 view .LVU19
  81 0042 4023     		movs	r3, #64
  82 0044 C371     		strb	r3, [r0, #7]
ARM GAS  C:\Users\stefa\AppData\Local\Temp\ccf1pQEx.s 			page 9


 376:Middlewares/ST/STM32_USB_Host_Library/Core/Src/usbh_ctlreq.c ****       break;
  83              		.loc 1 376 7 is_stmt 1 view .LVU20
  84              	.L4:
 377:Middlewares/ST/STM32_USB_Host_Library/Core/Src/usbh_ctlreq.c ****   }
 378:Middlewares/ST/STM32_USB_Host_Library/Core/Src/usbh_ctlreq.c **** 
 379:Middlewares/ST/STM32_USB_Host_Library/Core/Src/usbh_ctlreq.c ****   if (length > 8U)
  85              		.loc 1 379 3 view .LVU21
  86              		.loc 1 379 6 is_stmt 0 view .LVU22
  87 0046 082A     		cmp	r2, #8
  88 0048 16D9     		bls	.L1
 380:Middlewares/ST/STM32_USB_Host_Library/Core/Src/usbh_ctlreq.c ****   {
 381:Middlewares/ST/STM32_USB_Host_Library/Core/Src/usbh_ctlreq.c ****     /* For 1st time after device connection, Host may issue only 8 bytes for
 382:Middlewares/ST/STM32_USB_Host_Library/Core/Src/usbh_ctlreq.c ****     Device Descriptor Length  */
 383:Middlewares/ST/STM32_USB_Host_Library/Core/Src/usbh_ctlreq.c ****     dev_desc->idVendor           = LE16(buf +  8);
  89              		.loc 1 383 5 is_stmt 1 view .LVU23
  90              		.loc 1 383 36 is_stmt 0 view .LVU24
  91 004a 0B7A     		ldrb	r3, [r1, #8]	@ zero_extendqisi2
  92 004c 4A7A     		ldrb	r2, [r1, #9]	@ zero_extendqisi2
  93              	.LVL1:
  94              		.loc 1 383 36 view .LVU25
  95 004e 43EA0223 		orr	r3, r3, r2, lsl #8
  96              		.loc 1 383 34 view .LVU26
  97 0052 0381     		strh	r3, [r0, #8]	@ movhi
 384:Middlewares/ST/STM32_USB_Host_Library/Core/Src/usbh_ctlreq.c ****     dev_desc->idProduct          = LE16(buf + 10);
  98              		.loc 1 384 5 is_stmt 1 view .LVU27
  99              		.loc 1 384 36 is_stmt 0 view .LVU28
 100 0054 8B7A     		ldrb	r3, [r1, #10]	@ zero_extendqisi2
 101 0056 CA7A     		ldrb	r2, [r1, #11]	@ zero_extendqisi2
 102 0058 43EA0223 		orr	r3, r3, r2, lsl #8
 103              		.loc 1 384 34 view .LVU29
 104 005c 4381     		strh	r3, [r0, #10]	@ movhi
 385:Middlewares/ST/STM32_USB_Host_Library/Core/Src/usbh_ctlreq.c ****     dev_desc->bcdDevice          = LE16(buf + 12);
 105              		.loc 1 385 5 is_stmt 1 view .LVU30
 106              		.loc 1 385 36 is_stmt 0 view .LVU31
 107 005e 0B7B     		ldrb	r3, [r1, #12]	@ zero_extendqisi2
 108 0060 4A7B     		ldrb	r2, [r1, #13]	@ zero_extendqisi2
 109 0062 43EA0223 		orr	r3, r3, r2, lsl #8
 110              		.loc 1 385 34 view .LVU32
 111 0066 8381     		strh	r3, [r0, #12]	@ movhi
 386:Middlewares/ST/STM32_USB_Host_Library/Core/Src/usbh_ctlreq.c ****     dev_desc->iManufacturer      = *(uint8_t *)(buf + 14);
 112              		.loc 1 386 5 is_stmt 1 view .LVU33
 113              		.loc 1 386 34 is_stmt 0 view .LVU34
 114 0068 8B7B     		ldrb	r3, [r1, #14]	@ zero_extendqisi2
 115 006a 8373     		strb	r3, [r0, #14]
 387:Middlewares/ST/STM32_USB_Host_Library/Core/Src/usbh_ctlreq.c ****     dev_desc->iProduct           = *(uint8_t *)(buf + 15);
 116              		.loc 1 387 5 is_stmt 1 view .LVU35
 117              		.loc 1 387 34 is_stmt 0 view .LVU36
 118 006c CB7B     		ldrb	r3, [r1, #15]	@ zero_extendqisi2
 119 006e C373     		strb	r3, [r0, #15]
 388:Middlewares/ST/STM32_USB_Host_Library/Core/Src/usbh_ctlreq.c ****     dev_desc->iSerialNumber      = *(uint8_t *)(buf + 16);
 120              		.loc 1 388 5 is_stmt 1 view .LVU37
 121              		.loc 1 388 34 is_stmt 0 view .LVU38
 122 0070 0B7C     		ldrb	r3, [r1, #16]	@ zero_extendqisi2
 123 0072 0374     		strb	r3, [r0, #16]
 389:Middlewares/ST/STM32_USB_Host_Library/Core/Src/usbh_ctlreq.c ****     dev_desc->bNumConfigurations = *(uint8_t *)(buf + 17);
 124              		.loc 1 389 5 is_stmt 1 view .LVU39
 125              		.loc 1 389 34 is_stmt 0 view .LVU40
ARM GAS  C:\Users\stefa\AppData\Local\Temp\ccf1pQEx.s 			page 10


 126 0074 4B7C     		ldrb	r3, [r1, #17]	@ zero_extendqisi2
 127 0076 4374     		strb	r3, [r0, #17]
 128              	.L1:
 390:Middlewares/ST/STM32_USB_Host_Library/Core/Src/usbh_ctlreq.c ****   }
 391:Middlewares/ST/STM32_USB_Host_Library/Core/Src/usbh_ctlreq.c **** }
 129              		.loc 1 391 1 view .LVU41
 130 0078 7047     		bx	lr
 131              	.LVL2:
 132              	.L2:
 364:Middlewares/ST/STM32_USB_Host_Library/Core/Src/usbh_ctlreq.c ****   {
 133              		.loc 1 364 3 view .LVU42
 134 007a 402B     		cmp	r3, #64
 135 007c E1D1     		bne	.L3
 136 007e E2E7     		b	.L4
 137              		.cfi_endproc
 138              	.LFE142:
 140              		.section	.text.USBH_ParseInterfaceDesc,"ax",%progbits
 141              		.align	1
 142              		.syntax unified
 143              		.thumb
 144              		.thumb_func
 146              	USBH_ParseInterfaceDesc:
 147              	.LVL3:
 148              	.LFB144:
 392:Middlewares/ST/STM32_USB_Host_Library/Core/Src/usbh_ctlreq.c **** 
 393:Middlewares/ST/STM32_USB_Host_Library/Core/Src/usbh_ctlreq.c **** 
 394:Middlewares/ST/STM32_USB_Host_Library/Core/Src/usbh_ctlreq.c **** /**
 395:Middlewares/ST/STM32_USB_Host_Library/Core/Src/usbh_ctlreq.c ****   * @brief  USBH_ParseCfgDesc
 396:Middlewares/ST/STM32_USB_Host_Library/Core/Src/usbh_ctlreq.c ****   *         This function Parses the configuration descriptor
 397:Middlewares/ST/STM32_USB_Host_Library/Core/Src/usbh_ctlreq.c ****   * @param  phost: USB Host handler
 398:Middlewares/ST/STM32_USB_Host_Library/Core/Src/usbh_ctlreq.c ****   * @param  buf: Buffer where the source descriptor is available
 399:Middlewares/ST/STM32_USB_Host_Library/Core/Src/usbh_ctlreq.c ****   * @param  length: Length of the descriptor
 400:Middlewares/ST/STM32_USB_Host_Library/Core/Src/usbh_ctlreq.c ****   * @retval USBH statuse
 401:Middlewares/ST/STM32_USB_Host_Library/Core/Src/usbh_ctlreq.c ****   */
 402:Middlewares/ST/STM32_USB_Host_Library/Core/Src/usbh_ctlreq.c **** static USBH_StatusTypeDef USBH_ParseCfgDesc(USBH_HandleTypeDef *phost, uint8_t *buf, uint16_t lengt
 403:Middlewares/ST/STM32_USB_Host_Library/Core/Src/usbh_ctlreq.c **** {
 404:Middlewares/ST/STM32_USB_Host_Library/Core/Src/usbh_ctlreq.c ****   USBH_CfgDescTypeDef *cfg_desc = &phost->device.CfgDesc;
 405:Middlewares/ST/STM32_USB_Host_Library/Core/Src/usbh_ctlreq.c ****   USBH_StatusTypeDef           status = USBH_OK;
 406:Middlewares/ST/STM32_USB_Host_Library/Core/Src/usbh_ctlreq.c ****   USBH_InterfaceDescTypeDef    *pif ;
 407:Middlewares/ST/STM32_USB_Host_Library/Core/Src/usbh_ctlreq.c ****   USBH_EpDescTypeDef           *pep;
 408:Middlewares/ST/STM32_USB_Host_Library/Core/Src/usbh_ctlreq.c ****   USBH_DescHeader_t            *pdesc = (USBH_DescHeader_t *)(void *)buf;
 409:Middlewares/ST/STM32_USB_Host_Library/Core/Src/usbh_ctlreq.c ****   uint16_t                     ptr;
 410:Middlewares/ST/STM32_USB_Host_Library/Core/Src/usbh_ctlreq.c ****   uint8_t                      if_ix = 0U;
 411:Middlewares/ST/STM32_USB_Host_Library/Core/Src/usbh_ctlreq.c ****   uint8_t                      ep_ix = 0U;
 412:Middlewares/ST/STM32_USB_Host_Library/Core/Src/usbh_ctlreq.c **** 
 413:Middlewares/ST/STM32_USB_Host_Library/Core/Src/usbh_ctlreq.c ****   pdesc   = (USBH_DescHeader_t *)(void *)buf;
 414:Middlewares/ST/STM32_USB_Host_Library/Core/Src/usbh_ctlreq.c **** 
 415:Middlewares/ST/STM32_USB_Host_Library/Core/Src/usbh_ctlreq.c ****   /* Parse configuration descriptor */
 416:Middlewares/ST/STM32_USB_Host_Library/Core/Src/usbh_ctlreq.c ****   cfg_desc->bLength             = *(uint8_t *)(buf + 0);
 417:Middlewares/ST/STM32_USB_Host_Library/Core/Src/usbh_ctlreq.c ****   cfg_desc->bDescriptorType     = *(uint8_t *)(buf + 1);
 418:Middlewares/ST/STM32_USB_Host_Library/Core/Src/usbh_ctlreq.c ****   cfg_desc->wTotalLength        = MIN(((uint16_t) LE16(buf + 2)), ((uint16_t)USBH_MAX_SIZE_CONFIGUR
 419:Middlewares/ST/STM32_USB_Host_Library/Core/Src/usbh_ctlreq.c ****   cfg_desc->bNumInterfaces      = *(uint8_t *)(buf + 4);
 420:Middlewares/ST/STM32_USB_Host_Library/Core/Src/usbh_ctlreq.c ****   cfg_desc->bConfigurationValue = *(uint8_t *)(buf + 5);
 421:Middlewares/ST/STM32_USB_Host_Library/Core/Src/usbh_ctlreq.c ****   cfg_desc->iConfiguration      = *(uint8_t *)(buf + 6);
 422:Middlewares/ST/STM32_USB_Host_Library/Core/Src/usbh_ctlreq.c ****   cfg_desc->bmAttributes        = *(uint8_t *)(buf + 7);
 423:Middlewares/ST/STM32_USB_Host_Library/Core/Src/usbh_ctlreq.c ****   cfg_desc->bMaxPower           = *(uint8_t *)(buf + 8);
 424:Middlewares/ST/STM32_USB_Host_Library/Core/Src/usbh_ctlreq.c **** 
ARM GAS  C:\Users\stefa\AppData\Local\Temp\ccf1pQEx.s 			page 11


 425:Middlewares/ST/STM32_USB_Host_Library/Core/Src/usbh_ctlreq.c ****   /* Make sure that the Confguration descriptor's bLength is equal to USB_CONFIGURATION_DESC_SIZE *
 426:Middlewares/ST/STM32_USB_Host_Library/Core/Src/usbh_ctlreq.c ****   if (cfg_desc->bLength  != USB_CONFIGURATION_DESC_SIZE)
 427:Middlewares/ST/STM32_USB_Host_Library/Core/Src/usbh_ctlreq.c ****   {
 428:Middlewares/ST/STM32_USB_Host_Library/Core/Src/usbh_ctlreq.c ****     cfg_desc->bLength = USB_CONFIGURATION_DESC_SIZE;
 429:Middlewares/ST/STM32_USB_Host_Library/Core/Src/usbh_ctlreq.c ****   }
 430:Middlewares/ST/STM32_USB_Host_Library/Core/Src/usbh_ctlreq.c **** 
 431:Middlewares/ST/STM32_USB_Host_Library/Core/Src/usbh_ctlreq.c ****   if (length > USB_CONFIGURATION_DESC_SIZE)
 432:Middlewares/ST/STM32_USB_Host_Library/Core/Src/usbh_ctlreq.c ****   {
 433:Middlewares/ST/STM32_USB_Host_Library/Core/Src/usbh_ctlreq.c ****     ptr = USB_LEN_CFG_DESC;
 434:Middlewares/ST/STM32_USB_Host_Library/Core/Src/usbh_ctlreq.c ****     pif = (USBH_InterfaceDescTypeDef *)NULL;
 435:Middlewares/ST/STM32_USB_Host_Library/Core/Src/usbh_ctlreq.c **** 
 436:Middlewares/ST/STM32_USB_Host_Library/Core/Src/usbh_ctlreq.c ****     while ((if_ix < USBH_MAX_NUM_INTERFACES) && (ptr < cfg_desc->wTotalLength))
 437:Middlewares/ST/STM32_USB_Host_Library/Core/Src/usbh_ctlreq.c ****     {
 438:Middlewares/ST/STM32_USB_Host_Library/Core/Src/usbh_ctlreq.c ****       pdesc = USBH_GetNextDesc((uint8_t *)(void *)pdesc, &ptr);
 439:Middlewares/ST/STM32_USB_Host_Library/Core/Src/usbh_ctlreq.c ****       if (pdesc->bDescriptorType == USB_DESC_TYPE_INTERFACE)
 440:Middlewares/ST/STM32_USB_Host_Library/Core/Src/usbh_ctlreq.c ****       {
 441:Middlewares/ST/STM32_USB_Host_Library/Core/Src/usbh_ctlreq.c ****         /* Make sure that the interface descriptor's bLength is equal to USB_INTERFACE_DESC_SIZE */
 442:Middlewares/ST/STM32_USB_Host_Library/Core/Src/usbh_ctlreq.c ****         if (pdesc->bLength != USB_INTERFACE_DESC_SIZE)
 443:Middlewares/ST/STM32_USB_Host_Library/Core/Src/usbh_ctlreq.c ****         {
 444:Middlewares/ST/STM32_USB_Host_Library/Core/Src/usbh_ctlreq.c ****           pdesc->bLength = USB_INTERFACE_DESC_SIZE;
 445:Middlewares/ST/STM32_USB_Host_Library/Core/Src/usbh_ctlreq.c ****         }
 446:Middlewares/ST/STM32_USB_Host_Library/Core/Src/usbh_ctlreq.c **** 
 447:Middlewares/ST/STM32_USB_Host_Library/Core/Src/usbh_ctlreq.c ****         pif = &cfg_desc->Itf_Desc[if_ix];
 448:Middlewares/ST/STM32_USB_Host_Library/Core/Src/usbh_ctlreq.c ****         USBH_ParseInterfaceDesc(pif, (uint8_t *)(void *)pdesc);
 449:Middlewares/ST/STM32_USB_Host_Library/Core/Src/usbh_ctlreq.c **** 
 450:Middlewares/ST/STM32_USB_Host_Library/Core/Src/usbh_ctlreq.c ****         ep_ix = 0U;
 451:Middlewares/ST/STM32_USB_Host_Library/Core/Src/usbh_ctlreq.c ****         pep = (USBH_EpDescTypeDef *)NULL;
 452:Middlewares/ST/STM32_USB_Host_Library/Core/Src/usbh_ctlreq.c **** 
 453:Middlewares/ST/STM32_USB_Host_Library/Core/Src/usbh_ctlreq.c ****         while ((ep_ix < pif->bNumEndpoints) && (ptr < cfg_desc->wTotalLength))
 454:Middlewares/ST/STM32_USB_Host_Library/Core/Src/usbh_ctlreq.c ****         {
 455:Middlewares/ST/STM32_USB_Host_Library/Core/Src/usbh_ctlreq.c ****           pdesc = USBH_GetNextDesc((uint8_t *)(void *)pdesc, &ptr);
 456:Middlewares/ST/STM32_USB_Host_Library/Core/Src/usbh_ctlreq.c **** 
 457:Middlewares/ST/STM32_USB_Host_Library/Core/Src/usbh_ctlreq.c ****           if (pdesc->bDescriptorType == USB_DESC_TYPE_ENDPOINT)
 458:Middlewares/ST/STM32_USB_Host_Library/Core/Src/usbh_ctlreq.c ****           {
 459:Middlewares/ST/STM32_USB_Host_Library/Core/Src/usbh_ctlreq.c ****             /* Check if the endpoint is appartening to an audio streaming interface */
 460:Middlewares/ST/STM32_USB_Host_Library/Core/Src/usbh_ctlreq.c ****             if ((pif->bInterfaceClass == 0x01U) && (pif->bInterfaceSubClass == 0x02U))
 461:Middlewares/ST/STM32_USB_Host_Library/Core/Src/usbh_ctlreq.c ****             {
 462:Middlewares/ST/STM32_USB_Host_Library/Core/Src/usbh_ctlreq.c ****               /* Check if it is supporting the USB AUDIO 01 class specification */
 463:Middlewares/ST/STM32_USB_Host_Library/Core/Src/usbh_ctlreq.c ****               if ((pif->bInterfaceProtocol == 0x00U) && (pdesc->bLength != 0x09U))
 464:Middlewares/ST/STM32_USB_Host_Library/Core/Src/usbh_ctlreq.c ****               {
 465:Middlewares/ST/STM32_USB_Host_Library/Core/Src/usbh_ctlreq.c ****                 pdesc->bLength = 0x09U;
 466:Middlewares/ST/STM32_USB_Host_Library/Core/Src/usbh_ctlreq.c ****               }
 467:Middlewares/ST/STM32_USB_Host_Library/Core/Src/usbh_ctlreq.c ****             }
 468:Middlewares/ST/STM32_USB_Host_Library/Core/Src/usbh_ctlreq.c ****             /* Make sure that the endpoint descriptor's bLength is equal to
 469:Middlewares/ST/STM32_USB_Host_Library/Core/Src/usbh_ctlreq.c ****                USB_ENDPOINT_DESC_SIZE for all other endpoints types */
 470:Middlewares/ST/STM32_USB_Host_Library/Core/Src/usbh_ctlreq.c ****             else if (pdesc->bLength != USB_ENDPOINT_DESC_SIZE)
 471:Middlewares/ST/STM32_USB_Host_Library/Core/Src/usbh_ctlreq.c ****             {
 472:Middlewares/ST/STM32_USB_Host_Library/Core/Src/usbh_ctlreq.c ****               pdesc->bLength = USB_ENDPOINT_DESC_SIZE;
 473:Middlewares/ST/STM32_USB_Host_Library/Core/Src/usbh_ctlreq.c ****             }
 474:Middlewares/ST/STM32_USB_Host_Library/Core/Src/usbh_ctlreq.c ****             else
 475:Middlewares/ST/STM32_USB_Host_Library/Core/Src/usbh_ctlreq.c ****             {
 476:Middlewares/ST/STM32_USB_Host_Library/Core/Src/usbh_ctlreq.c ****               /* ... */
 477:Middlewares/ST/STM32_USB_Host_Library/Core/Src/usbh_ctlreq.c ****             }
 478:Middlewares/ST/STM32_USB_Host_Library/Core/Src/usbh_ctlreq.c **** 
 479:Middlewares/ST/STM32_USB_Host_Library/Core/Src/usbh_ctlreq.c ****             pep = &cfg_desc->Itf_Desc[if_ix].Ep_Desc[ep_ix];
 480:Middlewares/ST/STM32_USB_Host_Library/Core/Src/usbh_ctlreq.c **** 
 481:Middlewares/ST/STM32_USB_Host_Library/Core/Src/usbh_ctlreq.c ****             status = USBH_ParseEPDesc(phost, pep, (uint8_t *)(void *)pdesc);
ARM GAS  C:\Users\stefa\AppData\Local\Temp\ccf1pQEx.s 			page 12


 482:Middlewares/ST/STM32_USB_Host_Library/Core/Src/usbh_ctlreq.c **** 
 483:Middlewares/ST/STM32_USB_Host_Library/Core/Src/usbh_ctlreq.c ****             ep_ix++;
 484:Middlewares/ST/STM32_USB_Host_Library/Core/Src/usbh_ctlreq.c ****           }
 485:Middlewares/ST/STM32_USB_Host_Library/Core/Src/usbh_ctlreq.c ****         }
 486:Middlewares/ST/STM32_USB_Host_Library/Core/Src/usbh_ctlreq.c **** 
 487:Middlewares/ST/STM32_USB_Host_Library/Core/Src/usbh_ctlreq.c ****         /* Check if the required endpoint(s) data are parsed */
 488:Middlewares/ST/STM32_USB_Host_Library/Core/Src/usbh_ctlreq.c ****         if (ep_ix < pif->bNumEndpoints)
 489:Middlewares/ST/STM32_USB_Host_Library/Core/Src/usbh_ctlreq.c ****         {
 490:Middlewares/ST/STM32_USB_Host_Library/Core/Src/usbh_ctlreq.c ****           return USBH_NOT_SUPPORTED;
 491:Middlewares/ST/STM32_USB_Host_Library/Core/Src/usbh_ctlreq.c ****         }
 492:Middlewares/ST/STM32_USB_Host_Library/Core/Src/usbh_ctlreq.c **** 
 493:Middlewares/ST/STM32_USB_Host_Library/Core/Src/usbh_ctlreq.c ****         if_ix++;
 494:Middlewares/ST/STM32_USB_Host_Library/Core/Src/usbh_ctlreq.c ****       }
 495:Middlewares/ST/STM32_USB_Host_Library/Core/Src/usbh_ctlreq.c ****     }
 496:Middlewares/ST/STM32_USB_Host_Library/Core/Src/usbh_ctlreq.c **** 
 497:Middlewares/ST/STM32_USB_Host_Library/Core/Src/usbh_ctlreq.c ****     /* Check if the required interface(s) data are parsed */
 498:Middlewares/ST/STM32_USB_Host_Library/Core/Src/usbh_ctlreq.c ****     if (if_ix < MIN(cfg_desc->bNumInterfaces, (uint8_t)USBH_MAX_NUM_INTERFACES))
 499:Middlewares/ST/STM32_USB_Host_Library/Core/Src/usbh_ctlreq.c ****     {
 500:Middlewares/ST/STM32_USB_Host_Library/Core/Src/usbh_ctlreq.c ****       return USBH_NOT_SUPPORTED;
 501:Middlewares/ST/STM32_USB_Host_Library/Core/Src/usbh_ctlreq.c ****     }
 502:Middlewares/ST/STM32_USB_Host_Library/Core/Src/usbh_ctlreq.c ****   }
 503:Middlewares/ST/STM32_USB_Host_Library/Core/Src/usbh_ctlreq.c **** 
 504:Middlewares/ST/STM32_USB_Host_Library/Core/Src/usbh_ctlreq.c ****   return status;
 505:Middlewares/ST/STM32_USB_Host_Library/Core/Src/usbh_ctlreq.c **** }
 506:Middlewares/ST/STM32_USB_Host_Library/Core/Src/usbh_ctlreq.c **** 
 507:Middlewares/ST/STM32_USB_Host_Library/Core/Src/usbh_ctlreq.c **** 
 508:Middlewares/ST/STM32_USB_Host_Library/Core/Src/usbh_ctlreq.c **** /**
 509:Middlewares/ST/STM32_USB_Host_Library/Core/Src/usbh_ctlreq.c ****   * @brief  USBH_ParseInterfaceDesc
 510:Middlewares/ST/STM32_USB_Host_Library/Core/Src/usbh_ctlreq.c ****   *         This function Parses the interface descriptor
 511:Middlewares/ST/STM32_USB_Host_Library/Core/Src/usbh_ctlreq.c ****   * @param  if_descriptor : Interface descriptor destination
 512:Middlewares/ST/STM32_USB_Host_Library/Core/Src/usbh_ctlreq.c ****   * @param  buf: Buffer where the descriptor data is available
 513:Middlewares/ST/STM32_USB_Host_Library/Core/Src/usbh_ctlreq.c ****   * @retval None
 514:Middlewares/ST/STM32_USB_Host_Library/Core/Src/usbh_ctlreq.c ****   */
 515:Middlewares/ST/STM32_USB_Host_Library/Core/Src/usbh_ctlreq.c **** static void  USBH_ParseInterfaceDesc(USBH_InterfaceDescTypeDef *if_descriptor,
 516:Middlewares/ST/STM32_USB_Host_Library/Core/Src/usbh_ctlreq.c ****                                      uint8_t *buf)
 517:Middlewares/ST/STM32_USB_Host_Library/Core/Src/usbh_ctlreq.c **** {
 149              		.loc 1 517 1 is_stmt 1 view -0
 150              		.cfi_startproc
 151              		@ args = 0, pretend = 0, frame = 0
 152              		@ frame_needed = 0, uses_anonymous_args = 0
 153              		@ link register save eliminated.
 518:Middlewares/ST/STM32_USB_Host_Library/Core/Src/usbh_ctlreq.c ****   if_descriptor->bLength            = *(uint8_t *)(buf + 0);
 154              		.loc 1 518 3 view .LVU44
 155              		.loc 1 518 39 is_stmt 0 view .LVU45
 156 0000 0B78     		ldrb	r3, [r1]	@ zero_extendqisi2
 157              		.loc 1 518 37 view .LVU46
 158 0002 0370     		strb	r3, [r0]
 519:Middlewares/ST/STM32_USB_Host_Library/Core/Src/usbh_ctlreq.c ****   if_descriptor->bDescriptorType    = *(uint8_t *)(buf + 1);
 159              		.loc 1 519 3 is_stmt 1 view .LVU47
 160              		.loc 1 519 37 is_stmt 0 view .LVU48
 161 0004 4B78     		ldrb	r3, [r1, #1]	@ zero_extendqisi2
 162 0006 4370     		strb	r3, [r0, #1]
 520:Middlewares/ST/STM32_USB_Host_Library/Core/Src/usbh_ctlreq.c ****   if_descriptor->bInterfaceNumber   = *(uint8_t *)(buf + 2);
 163              		.loc 1 520 3 is_stmt 1 view .LVU49
 164              		.loc 1 520 37 is_stmt 0 view .LVU50
 165 0008 8B78     		ldrb	r3, [r1, #2]	@ zero_extendqisi2
 166 000a 8370     		strb	r3, [r0, #2]
ARM GAS  C:\Users\stefa\AppData\Local\Temp\ccf1pQEx.s 			page 13


 521:Middlewares/ST/STM32_USB_Host_Library/Core/Src/usbh_ctlreq.c ****   if_descriptor->bAlternateSetting  = *(uint8_t *)(buf + 3);
 167              		.loc 1 521 3 is_stmt 1 view .LVU51
 168              		.loc 1 521 37 is_stmt 0 view .LVU52
 169 000c CB78     		ldrb	r3, [r1, #3]	@ zero_extendqisi2
 170 000e C370     		strb	r3, [r0, #3]
 522:Middlewares/ST/STM32_USB_Host_Library/Core/Src/usbh_ctlreq.c ****   if_descriptor->bNumEndpoints      = *(uint8_t *)(buf + 4);
 171              		.loc 1 522 3 is_stmt 1 view .LVU53
 172              		.loc 1 522 37 is_stmt 0 view .LVU54
 173 0010 0B79     		ldrb	r3, [r1, #4]	@ zero_extendqisi2
 174 0012 0371     		strb	r3, [r0, #4]
 523:Middlewares/ST/STM32_USB_Host_Library/Core/Src/usbh_ctlreq.c ****   if_descriptor->bInterfaceClass    = *(uint8_t *)(buf + 5);
 175              		.loc 1 523 3 is_stmt 1 view .LVU55
 176              		.loc 1 523 37 is_stmt 0 view .LVU56
 177 0014 4B79     		ldrb	r3, [r1, #5]	@ zero_extendqisi2
 178 0016 4371     		strb	r3, [r0, #5]
 524:Middlewares/ST/STM32_USB_Host_Library/Core/Src/usbh_ctlreq.c ****   if_descriptor->bInterfaceSubClass = *(uint8_t *)(buf + 6);
 179              		.loc 1 524 3 is_stmt 1 view .LVU57
 180              		.loc 1 524 37 is_stmt 0 view .LVU58
 181 0018 8B79     		ldrb	r3, [r1, #6]	@ zero_extendqisi2
 182 001a 8371     		strb	r3, [r0, #6]
 525:Middlewares/ST/STM32_USB_Host_Library/Core/Src/usbh_ctlreq.c ****   if_descriptor->bInterfaceProtocol = *(uint8_t *)(buf + 7);
 183              		.loc 1 525 3 is_stmt 1 view .LVU59
 184              		.loc 1 525 37 is_stmt 0 view .LVU60
 185 001c CB79     		ldrb	r3, [r1, #7]	@ zero_extendqisi2
 186 001e C371     		strb	r3, [r0, #7]
 526:Middlewares/ST/STM32_USB_Host_Library/Core/Src/usbh_ctlreq.c ****   if_descriptor->iInterface         = *(uint8_t *)(buf + 8);
 187              		.loc 1 526 3 is_stmt 1 view .LVU61
 188              		.loc 1 526 37 is_stmt 0 view .LVU62
 189 0020 0B7A     		ldrb	r3, [r1, #8]	@ zero_extendqisi2
 190 0022 0372     		strb	r3, [r0, #8]
 527:Middlewares/ST/STM32_USB_Host_Library/Core/Src/usbh_ctlreq.c **** }
 191              		.loc 1 527 1 view .LVU63
 192 0024 7047     		bx	lr
 193              		.cfi_endproc
 194              	.LFE144:
 196              		.section	.text.USBH_ParseEPDesc,"ax",%progbits
 197              		.align	1
 198              		.syntax unified
 199              		.thumb
 200              		.thumb_func
 202              	USBH_ParseEPDesc:
 203              	.LVL4:
 204              	.LFB145:
 528:Middlewares/ST/STM32_USB_Host_Library/Core/Src/usbh_ctlreq.c **** 
 529:Middlewares/ST/STM32_USB_Host_Library/Core/Src/usbh_ctlreq.c **** 
 530:Middlewares/ST/STM32_USB_Host_Library/Core/Src/usbh_ctlreq.c **** /**
 531:Middlewares/ST/STM32_USB_Host_Library/Core/Src/usbh_ctlreq.c ****   * @brief  USBH_ParseEPDesc
 532:Middlewares/ST/STM32_USB_Host_Library/Core/Src/usbh_ctlreq.c ****   *         This function Parses the endpoint descriptor
 533:Middlewares/ST/STM32_USB_Host_Library/Core/Src/usbh_ctlreq.c ****   * @param  phost: USB Host handler
 534:Middlewares/ST/STM32_USB_Host_Library/Core/Src/usbh_ctlreq.c ****   * @param  ep_descriptor: Endpoint descriptor destination address
 535:Middlewares/ST/STM32_USB_Host_Library/Core/Src/usbh_ctlreq.c ****   * @param  buf: Buffer where the parsed descriptor stored
 536:Middlewares/ST/STM32_USB_Host_Library/Core/Src/usbh_ctlreq.c ****   * @retval USBH Status
 537:Middlewares/ST/STM32_USB_Host_Library/Core/Src/usbh_ctlreq.c ****   */
 538:Middlewares/ST/STM32_USB_Host_Library/Core/Src/usbh_ctlreq.c **** static USBH_StatusTypeDef  USBH_ParseEPDesc(USBH_HandleTypeDef *phost, USBH_EpDescTypeDef  *ep_desc
 539:Middlewares/ST/STM32_USB_Host_Library/Core/Src/usbh_ctlreq.c ****                                             uint8_t *buf)
 540:Middlewares/ST/STM32_USB_Host_Library/Core/Src/usbh_ctlreq.c **** {
 205              		.loc 1 540 1 is_stmt 1 view -0
ARM GAS  C:\Users\stefa\AppData\Local\Temp\ccf1pQEx.s 			page 14


 206              		.cfi_startproc
 207              		@ args = 0, pretend = 0, frame = 0
 208              		@ frame_needed = 0, uses_anonymous_args = 0
 209              		.loc 1 540 1 is_stmt 0 view .LVU65
 210 0000 10B5     		push	{r4, lr}
 211              	.LCFI0:
 212              		.cfi_def_cfa_offset 8
 213              		.cfi_offset 4, -8
 214              		.cfi_offset 14, -4
 215 0002 8646     		mov	lr, r0
 541:Middlewares/ST/STM32_USB_Host_Library/Core/Src/usbh_ctlreq.c ****   USBH_StatusTypeDef status = USBH_OK;
 216              		.loc 1 541 3 is_stmt 1 view .LVU66
 217              	.LVL5:
 542:Middlewares/ST/STM32_USB_Host_Library/Core/Src/usbh_ctlreq.c ****   ep_descriptor->bLength          = *(uint8_t *)(buf + 0);
 218              		.loc 1 542 3 view .LVU67
 219              		.loc 1 542 37 is_stmt 0 view .LVU68
 220 0004 1378     		ldrb	r3, [r2]	@ zero_extendqisi2
 221              		.loc 1 542 35 view .LVU69
 222 0006 0B70     		strb	r3, [r1]
 543:Middlewares/ST/STM32_USB_Host_Library/Core/Src/usbh_ctlreq.c ****   ep_descriptor->bDescriptorType  = *(uint8_t *)(buf + 1);
 223              		.loc 1 543 3 is_stmt 1 view .LVU70
 224              		.loc 1 543 35 is_stmt 0 view .LVU71
 225 0008 5378     		ldrb	r3, [r2, #1]	@ zero_extendqisi2
 226 000a 4B70     		strb	r3, [r1, #1]
 544:Middlewares/ST/STM32_USB_Host_Library/Core/Src/usbh_ctlreq.c ****   ep_descriptor->bEndpointAddress = *(uint8_t *)(buf + 2);
 227              		.loc 1 544 3 is_stmt 1 view .LVU72
 228              		.loc 1 544 35 is_stmt 0 view .LVU73
 229 000c 9378     		ldrb	r3, [r2, #2]	@ zero_extendqisi2
 230 000e 8B70     		strb	r3, [r1, #2]
 545:Middlewares/ST/STM32_USB_Host_Library/Core/Src/usbh_ctlreq.c ****   ep_descriptor->bmAttributes     = *(uint8_t *)(buf + 3);
 231              		.loc 1 545 3 is_stmt 1 view .LVU74
 232              		.loc 1 545 35 is_stmt 0 view .LVU75
 233 0010 92F803C0 		ldrb	ip, [r2, #3]	@ zero_extendqisi2
 234 0014 81F803C0 		strb	ip, [r1, #3]
 546:Middlewares/ST/STM32_USB_Host_Library/Core/Src/usbh_ctlreq.c ****   ep_descriptor->wMaxPacketSize   = LE16(buf + 4);
 235              		.loc 1 546 3 is_stmt 1 view .LVU76
 236              		.loc 1 546 37 is_stmt 0 view .LVU77
 237 0018 1379     		ldrb	r3, [r2, #4]	@ zero_extendqisi2
 238 001a 5079     		ldrb	r0, [r2, #5]	@ zero_extendqisi2
 239              	.LVL6:
 240              		.loc 1 546 37 view .LVU78
 241 001c 43EA0023 		orr	r3, r3, r0, lsl #8
 242              		.loc 1 546 35 view .LVU79
 243 0020 8B80     		strh	r3, [r1, #4]	@ movhi
 547:Middlewares/ST/STM32_USB_Host_Library/Core/Src/usbh_ctlreq.c ****   ep_descriptor->bInterval        = *(uint8_t *)(buf + 6);
 244              		.loc 1 547 3 is_stmt 1 view .LVU80
 245              		.loc 1 547 35 is_stmt 0 view .LVU81
 246 0022 9479     		ldrb	r4, [r2, #6]	@ zero_extendqisi2
 247 0024 8C71     		strb	r4, [r1, #6]
 548:Middlewares/ST/STM32_USB_Host_Library/Core/Src/usbh_ctlreq.c **** 
 549:Middlewares/ST/STM32_USB_Host_Library/Core/Src/usbh_ctlreq.c ****   /* Make sure that wMaxPacketSize is different from 0 */
 550:Middlewares/ST/STM32_USB_Host_Library/Core/Src/usbh_ctlreq.c ****   if (ep_descriptor->wMaxPacketSize == 0x00U)
 248              		.loc 1 550 3 is_stmt 1 view .LVU82
 249              		.loc 1 550 6 is_stmt 0 view .LVU83
 250 0026 9BB1     		cbz	r3, .L14
 551:Middlewares/ST/STM32_USB_Host_Library/Core/Src/usbh_ctlreq.c ****   {
 552:Middlewares/ST/STM32_USB_Host_Library/Core/Src/usbh_ctlreq.c ****     status = USBH_NOT_SUPPORTED;
ARM GAS  C:\Users\stefa\AppData\Local\Temp\ccf1pQEx.s 			page 15


 553:Middlewares/ST/STM32_USB_Host_Library/Core/Src/usbh_ctlreq.c ****   }
 554:Middlewares/ST/STM32_USB_Host_Library/Core/Src/usbh_ctlreq.c ****   else if (USBH_MAX_EP_PACKET_SIZE < (uint16_t)USBH_MAX_DATA_BUFFER)
 251              		.loc 1 554 8 is_stmt 1 view .LVU84
 555:Middlewares/ST/STM32_USB_Host_Library/Core/Src/usbh_ctlreq.c ****   {
 556:Middlewares/ST/STM32_USB_Host_Library/Core/Src/usbh_ctlreq.c ****     /* Make sure that maximum packet size (bits 0..10) does not exceed the max endpoint packet size
 557:Middlewares/ST/STM32_USB_Host_Library/Core/Src/usbh_ctlreq.c ****     ep_descriptor->wMaxPacketSize &= ~0x7FFU;
 558:Middlewares/ST/STM32_USB_Host_Library/Core/Src/usbh_ctlreq.c ****     ep_descriptor->wMaxPacketSize |=  MIN((uint16_t)(LE16(buf + 4) & 0x7FFU), (uint16_t)USBH_MAX_EP
 559:Middlewares/ST/STM32_USB_Host_Library/Core/Src/usbh_ctlreq.c **** 
 560:Middlewares/ST/STM32_USB_Host_Library/Core/Src/usbh_ctlreq.c ****   }
 561:Middlewares/ST/STM32_USB_Host_Library/Core/Src/usbh_ctlreq.c ****   else if ((uint16_t)USBH_MAX_DATA_BUFFER < USBH_MAX_EP_PACKET_SIZE)
 252              		.loc 1 561 8 view .LVU85
 562:Middlewares/ST/STM32_USB_Host_Library/Core/Src/usbh_ctlreq.c ****   {
 563:Middlewares/ST/STM32_USB_Host_Library/Core/Src/usbh_ctlreq.c ****     /* Make sure that maximum packet size (bits 0..10) does not exceed the total buffer length */
 564:Middlewares/ST/STM32_USB_Host_Library/Core/Src/usbh_ctlreq.c ****     ep_descriptor->wMaxPacketSize &= ~0x7FFU;
 253              		.loc 1 564 5 view .LVU86
 254              		.loc 1 564 35 is_stmt 0 view .LVU87
 255 0028 03F47843 		and	r3, r3, #63488
 256 002c 8B80     		strh	r3, [r1, #4]	@ movhi
 565:Middlewares/ST/STM32_USB_Host_Library/Core/Src/usbh_ctlreq.c ****     ep_descriptor->wMaxPacketSize |= MIN((uint16_t)(LE16(buf + 4) & 0x7FFU), (uint16_t)USBH_MAX_DAT
 257              		.loc 1 565 5 is_stmt 1 view .LVU88
 258              		.loc 1 565 35 is_stmt 0 view .LVU89
 259 002e 1BB2     		sxth	r3, r3
 260              		.loc 1 565 38 view .LVU90
 261 0030 1079     		ldrb	r0, [r2, #4]	@ zero_extendqisi2
 262 0032 5279     		ldrb	r2, [r2, #5]	@ zero_extendqisi2
 263              	.LVL7:
 264              		.loc 1 565 38 view .LVU91
 265 0034 40EA0222 		orr	r2, r0, r2, lsl #8
 266              		.loc 1 565 35 view .LVU92
 267 0038 12F4C06F 		tst	r2, #1536
 268 003c 05D1     		bne	.L15
 269              		.loc 1 565 35 discriminator 1 view .LVU93
 270 003e C2F30A02 		ubfx	r2, r2, #0, #11
 271              	.L9:
 272              		.loc 1 565 35 discriminator 4 view .LVU94
 273 0042 1343     		orrs	r3, r3, r2
 274 0044 8B80     		strh	r3, [r1, #4]	@ movhi
 541:Middlewares/ST/STM32_USB_Host_Library/Core/Src/usbh_ctlreq.c ****   ep_descriptor->bLength          = *(uint8_t *)(buf + 0);
 275              		.loc 1 541 22 discriminator 4 view .LVU95
 276 0046 0020     		movs	r0, #0
 277 0048 03E0     		b	.L8
 278              	.L15:
 279              		.loc 1 565 35 view .LVU96
 280 004a 4FF40072 		mov	r2, #512
 281 004e F8E7     		b	.L9
 282              	.LVL8:
 283              	.L14:
 552:Middlewares/ST/STM32_USB_Host_Library/Core/Src/usbh_ctlreq.c ****   }
 284              		.loc 1 552 12 view .LVU97
 285 0050 0320     		movs	r0, #3
 286              	.LVL9:
 287              	.L8:
 566:Middlewares/ST/STM32_USB_Host_Library/Core/Src/usbh_ctlreq.c ****   }
 567:Middlewares/ST/STM32_USB_Host_Library/Core/Src/usbh_ctlreq.c ****   else
 568:Middlewares/ST/STM32_USB_Host_Library/Core/Src/usbh_ctlreq.c ****   {
 569:Middlewares/ST/STM32_USB_Host_Library/Core/Src/usbh_ctlreq.c ****     /* ... */
 570:Middlewares/ST/STM32_USB_Host_Library/Core/Src/usbh_ctlreq.c ****   }
ARM GAS  C:\Users\stefa\AppData\Local\Temp\ccf1pQEx.s 			page 16


 288              		.loc 1 570 3 is_stmt 1 view .LVU98
 571:Middlewares/ST/STM32_USB_Host_Library/Core/Src/usbh_ctlreq.c **** 
 572:Middlewares/ST/STM32_USB_Host_Library/Core/Src/usbh_ctlreq.c ****   /* For high-speed interrupt/isochronous endpoints, bInterval can vary from 1 to 16 */
 573:Middlewares/ST/STM32_USB_Host_Library/Core/Src/usbh_ctlreq.c ****   if (phost->device.speed == (uint8_t)USBH_SPEED_HIGH)
 289              		.loc 1 573 3 view .LVU99
 290              		.loc 1 573 20 is_stmt 0 view .LVU100
 291 0052 9EF81D33 		ldrb	r3, [lr, #797]	@ zero_extendqisi2
 292              		.loc 1 573 6 view .LVU101
 293 0056 73B9     		cbnz	r3, .L10
 574:Middlewares/ST/STM32_USB_Host_Library/Core/Src/usbh_ctlreq.c ****   {
 575:Middlewares/ST/STM32_USB_Host_Library/Core/Src/usbh_ctlreq.c ****     if (((ep_descriptor->bmAttributes & EP_TYPE_MSK) == EP_TYPE_ISOC) ||
 294              		.loc 1 575 5 is_stmt 1 view .LVU102
 295 0058 0CF0030C 		and	ip, ip, #3
 296              		.loc 1 575 8 is_stmt 0 view .LVU103
 297 005c BCF1010F 		cmp	ip, #1
 298 0060 03D0     		beq	.L11
 299              		.loc 1 575 71 discriminator 1 view .LVU104
 300 0062 BCF1030F 		cmp	ip, #3
 301 0066 00D0     		beq	.L11
 302              	.LVL10:
 303              	.L12:
 576:Middlewares/ST/STM32_USB_Host_Library/Core/Src/usbh_ctlreq.c ****         ((ep_descriptor->bmAttributes & EP_TYPE_MSK) == EP_TYPE_INTR))
 577:Middlewares/ST/STM32_USB_Host_Library/Core/Src/usbh_ctlreq.c ****     {
 578:Middlewares/ST/STM32_USB_Host_Library/Core/Src/usbh_ctlreq.c ****       if ((ep_descriptor->bInterval == 0U) || (ep_descriptor->bInterval > 0x10U))
 579:Middlewares/ST/STM32_USB_Host_Library/Core/Src/usbh_ctlreq.c ****       {
 580:Middlewares/ST/STM32_USB_Host_Library/Core/Src/usbh_ctlreq.c ****         status = USBH_NOT_SUPPORTED;
 581:Middlewares/ST/STM32_USB_Host_Library/Core/Src/usbh_ctlreq.c ****       }
 582:Middlewares/ST/STM32_USB_Host_Library/Core/Src/usbh_ctlreq.c ****     }
 583:Middlewares/ST/STM32_USB_Host_Library/Core/Src/usbh_ctlreq.c ****   }
 584:Middlewares/ST/STM32_USB_Host_Library/Core/Src/usbh_ctlreq.c ****   else
 585:Middlewares/ST/STM32_USB_Host_Library/Core/Src/usbh_ctlreq.c ****   {
 586:Middlewares/ST/STM32_USB_Host_Library/Core/Src/usbh_ctlreq.c ****     /* For full-speed isochronous endpoints, the value of bInterval must be in the range from 1 to 
 587:Middlewares/ST/STM32_USB_Host_Library/Core/Src/usbh_ctlreq.c ****     if ((ep_descriptor->bmAttributes & EP_TYPE_MSK) == EP_TYPE_ISOC)
 588:Middlewares/ST/STM32_USB_Host_Library/Core/Src/usbh_ctlreq.c ****     {
 589:Middlewares/ST/STM32_USB_Host_Library/Core/Src/usbh_ctlreq.c ****       if ((ep_descriptor->bInterval == 0U) || (ep_descriptor->bInterval > 0x10U))
 590:Middlewares/ST/STM32_USB_Host_Library/Core/Src/usbh_ctlreq.c ****       {
 591:Middlewares/ST/STM32_USB_Host_Library/Core/Src/usbh_ctlreq.c ****         status = USBH_NOT_SUPPORTED;
 592:Middlewares/ST/STM32_USB_Host_Library/Core/Src/usbh_ctlreq.c ****       }
 593:Middlewares/ST/STM32_USB_Host_Library/Core/Src/usbh_ctlreq.c ****     }
 594:Middlewares/ST/STM32_USB_Host_Library/Core/Src/usbh_ctlreq.c ****     /* For full-/low-speed interrupt endpoints, the value of bInterval may be from 1 to 255.*/
 595:Middlewares/ST/STM32_USB_Host_Library/Core/Src/usbh_ctlreq.c ****     else if ((ep_descriptor->bmAttributes & EP_TYPE_MSK) == EP_TYPE_INTR)
 596:Middlewares/ST/STM32_USB_Host_Library/Core/Src/usbh_ctlreq.c ****     {
 597:Middlewares/ST/STM32_USB_Host_Library/Core/Src/usbh_ctlreq.c ****       if (ep_descriptor->bInterval == 0U)
 598:Middlewares/ST/STM32_USB_Host_Library/Core/Src/usbh_ctlreq.c ****       {
 599:Middlewares/ST/STM32_USB_Host_Library/Core/Src/usbh_ctlreq.c ****         status = USBH_NOT_SUPPORTED;
 600:Middlewares/ST/STM32_USB_Host_Library/Core/Src/usbh_ctlreq.c ****       }
 601:Middlewares/ST/STM32_USB_Host_Library/Core/Src/usbh_ctlreq.c ****     }
 602:Middlewares/ST/STM32_USB_Host_Library/Core/Src/usbh_ctlreq.c ****     else
 603:Middlewares/ST/STM32_USB_Host_Library/Core/Src/usbh_ctlreq.c ****     {
 604:Middlewares/ST/STM32_USB_Host_Library/Core/Src/usbh_ctlreq.c ****       /* ... */
 605:Middlewares/ST/STM32_USB_Host_Library/Core/Src/usbh_ctlreq.c ****     }
 304              		.loc 1 605 5 is_stmt 1 view .LVU105
 606:Middlewares/ST/STM32_USB_Host_Library/Core/Src/usbh_ctlreq.c ****   }
 607:Middlewares/ST/STM32_USB_Host_Library/Core/Src/usbh_ctlreq.c **** 
 608:Middlewares/ST/STM32_USB_Host_Library/Core/Src/usbh_ctlreq.c ****   return status;
 305              		.loc 1 608 3 view .LVU106
 609:Middlewares/ST/STM32_USB_Host_Library/Core/Src/usbh_ctlreq.c **** }
ARM GAS  C:\Users\stefa\AppData\Local\Temp\ccf1pQEx.s 			page 17


 306              		.loc 1 609 1 is_stmt 0 view .LVU107
 307 0068 10BD     		pop	{r4, pc}
 308              	.L11:
 578:Middlewares/ST/STM32_USB_Host_Library/Core/Src/usbh_ctlreq.c ****       {
 309              		.loc 1 578 7 is_stmt 1 view .LVU108
 578:Middlewares/ST/STM32_USB_Host_Library/Core/Src/usbh_ctlreq.c ****       {
 310              		.loc 1 578 44 is_stmt 0 view .LVU109
 311 006a 013C     		subs	r4, r4, #1
 312 006c E4B2     		uxtb	r4, r4
 578:Middlewares/ST/STM32_USB_Host_Library/Core/Src/usbh_ctlreq.c ****       {
 313              		.loc 1 578 10 view .LVU110
 314 006e 0F2C     		cmp	r4, #15
 315 0070 FAD9     		bls	.L12
 580:Middlewares/ST/STM32_USB_Host_Library/Core/Src/usbh_ctlreq.c ****       }
 316              		.loc 1 580 16 view .LVU111
 317 0072 0320     		movs	r0, #3
 318              	.LVL11:
 580:Middlewares/ST/STM32_USB_Host_Library/Core/Src/usbh_ctlreq.c ****       }
 319              		.loc 1 580 16 view .LVU112
 320 0074 F8E7     		b	.L12
 321              	.LVL12:
 322              	.L10:
 587:Middlewares/ST/STM32_USB_Host_Library/Core/Src/usbh_ctlreq.c ****     {
 323              		.loc 1 587 5 is_stmt 1 view .LVU113
 324 0076 0CF0030C 		and	ip, ip, #3
 587:Middlewares/ST/STM32_USB_Host_Library/Core/Src/usbh_ctlreq.c ****     {
 325              		.loc 1 587 8 is_stmt 0 view .LVU114
 326 007a BCF1010F 		cmp	ip, #1
 327 007e 06D0     		beq	.L20
 595:Middlewares/ST/STM32_USB_Host_Library/Core/Src/usbh_ctlreq.c ****     {
 328              		.loc 1 595 10 is_stmt 1 view .LVU115
 595:Middlewares/ST/STM32_USB_Host_Library/Core/Src/usbh_ctlreq.c ****     {
 329              		.loc 1 595 13 is_stmt 0 view .LVU116
 330 0080 BCF1030F 		cmp	ip, #3
 331 0084 F0D1     		bne	.L12
 597:Middlewares/ST/STM32_USB_Host_Library/Core/Src/usbh_ctlreq.c ****       {
 332              		.loc 1 597 7 is_stmt 1 view .LVU117
 597:Middlewares/ST/STM32_USB_Host_Library/Core/Src/usbh_ctlreq.c ****       {
 333              		.loc 1 597 10 is_stmt 0 view .LVU118
 334 0086 002C     		cmp	r4, #0
 335 0088 EED1     		bne	.L12
 599:Middlewares/ST/STM32_USB_Host_Library/Core/Src/usbh_ctlreq.c ****       }
 336              		.loc 1 599 16 view .LVU119
 337 008a 6046     		mov	r0, ip
 338              	.LVL13:
 599:Middlewares/ST/STM32_USB_Host_Library/Core/Src/usbh_ctlreq.c ****       }
 339              		.loc 1 599 16 view .LVU120
 340 008c ECE7     		b	.L12
 341              	.LVL14:
 342              	.L20:
 589:Middlewares/ST/STM32_USB_Host_Library/Core/Src/usbh_ctlreq.c ****       {
 343              		.loc 1 589 7 is_stmt 1 view .LVU121
 589:Middlewares/ST/STM32_USB_Host_Library/Core/Src/usbh_ctlreq.c ****       {
 344              		.loc 1 589 44 is_stmt 0 view .LVU122
 345 008e 013C     		subs	r4, r4, #1
 346 0090 E4B2     		uxtb	r4, r4
 589:Middlewares/ST/STM32_USB_Host_Library/Core/Src/usbh_ctlreq.c ****       {
ARM GAS  C:\Users\stefa\AppData\Local\Temp\ccf1pQEx.s 			page 18


 347              		.loc 1 589 10 view .LVU123
 348 0092 0F2C     		cmp	r4, #15
 349 0094 E8D9     		bls	.L12
 591:Middlewares/ST/STM32_USB_Host_Library/Core/Src/usbh_ctlreq.c ****       }
 350              		.loc 1 591 16 view .LVU124
 351 0096 0320     		movs	r0, #3
 352              	.LVL15:
 591:Middlewares/ST/STM32_USB_Host_Library/Core/Src/usbh_ctlreq.c ****       }
 353              		.loc 1 591 16 view .LVU125
 354 0098 E6E7     		b	.L12
 355              		.cfi_endproc
 356              	.LFE145:
 358              		.section	.text.USBH_ParseStringDesc,"ax",%progbits
 359              		.align	1
 360              		.syntax unified
 361              		.thumb
 362              		.thumb_func
 364              	USBH_ParseStringDesc:
 365              	.LVL16:
 366              	.LFB146:
 610:Middlewares/ST/STM32_USB_Host_Library/Core/Src/usbh_ctlreq.c **** 
 611:Middlewares/ST/STM32_USB_Host_Library/Core/Src/usbh_ctlreq.c **** 
 612:Middlewares/ST/STM32_USB_Host_Library/Core/Src/usbh_ctlreq.c **** /**
 613:Middlewares/ST/STM32_USB_Host_Library/Core/Src/usbh_ctlreq.c ****   * @brief  USBH_ParseStringDesc
 614:Middlewares/ST/STM32_USB_Host_Library/Core/Src/usbh_ctlreq.c ****   *         This function Parses the string descriptor
 615:Middlewares/ST/STM32_USB_Host_Library/Core/Src/usbh_ctlreq.c ****   * @param  psrc: Source pointer containing the descriptor data
 616:Middlewares/ST/STM32_USB_Host_Library/Core/Src/usbh_ctlreq.c ****   * @param  pdest: Destination address pointer
 617:Middlewares/ST/STM32_USB_Host_Library/Core/Src/usbh_ctlreq.c ****   * @param  length: Length of the descriptor
 618:Middlewares/ST/STM32_USB_Host_Library/Core/Src/usbh_ctlreq.c ****   * @retval None
 619:Middlewares/ST/STM32_USB_Host_Library/Core/Src/usbh_ctlreq.c ****   */
 620:Middlewares/ST/STM32_USB_Host_Library/Core/Src/usbh_ctlreq.c **** static void USBH_ParseStringDesc(uint8_t *psrc, uint8_t *pdest, uint16_t length)
 621:Middlewares/ST/STM32_USB_Host_Library/Core/Src/usbh_ctlreq.c **** {
 367              		.loc 1 621 1 is_stmt 1 view -0
 368              		.cfi_startproc
 369              		@ args = 0, pretend = 0, frame = 0
 370              		@ frame_needed = 0, uses_anonymous_args = 0
 371              		@ link register save eliminated.
 622:Middlewares/ST/STM32_USB_Host_Library/Core/Src/usbh_ctlreq.c ****   uint16_t strlength;
 372              		.loc 1 622 3 view .LVU127
 623:Middlewares/ST/STM32_USB_Host_Library/Core/Src/usbh_ctlreq.c ****   uint16_t idx;
 373              		.loc 1 623 3 view .LVU128
 624:Middlewares/ST/STM32_USB_Host_Library/Core/Src/usbh_ctlreq.c **** 
 625:Middlewares/ST/STM32_USB_Host_Library/Core/Src/usbh_ctlreq.c ****   /* The UNICODE string descriptor is not NULL-terminated. The string length is
 626:Middlewares/ST/STM32_USB_Host_Library/Core/Src/usbh_ctlreq.c ****   computed by subtracting two from the value of the first byte of the descriptor.
 627:Middlewares/ST/STM32_USB_Host_Library/Core/Src/usbh_ctlreq.c ****   */
 628:Middlewares/ST/STM32_USB_Host_Library/Core/Src/usbh_ctlreq.c **** 
 629:Middlewares/ST/STM32_USB_Host_Library/Core/Src/usbh_ctlreq.c ****   /* Check which is lower size, the Size of string or the length of bytes read
 630:Middlewares/ST/STM32_USB_Host_Library/Core/Src/usbh_ctlreq.c ****   from the device */
 631:Middlewares/ST/STM32_USB_Host_Library/Core/Src/usbh_ctlreq.c **** 
 632:Middlewares/ST/STM32_USB_Host_Library/Core/Src/usbh_ctlreq.c ****   if (psrc[1] == USB_DESC_TYPE_STRING)
 374              		.loc 1 632 3 view .LVU129
 375              		.loc 1 632 11 is_stmt 0 view .LVU130
 376 0000 4378     		ldrb	r3, [r0, #1]	@ zero_extendqisi2
 377              		.loc 1 632 6 view .LVU131
 378 0002 032B     		cmp	r3, #3
 379 0004 00D0     		beq	.L25
 380              	.LVL17:
ARM GAS  C:\Users\stefa\AppData\Local\Temp\ccf1pQEx.s 			page 19


 381              	.L21:
 633:Middlewares/ST/STM32_USB_Host_Library/Core/Src/usbh_ctlreq.c ****   {
 634:Middlewares/ST/STM32_USB_Host_Library/Core/Src/usbh_ctlreq.c ****     /* Make sure the Descriptor is String Type */
 635:Middlewares/ST/STM32_USB_Host_Library/Core/Src/usbh_ctlreq.c **** 
 636:Middlewares/ST/STM32_USB_Host_Library/Core/Src/usbh_ctlreq.c ****     /* psrc[0] contains Size of Descriptor, subtract 2 to get the length of string */
 637:Middlewares/ST/STM32_USB_Host_Library/Core/Src/usbh_ctlreq.c ****     strlength = ((((uint16_t)psrc[0] - 2U) <= length) ? ((uint16_t)psrc[0] - 2U) : length);
 638:Middlewares/ST/STM32_USB_Host_Library/Core/Src/usbh_ctlreq.c **** 
 639:Middlewares/ST/STM32_USB_Host_Library/Core/Src/usbh_ctlreq.c ****     /* Adjust the offset ignoring the String Len and Descriptor type */
 640:Middlewares/ST/STM32_USB_Host_Library/Core/Src/usbh_ctlreq.c ****     psrc += 2U;
 641:Middlewares/ST/STM32_USB_Host_Library/Core/Src/usbh_ctlreq.c **** 
 642:Middlewares/ST/STM32_USB_Host_Library/Core/Src/usbh_ctlreq.c ****     for (idx = 0U; idx < strlength; idx += 2U)
 643:Middlewares/ST/STM32_USB_Host_Library/Core/Src/usbh_ctlreq.c ****     {
 644:Middlewares/ST/STM32_USB_Host_Library/Core/Src/usbh_ctlreq.c ****       /* Copy Only the string and ignore the UNICODE ID, hence add the src */
 645:Middlewares/ST/STM32_USB_Host_Library/Core/Src/usbh_ctlreq.c ****       *pdest =  psrc[idx];
 646:Middlewares/ST/STM32_USB_Host_Library/Core/Src/usbh_ctlreq.c ****       pdest++;
 647:Middlewares/ST/STM32_USB_Host_Library/Core/Src/usbh_ctlreq.c ****     }
 648:Middlewares/ST/STM32_USB_Host_Library/Core/Src/usbh_ctlreq.c ****     *pdest = 0U; /* mark end of string */
 649:Middlewares/ST/STM32_USB_Host_Library/Core/Src/usbh_ctlreq.c ****   }
 650:Middlewares/ST/STM32_USB_Host_Library/Core/Src/usbh_ctlreq.c **** }
 382              		.loc 1 650 1 view .LVU132
 383 0006 7047     		bx	lr
 384              	.LVL18:
 385              	.L25:
 637:Middlewares/ST/STM32_USB_Host_Library/Core/Src/usbh_ctlreq.c **** 
 386              		.loc 1 637 5 is_stmt 1 view .LVU133
 637:Middlewares/ST/STM32_USB_Host_Library/Core/Src/usbh_ctlreq.c **** 
 387              		.loc 1 637 34 is_stmt 0 view .LVU134
 388 0008 0378     		ldrb	r3, [r0]	@ zero_extendqisi2
 637:Middlewares/ST/STM32_USB_Host_Library/Core/Src/usbh_ctlreq.c **** 
 389              		.loc 1 637 38 view .LVU135
 390 000a 023B     		subs	r3, r3, #2
 637:Middlewares/ST/STM32_USB_Host_Library/Core/Src/usbh_ctlreq.c **** 
 391              		.loc 1 637 82 view .LVU136
 392 000c 9A42     		cmp	r2, r3
 393 000e 28BF     		it	cs
 394 0010 1A46     		movcs	r2, r3
 395              	.LVL19:
 637:Middlewares/ST/STM32_USB_Host_Library/Core/Src/usbh_ctlreq.c **** 
 396              		.loc 1 637 15 view .LVU137
 397 0012 92B2     		uxth	r2, r2
 398              	.LVL20:
 640:Middlewares/ST/STM32_USB_Host_Library/Core/Src/usbh_ctlreq.c **** 
 399              		.loc 1 640 5 is_stmt 1 view .LVU138
 642:Middlewares/ST/STM32_USB_Host_Library/Core/Src/usbh_ctlreq.c ****     {
 400              		.loc 1 642 5 view .LVU139
 642:Middlewares/ST/STM32_USB_Host_Library/Core/Src/usbh_ctlreq.c ****     {
 401              		.loc 1 642 14 is_stmt 0 view .LVU140
 402 0014 0023     		movs	r3, #0
 642:Middlewares/ST/STM32_USB_Host_Library/Core/Src/usbh_ctlreq.c ****     {
 403              		.loc 1 642 5 view .LVU141
 404 0016 07E0     		b	.L23
 405              	.LVL21:
 406              	.L24:
 645:Middlewares/ST/STM32_USB_Host_Library/Core/Src/usbh_ctlreq.c ****       pdest++;
 407              		.loc 1 645 7 is_stmt 1 discriminator 3 view .LVU142
 645:Middlewares/ST/STM32_USB_Host_Library/Core/Src/usbh_ctlreq.c ****       pdest++;
 408              		.loc 1 645 21 is_stmt 0 discriminator 3 view .LVU143
ARM GAS  C:\Users\stefa\AppData\Local\Temp\ccf1pQEx.s 			page 20


 409 0018 00EB030C 		add	ip, r0, r3
 410 001c 9CF802C0 		ldrb	ip, [ip, #2]	@ zero_extendqisi2
 645:Middlewares/ST/STM32_USB_Host_Library/Core/Src/usbh_ctlreq.c ****       pdest++;
 411              		.loc 1 645 14 discriminator 3 view .LVU144
 412 0020 01F801CB 		strb	ip, [r1], #1
 413              	.LVL22:
 646:Middlewares/ST/STM32_USB_Host_Library/Core/Src/usbh_ctlreq.c ****     }
 414              		.loc 1 646 7 is_stmt 1 discriminator 3 view .LVU145
 642:Middlewares/ST/STM32_USB_Host_Library/Core/Src/usbh_ctlreq.c ****     {
 415              		.loc 1 642 37 discriminator 3 view .LVU146
 642:Middlewares/ST/STM32_USB_Host_Library/Core/Src/usbh_ctlreq.c ****     {
 416              		.loc 1 642 41 is_stmt 0 discriminator 3 view .LVU147
 417 0024 0233     		adds	r3, r3, #2
 418              	.LVL23:
 642:Middlewares/ST/STM32_USB_Host_Library/Core/Src/usbh_ctlreq.c ****     {
 419              		.loc 1 642 41 discriminator 3 view .LVU148
 420 0026 9BB2     		uxth	r3, r3
 421              	.LVL24:
 422              	.L23:
 642:Middlewares/ST/STM32_USB_Host_Library/Core/Src/usbh_ctlreq.c ****     {
 423              		.loc 1 642 20 is_stmt 1 discriminator 1 view .LVU149
 642:Middlewares/ST/STM32_USB_Host_Library/Core/Src/usbh_ctlreq.c ****     {
 424              		.loc 1 642 5 is_stmt 0 discriminator 1 view .LVU150
 425 0028 9342     		cmp	r3, r2
 426 002a F5D3     		bcc	.L24
 648:Middlewares/ST/STM32_USB_Host_Library/Core/Src/usbh_ctlreq.c ****   }
 427              		.loc 1 648 5 is_stmt 1 view .LVU151
 648:Middlewares/ST/STM32_USB_Host_Library/Core/Src/usbh_ctlreq.c ****   }
 428              		.loc 1 648 12 is_stmt 0 view .LVU152
 429 002c 0023     		movs	r3, #0
 430              	.LVL25:
 648:Middlewares/ST/STM32_USB_Host_Library/Core/Src/usbh_ctlreq.c ****   }
 431              		.loc 1 648 12 view .LVU153
 432 002e 0B70     		strb	r3, [r1]
 433              		.loc 1 650 1 view .LVU154
 434 0030 E9E7     		b	.L21
 435              		.cfi_endproc
 436              	.LFE146:
 438              		.section	.text.USBH_HandleControl,"ax",%progbits
 439              		.align	1
 440              		.syntax unified
 441              		.thumb
 442              		.thumb_func
 444              	USBH_HandleControl:
 445              	.LVL26:
 446              	.LFB149:
 651:Middlewares/ST/STM32_USB_Host_Library/Core/Src/usbh_ctlreq.c **** 
 652:Middlewares/ST/STM32_USB_Host_Library/Core/Src/usbh_ctlreq.c **** 
 653:Middlewares/ST/STM32_USB_Host_Library/Core/Src/usbh_ctlreq.c **** /**
 654:Middlewares/ST/STM32_USB_Host_Library/Core/Src/usbh_ctlreq.c ****   * @brief  USBH_GetNextDesc
 655:Middlewares/ST/STM32_USB_Host_Library/Core/Src/usbh_ctlreq.c ****   *         This function return the next descriptor header
 656:Middlewares/ST/STM32_USB_Host_Library/Core/Src/usbh_ctlreq.c ****   * @param  buf: Buffer where the cfg descriptor is available
 657:Middlewares/ST/STM32_USB_Host_Library/Core/Src/usbh_ctlreq.c ****   * @param  ptr: data pointer inside the cfg descriptor
 658:Middlewares/ST/STM32_USB_Host_Library/Core/Src/usbh_ctlreq.c ****   * @retval next header
 659:Middlewares/ST/STM32_USB_Host_Library/Core/Src/usbh_ctlreq.c ****   */
 660:Middlewares/ST/STM32_USB_Host_Library/Core/Src/usbh_ctlreq.c **** USBH_DescHeader_t  *USBH_GetNextDesc(uint8_t   *pbuf, uint16_t  *ptr)
 661:Middlewares/ST/STM32_USB_Host_Library/Core/Src/usbh_ctlreq.c **** {
ARM GAS  C:\Users\stefa\AppData\Local\Temp\ccf1pQEx.s 			page 21


 662:Middlewares/ST/STM32_USB_Host_Library/Core/Src/usbh_ctlreq.c ****   USBH_DescHeader_t  *pnext;
 663:Middlewares/ST/STM32_USB_Host_Library/Core/Src/usbh_ctlreq.c **** 
 664:Middlewares/ST/STM32_USB_Host_Library/Core/Src/usbh_ctlreq.c ****   *ptr += ((USBH_DescHeader_t *)(void *)pbuf)->bLength;
 665:Middlewares/ST/STM32_USB_Host_Library/Core/Src/usbh_ctlreq.c ****   pnext = (USBH_DescHeader_t *)(void *)((uint8_t *)(void *)pbuf + \
 666:Middlewares/ST/STM32_USB_Host_Library/Core/Src/usbh_ctlreq.c ****                                         ((USBH_DescHeader_t *)(void *)pbuf)->bLength);
 667:Middlewares/ST/STM32_USB_Host_Library/Core/Src/usbh_ctlreq.c **** 
 668:Middlewares/ST/STM32_USB_Host_Library/Core/Src/usbh_ctlreq.c ****   return (pnext);
 669:Middlewares/ST/STM32_USB_Host_Library/Core/Src/usbh_ctlreq.c **** }
 670:Middlewares/ST/STM32_USB_Host_Library/Core/Src/usbh_ctlreq.c **** 
 671:Middlewares/ST/STM32_USB_Host_Library/Core/Src/usbh_ctlreq.c **** 
 672:Middlewares/ST/STM32_USB_Host_Library/Core/Src/usbh_ctlreq.c **** /**
 673:Middlewares/ST/STM32_USB_Host_Library/Core/Src/usbh_ctlreq.c ****   * @brief  USBH_CtlReq
 674:Middlewares/ST/STM32_USB_Host_Library/Core/Src/usbh_ctlreq.c ****   *         USBH_CtlReq sends a control request and provide the status after
 675:Middlewares/ST/STM32_USB_Host_Library/Core/Src/usbh_ctlreq.c ****   *            completion of the request
 676:Middlewares/ST/STM32_USB_Host_Library/Core/Src/usbh_ctlreq.c ****   * @param  phost: Host Handle
 677:Middlewares/ST/STM32_USB_Host_Library/Core/Src/usbh_ctlreq.c ****   * @param  req: Setup Request Structure
 678:Middlewares/ST/STM32_USB_Host_Library/Core/Src/usbh_ctlreq.c ****   * @param  buff: data buffer address to store the response
 679:Middlewares/ST/STM32_USB_Host_Library/Core/Src/usbh_ctlreq.c ****   * @param  length: length of the response
 680:Middlewares/ST/STM32_USB_Host_Library/Core/Src/usbh_ctlreq.c ****   * @retval USBH Status
 681:Middlewares/ST/STM32_USB_Host_Library/Core/Src/usbh_ctlreq.c ****   */
 682:Middlewares/ST/STM32_USB_Host_Library/Core/Src/usbh_ctlreq.c **** USBH_StatusTypeDef USBH_CtlReq(USBH_HandleTypeDef *phost, uint8_t *buff,
 683:Middlewares/ST/STM32_USB_Host_Library/Core/Src/usbh_ctlreq.c ****                                uint16_t length)
 684:Middlewares/ST/STM32_USB_Host_Library/Core/Src/usbh_ctlreq.c **** {
 685:Middlewares/ST/STM32_USB_Host_Library/Core/Src/usbh_ctlreq.c ****   USBH_StatusTypeDef status;
 686:Middlewares/ST/STM32_USB_Host_Library/Core/Src/usbh_ctlreq.c ****   status = USBH_BUSY;
 687:Middlewares/ST/STM32_USB_Host_Library/Core/Src/usbh_ctlreq.c **** 
 688:Middlewares/ST/STM32_USB_Host_Library/Core/Src/usbh_ctlreq.c ****   switch (phost->RequestState)
 689:Middlewares/ST/STM32_USB_Host_Library/Core/Src/usbh_ctlreq.c ****   {
 690:Middlewares/ST/STM32_USB_Host_Library/Core/Src/usbh_ctlreq.c ****     case CMD_SEND:
 691:Middlewares/ST/STM32_USB_Host_Library/Core/Src/usbh_ctlreq.c ****       /* Start a SETUP transfer */
 692:Middlewares/ST/STM32_USB_Host_Library/Core/Src/usbh_ctlreq.c ****       phost->Control.buff = buff;
 693:Middlewares/ST/STM32_USB_Host_Library/Core/Src/usbh_ctlreq.c ****       phost->Control.length = length;
 694:Middlewares/ST/STM32_USB_Host_Library/Core/Src/usbh_ctlreq.c ****       phost->Control.state = CTRL_SETUP;
 695:Middlewares/ST/STM32_USB_Host_Library/Core/Src/usbh_ctlreq.c ****       phost->RequestState = CMD_WAIT;
 696:Middlewares/ST/STM32_USB_Host_Library/Core/Src/usbh_ctlreq.c ****       status = USBH_BUSY;
 697:Middlewares/ST/STM32_USB_Host_Library/Core/Src/usbh_ctlreq.c **** 
 698:Middlewares/ST/STM32_USB_Host_Library/Core/Src/usbh_ctlreq.c **** #if (USBH_USE_OS == 1U)
 699:Middlewares/ST/STM32_USB_Host_Library/Core/Src/usbh_ctlreq.c ****       phost->os_msg = (uint32_t)USBH_CONTROL_EVENT;
 700:Middlewares/ST/STM32_USB_Host_Library/Core/Src/usbh_ctlreq.c **** #if (osCMSIS < 0x20000U)
 701:Middlewares/ST/STM32_USB_Host_Library/Core/Src/usbh_ctlreq.c ****       (void)osMessagePut(phost->os_event, phost->os_msg, 0U);
 702:Middlewares/ST/STM32_USB_Host_Library/Core/Src/usbh_ctlreq.c **** #else
 703:Middlewares/ST/STM32_USB_Host_Library/Core/Src/usbh_ctlreq.c ****       (void)osMessageQueuePut(phost->os_event, &phost->os_msg, 0U, 0U);
 704:Middlewares/ST/STM32_USB_Host_Library/Core/Src/usbh_ctlreq.c **** #endif
 705:Middlewares/ST/STM32_USB_Host_Library/Core/Src/usbh_ctlreq.c **** #endif
 706:Middlewares/ST/STM32_USB_Host_Library/Core/Src/usbh_ctlreq.c ****       break;
 707:Middlewares/ST/STM32_USB_Host_Library/Core/Src/usbh_ctlreq.c **** 
 708:Middlewares/ST/STM32_USB_Host_Library/Core/Src/usbh_ctlreq.c ****     case CMD_WAIT:
 709:Middlewares/ST/STM32_USB_Host_Library/Core/Src/usbh_ctlreq.c ****       status = USBH_HandleControl(phost);
 710:Middlewares/ST/STM32_USB_Host_Library/Core/Src/usbh_ctlreq.c ****       if ((status == USBH_OK) || (status == USBH_NOT_SUPPORTED))
 711:Middlewares/ST/STM32_USB_Host_Library/Core/Src/usbh_ctlreq.c ****       {
 712:Middlewares/ST/STM32_USB_Host_Library/Core/Src/usbh_ctlreq.c ****         /* Transaction completed, move control state to idle */
 713:Middlewares/ST/STM32_USB_Host_Library/Core/Src/usbh_ctlreq.c ****         phost->RequestState = CMD_SEND;
 714:Middlewares/ST/STM32_USB_Host_Library/Core/Src/usbh_ctlreq.c ****         phost->Control.state = CTRL_IDLE;
 715:Middlewares/ST/STM32_USB_Host_Library/Core/Src/usbh_ctlreq.c ****       }
 716:Middlewares/ST/STM32_USB_Host_Library/Core/Src/usbh_ctlreq.c ****       else if (status == USBH_FAIL)
 717:Middlewares/ST/STM32_USB_Host_Library/Core/Src/usbh_ctlreq.c ****       {
 718:Middlewares/ST/STM32_USB_Host_Library/Core/Src/usbh_ctlreq.c ****         /* Failure Mode */
ARM GAS  C:\Users\stefa\AppData\Local\Temp\ccf1pQEx.s 			page 22


 719:Middlewares/ST/STM32_USB_Host_Library/Core/Src/usbh_ctlreq.c ****         phost->RequestState = CMD_SEND;
 720:Middlewares/ST/STM32_USB_Host_Library/Core/Src/usbh_ctlreq.c ****       }
 721:Middlewares/ST/STM32_USB_Host_Library/Core/Src/usbh_ctlreq.c ****       else
 722:Middlewares/ST/STM32_USB_Host_Library/Core/Src/usbh_ctlreq.c ****       {
 723:Middlewares/ST/STM32_USB_Host_Library/Core/Src/usbh_ctlreq.c ****         /* .. */
 724:Middlewares/ST/STM32_USB_Host_Library/Core/Src/usbh_ctlreq.c ****       }
 725:Middlewares/ST/STM32_USB_Host_Library/Core/Src/usbh_ctlreq.c **** #if (USBH_USE_OS == 1U)
 726:Middlewares/ST/STM32_USB_Host_Library/Core/Src/usbh_ctlreq.c ****       phost->os_msg = (uint32_t)USBH_CONTROL_EVENT;
 727:Middlewares/ST/STM32_USB_Host_Library/Core/Src/usbh_ctlreq.c **** #if (osCMSIS < 0x20000U)
 728:Middlewares/ST/STM32_USB_Host_Library/Core/Src/usbh_ctlreq.c ****       (void)osMessagePut(phost->os_event, phost->os_msg, 0U);
 729:Middlewares/ST/STM32_USB_Host_Library/Core/Src/usbh_ctlreq.c **** #else
 730:Middlewares/ST/STM32_USB_Host_Library/Core/Src/usbh_ctlreq.c ****       (void)osMessageQueuePut(phost->os_event, &phost->os_msg, 0U, 0U);
 731:Middlewares/ST/STM32_USB_Host_Library/Core/Src/usbh_ctlreq.c **** #endif
 732:Middlewares/ST/STM32_USB_Host_Library/Core/Src/usbh_ctlreq.c **** #endif
 733:Middlewares/ST/STM32_USB_Host_Library/Core/Src/usbh_ctlreq.c ****       break;
 734:Middlewares/ST/STM32_USB_Host_Library/Core/Src/usbh_ctlreq.c **** 
 735:Middlewares/ST/STM32_USB_Host_Library/Core/Src/usbh_ctlreq.c ****     default:
 736:Middlewares/ST/STM32_USB_Host_Library/Core/Src/usbh_ctlreq.c ****       break;
 737:Middlewares/ST/STM32_USB_Host_Library/Core/Src/usbh_ctlreq.c ****   }
 738:Middlewares/ST/STM32_USB_Host_Library/Core/Src/usbh_ctlreq.c ****   return status;
 739:Middlewares/ST/STM32_USB_Host_Library/Core/Src/usbh_ctlreq.c **** }
 740:Middlewares/ST/STM32_USB_Host_Library/Core/Src/usbh_ctlreq.c **** 
 741:Middlewares/ST/STM32_USB_Host_Library/Core/Src/usbh_ctlreq.c **** 
 742:Middlewares/ST/STM32_USB_Host_Library/Core/Src/usbh_ctlreq.c **** /**
 743:Middlewares/ST/STM32_USB_Host_Library/Core/Src/usbh_ctlreq.c ****   * @brief  USBH_HandleControl
 744:Middlewares/ST/STM32_USB_Host_Library/Core/Src/usbh_ctlreq.c ****   *         Handles the USB control transfer state machine
 745:Middlewares/ST/STM32_USB_Host_Library/Core/Src/usbh_ctlreq.c ****   * @param  phost: Host Handle
 746:Middlewares/ST/STM32_USB_Host_Library/Core/Src/usbh_ctlreq.c ****   * @retval USBH Status
 747:Middlewares/ST/STM32_USB_Host_Library/Core/Src/usbh_ctlreq.c ****   */
 748:Middlewares/ST/STM32_USB_Host_Library/Core/Src/usbh_ctlreq.c **** static USBH_StatusTypeDef USBH_HandleControl(USBH_HandleTypeDef *phost)
 749:Middlewares/ST/STM32_USB_Host_Library/Core/Src/usbh_ctlreq.c **** {
 447              		.loc 1 749 1 is_stmt 1 view -0
 448              		.cfi_startproc
 449              		@ args = 0, pretend = 0, frame = 0
 450              		@ frame_needed = 0, uses_anonymous_args = 0
 451              		.loc 1 749 1 is_stmt 0 view .LVU156
 452 0000 30B5     		push	{r4, r5, lr}
 453              	.LCFI1:
 454              		.cfi_def_cfa_offset 12
 455              		.cfi_offset 4, -12
 456              		.cfi_offset 5, -8
 457              		.cfi_offset 14, -4
 458 0002 83B0     		sub	sp, sp, #12
 459              	.LCFI2:
 460              		.cfi_def_cfa_offset 24
 461 0004 0446     		mov	r4, r0
 750:Middlewares/ST/STM32_USB_Host_Library/Core/Src/usbh_ctlreq.c ****   uint8_t direction;
 462              		.loc 1 750 3 is_stmt 1 view .LVU157
 751:Middlewares/ST/STM32_USB_Host_Library/Core/Src/usbh_ctlreq.c ****   USBH_StatusTypeDef status = USBH_BUSY;
 463              		.loc 1 751 3 view .LVU158
 464              	.LVL27:
 752:Middlewares/ST/STM32_USB_Host_Library/Core/Src/usbh_ctlreq.c ****   USBH_URBStateTypeDef URB_Status = USBH_URB_IDLE;
 465              		.loc 1 752 3 view .LVU159
 753:Middlewares/ST/STM32_USB_Host_Library/Core/Src/usbh_ctlreq.c **** 
 754:Middlewares/ST/STM32_USB_Host_Library/Core/Src/usbh_ctlreq.c ****   switch (phost->Control.state)
 466              		.loc 1 754 3 view .LVU160
 467              		.loc 1 754 25 is_stmt 0 view .LVU161
ARM GAS  C:\Users\stefa\AppData\Local\Temp\ccf1pQEx.s 			page 23


 468 0006 057E     		ldrb	r5, [r0, #24]	@ zero_extendqisi2
 469              		.loc 1 754 3 view .LVU162
 470 0008 6B1E     		subs	r3, r5, #1
 471 000a 0A2B     		cmp	r3, #10
 472 000c 00F2DE80 		bhi	.L54
 473 0010 DFE803F0 		tbb	[pc, r3]
 474              	.L29:
 475 0014 06       		.byte	(.L39-.L29)/2
 476 0015 10       		.byte	(.L38-.L29)/2
 477 0016 35       		.byte	(.L37-.L29)/2
 478 0017 41       		.byte	(.L36-.L29)/2
 479 0018 54       		.byte	(.L35-.L29)/2
 480 0019 61       		.byte	(.L34-.L29)/2
 481 001a 7E       		.byte	(.L33-.L29)/2
 482 001b 8A       		.byte	(.L32-.L29)/2
 483 001c 9D       		.byte	(.L31-.L29)/2
 484 001d AA       		.byte	(.L30-.L29)/2
 485 001e C1       		.byte	(.L28-.L29)/2
 486 001f 00       		.p2align 1
 487              	.L39:
 755:Middlewares/ST/STM32_USB_Host_Library/Core/Src/usbh_ctlreq.c ****   {
 756:Middlewares/ST/STM32_USB_Host_Library/Core/Src/usbh_ctlreq.c ****     case CTRL_SETUP:
 757:Middlewares/ST/STM32_USB_Host_Library/Core/Src/usbh_ctlreq.c ****       /* send a SETUP packet */
 758:Middlewares/ST/STM32_USB_Host_Library/Core/Src/usbh_ctlreq.c ****       (void)USBH_CtlSendSetup(phost, (uint8_t *)(void *)phost->Control.setup.d8,
 488              		.loc 1 758 7 is_stmt 1 view .LVU163
 489              		.loc 1 758 13 is_stmt 0 view .LVU164
 490 0020 4279     		ldrb	r2, [r0, #5]	@ zero_extendqisi2
 491 0022 00F11001 		add	r1, r0, #16
 492 0026 FFF7FEFF 		bl	USBH_CtlSendSetup
 493              	.LVL28:
 759:Middlewares/ST/STM32_USB_Host_Library/Core/Src/usbh_ctlreq.c ****                               phost->Control.pipe_out);
 760:Middlewares/ST/STM32_USB_Host_Library/Core/Src/usbh_ctlreq.c **** 
 761:Middlewares/ST/STM32_USB_Host_Library/Core/Src/usbh_ctlreq.c ****       phost->Control.state = CTRL_SETUP_WAIT;
 494              		.loc 1 761 7 is_stmt 1 view .LVU165
 495              		.loc 1 761 28 is_stmt 0 view .LVU166
 496 002a 0223     		movs	r3, #2
 497 002c 2376     		strb	r3, [r4, #24]
 762:Middlewares/ST/STM32_USB_Host_Library/Core/Src/usbh_ctlreq.c ****       break;
 498              		.loc 1 762 7 is_stmt 1 view .LVU167
 499              	.LVL29:
 500              	.L27:
 763:Middlewares/ST/STM32_USB_Host_Library/Core/Src/usbh_ctlreq.c **** 
 764:Middlewares/ST/STM32_USB_Host_Library/Core/Src/usbh_ctlreq.c ****     case CTRL_SETUP_WAIT:
 765:Middlewares/ST/STM32_USB_Host_Library/Core/Src/usbh_ctlreq.c **** 
 766:Middlewares/ST/STM32_USB_Host_Library/Core/Src/usbh_ctlreq.c ****       URB_Status = USBH_LL_GetURBState(phost, phost->Control.pipe_out);
 767:Middlewares/ST/STM32_USB_Host_Library/Core/Src/usbh_ctlreq.c ****       /* case SETUP packet sent successfully */
 768:Middlewares/ST/STM32_USB_Host_Library/Core/Src/usbh_ctlreq.c ****       if (URB_Status == USBH_URB_DONE)
 769:Middlewares/ST/STM32_USB_Host_Library/Core/Src/usbh_ctlreq.c ****       {
 770:Middlewares/ST/STM32_USB_Host_Library/Core/Src/usbh_ctlreq.c ****         direction = (phost->Control.setup.b.bmRequestType & USB_REQ_DIR_MASK);
 771:Middlewares/ST/STM32_USB_Host_Library/Core/Src/usbh_ctlreq.c **** 
 772:Middlewares/ST/STM32_USB_Host_Library/Core/Src/usbh_ctlreq.c ****         /* check if there is a data stage */
 773:Middlewares/ST/STM32_USB_Host_Library/Core/Src/usbh_ctlreq.c ****         if (phost->Control.setup.b.wLength.w != 0U)
 774:Middlewares/ST/STM32_USB_Host_Library/Core/Src/usbh_ctlreq.c ****         {
 775:Middlewares/ST/STM32_USB_Host_Library/Core/Src/usbh_ctlreq.c ****           if (direction == USB_D2H)
 776:Middlewares/ST/STM32_USB_Host_Library/Core/Src/usbh_ctlreq.c ****           {
 777:Middlewares/ST/STM32_USB_Host_Library/Core/Src/usbh_ctlreq.c ****             /* Data Direction is IN */
 778:Middlewares/ST/STM32_USB_Host_Library/Core/Src/usbh_ctlreq.c ****             phost->Control.state = CTRL_DATA_IN;
ARM GAS  C:\Users\stefa\AppData\Local\Temp\ccf1pQEx.s 			page 24


 779:Middlewares/ST/STM32_USB_Host_Library/Core/Src/usbh_ctlreq.c ****           }
 780:Middlewares/ST/STM32_USB_Host_Library/Core/Src/usbh_ctlreq.c ****           else
 781:Middlewares/ST/STM32_USB_Host_Library/Core/Src/usbh_ctlreq.c ****           {
 782:Middlewares/ST/STM32_USB_Host_Library/Core/Src/usbh_ctlreq.c ****             /* Data Direction is OUT */
 783:Middlewares/ST/STM32_USB_Host_Library/Core/Src/usbh_ctlreq.c ****             phost->Control.state = CTRL_DATA_OUT;
 784:Middlewares/ST/STM32_USB_Host_Library/Core/Src/usbh_ctlreq.c ****           }
 785:Middlewares/ST/STM32_USB_Host_Library/Core/Src/usbh_ctlreq.c ****         }
 786:Middlewares/ST/STM32_USB_Host_Library/Core/Src/usbh_ctlreq.c ****         /* No DATA stage */
 787:Middlewares/ST/STM32_USB_Host_Library/Core/Src/usbh_ctlreq.c ****         else
 788:Middlewares/ST/STM32_USB_Host_Library/Core/Src/usbh_ctlreq.c ****         {
 789:Middlewares/ST/STM32_USB_Host_Library/Core/Src/usbh_ctlreq.c ****           /* If there is No Data Transfer Stage */
 790:Middlewares/ST/STM32_USB_Host_Library/Core/Src/usbh_ctlreq.c ****           if (direction == USB_D2H)
 791:Middlewares/ST/STM32_USB_Host_Library/Core/Src/usbh_ctlreq.c ****           {
 792:Middlewares/ST/STM32_USB_Host_Library/Core/Src/usbh_ctlreq.c ****             /* Data Direction is IN */
 793:Middlewares/ST/STM32_USB_Host_Library/Core/Src/usbh_ctlreq.c ****             phost->Control.state = CTRL_STATUS_OUT;
 794:Middlewares/ST/STM32_USB_Host_Library/Core/Src/usbh_ctlreq.c ****           }
 795:Middlewares/ST/STM32_USB_Host_Library/Core/Src/usbh_ctlreq.c ****           else
 796:Middlewares/ST/STM32_USB_Host_Library/Core/Src/usbh_ctlreq.c ****           {
 797:Middlewares/ST/STM32_USB_Host_Library/Core/Src/usbh_ctlreq.c ****             /* Data Direction is OUT */
 798:Middlewares/ST/STM32_USB_Host_Library/Core/Src/usbh_ctlreq.c ****             phost->Control.state = CTRL_STATUS_IN;
 799:Middlewares/ST/STM32_USB_Host_Library/Core/Src/usbh_ctlreq.c ****           }
 800:Middlewares/ST/STM32_USB_Host_Library/Core/Src/usbh_ctlreq.c ****         }
 801:Middlewares/ST/STM32_USB_Host_Library/Core/Src/usbh_ctlreq.c **** 
 802:Middlewares/ST/STM32_USB_Host_Library/Core/Src/usbh_ctlreq.c **** #if (USBH_USE_OS == 1U)
 803:Middlewares/ST/STM32_USB_Host_Library/Core/Src/usbh_ctlreq.c ****         phost->os_msg = (uint32_t)USBH_CONTROL_EVENT;
 804:Middlewares/ST/STM32_USB_Host_Library/Core/Src/usbh_ctlreq.c **** #if (osCMSIS < 0x20000U)
 805:Middlewares/ST/STM32_USB_Host_Library/Core/Src/usbh_ctlreq.c ****         (void)osMessagePut(phost->os_event, phost->os_msg, 0U);
 806:Middlewares/ST/STM32_USB_Host_Library/Core/Src/usbh_ctlreq.c **** #else
 807:Middlewares/ST/STM32_USB_Host_Library/Core/Src/usbh_ctlreq.c ****         (void)osMessageQueuePut(phost->os_event, &phost->os_msg, 0U, 0U);
 808:Middlewares/ST/STM32_USB_Host_Library/Core/Src/usbh_ctlreq.c **** #endif
 809:Middlewares/ST/STM32_USB_Host_Library/Core/Src/usbh_ctlreq.c **** #endif
 810:Middlewares/ST/STM32_USB_Host_Library/Core/Src/usbh_ctlreq.c ****       }
 811:Middlewares/ST/STM32_USB_Host_Library/Core/Src/usbh_ctlreq.c ****       else
 812:Middlewares/ST/STM32_USB_Host_Library/Core/Src/usbh_ctlreq.c ****       {
 813:Middlewares/ST/STM32_USB_Host_Library/Core/Src/usbh_ctlreq.c ****         if ((URB_Status == USBH_URB_ERROR) || (URB_Status == USBH_URB_NOTREADY))
 814:Middlewares/ST/STM32_USB_Host_Library/Core/Src/usbh_ctlreq.c ****         {
 815:Middlewares/ST/STM32_USB_Host_Library/Core/Src/usbh_ctlreq.c ****           phost->Control.state = CTRL_ERROR;
 816:Middlewares/ST/STM32_USB_Host_Library/Core/Src/usbh_ctlreq.c **** 
 817:Middlewares/ST/STM32_USB_Host_Library/Core/Src/usbh_ctlreq.c **** #if (USBH_USE_OS == 1U)
 818:Middlewares/ST/STM32_USB_Host_Library/Core/Src/usbh_ctlreq.c ****           phost->os_msg = (uint32_t)USBH_CONTROL_EVENT;
 819:Middlewares/ST/STM32_USB_Host_Library/Core/Src/usbh_ctlreq.c **** #if (osCMSIS < 0x20000U)
 820:Middlewares/ST/STM32_USB_Host_Library/Core/Src/usbh_ctlreq.c ****           (void)osMessagePut(phost->os_event, phost->os_msg, 0U);
 821:Middlewares/ST/STM32_USB_Host_Library/Core/Src/usbh_ctlreq.c **** #else
 822:Middlewares/ST/STM32_USB_Host_Library/Core/Src/usbh_ctlreq.c ****           (void)osMessageQueuePut(phost->os_event, &phost->os_msg, 0U, 0U);
 823:Middlewares/ST/STM32_USB_Host_Library/Core/Src/usbh_ctlreq.c **** #endif
 824:Middlewares/ST/STM32_USB_Host_Library/Core/Src/usbh_ctlreq.c **** #endif
 825:Middlewares/ST/STM32_USB_Host_Library/Core/Src/usbh_ctlreq.c ****         }
 826:Middlewares/ST/STM32_USB_Host_Library/Core/Src/usbh_ctlreq.c ****       }
 827:Middlewares/ST/STM32_USB_Host_Library/Core/Src/usbh_ctlreq.c ****       break;
 828:Middlewares/ST/STM32_USB_Host_Library/Core/Src/usbh_ctlreq.c **** 
 829:Middlewares/ST/STM32_USB_Host_Library/Core/Src/usbh_ctlreq.c ****     case CTRL_DATA_IN:
 830:Middlewares/ST/STM32_USB_Host_Library/Core/Src/usbh_ctlreq.c ****       /* Issue an IN token */
 831:Middlewares/ST/STM32_USB_Host_Library/Core/Src/usbh_ctlreq.c ****       phost->Control.timer = (uint16_t)phost->Timer;
 832:Middlewares/ST/STM32_USB_Host_Library/Core/Src/usbh_ctlreq.c ****       (void)USBH_CtlReceiveData(phost, phost->Control.buff,
 833:Middlewares/ST/STM32_USB_Host_Library/Core/Src/usbh_ctlreq.c ****                                 phost->Control.length, phost->Control.pipe_in);
 834:Middlewares/ST/STM32_USB_Host_Library/Core/Src/usbh_ctlreq.c **** 
 835:Middlewares/ST/STM32_USB_Host_Library/Core/Src/usbh_ctlreq.c ****       phost->Control.state = CTRL_DATA_IN_WAIT;
ARM GAS  C:\Users\stefa\AppData\Local\Temp\ccf1pQEx.s 			page 25


 836:Middlewares/ST/STM32_USB_Host_Library/Core/Src/usbh_ctlreq.c ****       break;
 837:Middlewares/ST/STM32_USB_Host_Library/Core/Src/usbh_ctlreq.c **** 
 838:Middlewares/ST/STM32_USB_Host_Library/Core/Src/usbh_ctlreq.c ****     case CTRL_DATA_IN_WAIT:
 839:Middlewares/ST/STM32_USB_Host_Library/Core/Src/usbh_ctlreq.c **** 
 840:Middlewares/ST/STM32_USB_Host_Library/Core/Src/usbh_ctlreq.c ****       URB_Status = USBH_LL_GetURBState(phost, phost->Control.pipe_in);
 841:Middlewares/ST/STM32_USB_Host_Library/Core/Src/usbh_ctlreq.c **** 
 842:Middlewares/ST/STM32_USB_Host_Library/Core/Src/usbh_ctlreq.c ****       /* check is DATA packet transferred successfully */
 843:Middlewares/ST/STM32_USB_Host_Library/Core/Src/usbh_ctlreq.c ****       if (URB_Status == USBH_URB_DONE)
 844:Middlewares/ST/STM32_USB_Host_Library/Core/Src/usbh_ctlreq.c ****       {
 845:Middlewares/ST/STM32_USB_Host_Library/Core/Src/usbh_ctlreq.c ****         phost->Control.state = CTRL_STATUS_OUT;
 846:Middlewares/ST/STM32_USB_Host_Library/Core/Src/usbh_ctlreq.c **** 
 847:Middlewares/ST/STM32_USB_Host_Library/Core/Src/usbh_ctlreq.c **** #if (USBH_USE_OS == 1U)
 848:Middlewares/ST/STM32_USB_Host_Library/Core/Src/usbh_ctlreq.c ****         phost->os_msg = (uint32_t)USBH_CONTROL_EVENT;
 849:Middlewares/ST/STM32_USB_Host_Library/Core/Src/usbh_ctlreq.c **** #if (osCMSIS < 0x20000U)
 850:Middlewares/ST/STM32_USB_Host_Library/Core/Src/usbh_ctlreq.c ****         (void)osMessagePut(phost->os_event, phost->os_msg, 0U);
 851:Middlewares/ST/STM32_USB_Host_Library/Core/Src/usbh_ctlreq.c **** #else
 852:Middlewares/ST/STM32_USB_Host_Library/Core/Src/usbh_ctlreq.c ****         (void)osMessageQueuePut(phost->os_event, &phost->os_msg, 0U, 0U);
 853:Middlewares/ST/STM32_USB_Host_Library/Core/Src/usbh_ctlreq.c **** #endif
 854:Middlewares/ST/STM32_USB_Host_Library/Core/Src/usbh_ctlreq.c **** #endif
 855:Middlewares/ST/STM32_USB_Host_Library/Core/Src/usbh_ctlreq.c ****       }
 856:Middlewares/ST/STM32_USB_Host_Library/Core/Src/usbh_ctlreq.c **** 
 857:Middlewares/ST/STM32_USB_Host_Library/Core/Src/usbh_ctlreq.c ****       /* manage error cases*/
 858:Middlewares/ST/STM32_USB_Host_Library/Core/Src/usbh_ctlreq.c ****       if (URB_Status == USBH_URB_STALL)
 859:Middlewares/ST/STM32_USB_Host_Library/Core/Src/usbh_ctlreq.c ****       {
 860:Middlewares/ST/STM32_USB_Host_Library/Core/Src/usbh_ctlreq.c ****         /* In stall case, return to previous machine state*/
 861:Middlewares/ST/STM32_USB_Host_Library/Core/Src/usbh_ctlreq.c ****         status = USBH_NOT_SUPPORTED;
 862:Middlewares/ST/STM32_USB_Host_Library/Core/Src/usbh_ctlreq.c **** 
 863:Middlewares/ST/STM32_USB_Host_Library/Core/Src/usbh_ctlreq.c **** #if (USBH_USE_OS == 1U)
 864:Middlewares/ST/STM32_USB_Host_Library/Core/Src/usbh_ctlreq.c ****         phost->os_msg = (uint32_t)USBH_CONTROL_EVENT;
 865:Middlewares/ST/STM32_USB_Host_Library/Core/Src/usbh_ctlreq.c **** #if (osCMSIS < 0x20000U)
 866:Middlewares/ST/STM32_USB_Host_Library/Core/Src/usbh_ctlreq.c ****         (void)osMessagePut(phost->os_event, phost->os_msg, 0U);
 867:Middlewares/ST/STM32_USB_Host_Library/Core/Src/usbh_ctlreq.c **** #else
 868:Middlewares/ST/STM32_USB_Host_Library/Core/Src/usbh_ctlreq.c ****         (void)osMessageQueuePut(phost->os_event, &phost->os_msg, 0U, 0U);
 869:Middlewares/ST/STM32_USB_Host_Library/Core/Src/usbh_ctlreq.c **** #endif
 870:Middlewares/ST/STM32_USB_Host_Library/Core/Src/usbh_ctlreq.c **** #endif
 871:Middlewares/ST/STM32_USB_Host_Library/Core/Src/usbh_ctlreq.c ****       }
 872:Middlewares/ST/STM32_USB_Host_Library/Core/Src/usbh_ctlreq.c ****       else
 873:Middlewares/ST/STM32_USB_Host_Library/Core/Src/usbh_ctlreq.c ****       {
 874:Middlewares/ST/STM32_USB_Host_Library/Core/Src/usbh_ctlreq.c ****         if (URB_Status == USBH_URB_ERROR)
 875:Middlewares/ST/STM32_USB_Host_Library/Core/Src/usbh_ctlreq.c ****         {
 876:Middlewares/ST/STM32_USB_Host_Library/Core/Src/usbh_ctlreq.c ****           /* Device error */
 877:Middlewares/ST/STM32_USB_Host_Library/Core/Src/usbh_ctlreq.c ****           phost->Control.state = CTRL_ERROR;
 878:Middlewares/ST/STM32_USB_Host_Library/Core/Src/usbh_ctlreq.c **** 
 879:Middlewares/ST/STM32_USB_Host_Library/Core/Src/usbh_ctlreq.c **** #if (USBH_USE_OS == 1U)
 880:Middlewares/ST/STM32_USB_Host_Library/Core/Src/usbh_ctlreq.c ****           phost->os_msg = (uint32_t)USBH_CONTROL_EVENT;
 881:Middlewares/ST/STM32_USB_Host_Library/Core/Src/usbh_ctlreq.c **** #if (osCMSIS < 0x20000U)
 882:Middlewares/ST/STM32_USB_Host_Library/Core/Src/usbh_ctlreq.c ****           (void)osMessagePut(phost->os_event, phost->os_msg, 0U);
 883:Middlewares/ST/STM32_USB_Host_Library/Core/Src/usbh_ctlreq.c **** #else
 884:Middlewares/ST/STM32_USB_Host_Library/Core/Src/usbh_ctlreq.c ****           (void)osMessageQueuePut(phost->os_event, &phost->os_msg, 0U, 0U);
 885:Middlewares/ST/STM32_USB_Host_Library/Core/Src/usbh_ctlreq.c **** #endif
 886:Middlewares/ST/STM32_USB_Host_Library/Core/Src/usbh_ctlreq.c **** #endif
 887:Middlewares/ST/STM32_USB_Host_Library/Core/Src/usbh_ctlreq.c ****         }
 888:Middlewares/ST/STM32_USB_Host_Library/Core/Src/usbh_ctlreq.c ****       }
 889:Middlewares/ST/STM32_USB_Host_Library/Core/Src/usbh_ctlreq.c ****       break;
 890:Middlewares/ST/STM32_USB_Host_Library/Core/Src/usbh_ctlreq.c **** 
 891:Middlewares/ST/STM32_USB_Host_Library/Core/Src/usbh_ctlreq.c ****     case CTRL_DATA_OUT:
 892:Middlewares/ST/STM32_USB_Host_Library/Core/Src/usbh_ctlreq.c **** 
ARM GAS  C:\Users\stefa\AppData\Local\Temp\ccf1pQEx.s 			page 26


 893:Middlewares/ST/STM32_USB_Host_Library/Core/Src/usbh_ctlreq.c ****       (void)USBH_CtlSendData(phost, phost->Control.buff, phost->Control.length,
 894:Middlewares/ST/STM32_USB_Host_Library/Core/Src/usbh_ctlreq.c ****                              phost->Control.pipe_out, 1U);
 895:Middlewares/ST/STM32_USB_Host_Library/Core/Src/usbh_ctlreq.c **** 
 896:Middlewares/ST/STM32_USB_Host_Library/Core/Src/usbh_ctlreq.c ****       phost->Control.timer = (uint16_t)phost->Timer;
 897:Middlewares/ST/STM32_USB_Host_Library/Core/Src/usbh_ctlreq.c ****       phost->Control.state = CTRL_DATA_OUT_WAIT;
 898:Middlewares/ST/STM32_USB_Host_Library/Core/Src/usbh_ctlreq.c ****       break;
 899:Middlewares/ST/STM32_USB_Host_Library/Core/Src/usbh_ctlreq.c **** 
 900:Middlewares/ST/STM32_USB_Host_Library/Core/Src/usbh_ctlreq.c ****     case CTRL_DATA_OUT_WAIT:
 901:Middlewares/ST/STM32_USB_Host_Library/Core/Src/usbh_ctlreq.c **** 
 902:Middlewares/ST/STM32_USB_Host_Library/Core/Src/usbh_ctlreq.c ****       URB_Status = USBH_LL_GetURBState(phost, phost->Control.pipe_out);
 903:Middlewares/ST/STM32_USB_Host_Library/Core/Src/usbh_ctlreq.c **** 
 904:Middlewares/ST/STM32_USB_Host_Library/Core/Src/usbh_ctlreq.c ****       if (URB_Status == USBH_URB_DONE)
 905:Middlewares/ST/STM32_USB_Host_Library/Core/Src/usbh_ctlreq.c ****       {
 906:Middlewares/ST/STM32_USB_Host_Library/Core/Src/usbh_ctlreq.c ****         /* If the Setup Pkt is sent successful, then change the state */
 907:Middlewares/ST/STM32_USB_Host_Library/Core/Src/usbh_ctlreq.c ****         phost->Control.state = CTRL_STATUS_IN;
 908:Middlewares/ST/STM32_USB_Host_Library/Core/Src/usbh_ctlreq.c **** 
 909:Middlewares/ST/STM32_USB_Host_Library/Core/Src/usbh_ctlreq.c **** #if (USBH_USE_OS == 1U)
 910:Middlewares/ST/STM32_USB_Host_Library/Core/Src/usbh_ctlreq.c ****         phost->os_msg = (uint32_t)USBH_CONTROL_EVENT;
 911:Middlewares/ST/STM32_USB_Host_Library/Core/Src/usbh_ctlreq.c **** #if (osCMSIS < 0x20000U)
 912:Middlewares/ST/STM32_USB_Host_Library/Core/Src/usbh_ctlreq.c ****         (void)osMessagePut(phost->os_event, phost->os_msg, 0U);
 913:Middlewares/ST/STM32_USB_Host_Library/Core/Src/usbh_ctlreq.c **** #else
 914:Middlewares/ST/STM32_USB_Host_Library/Core/Src/usbh_ctlreq.c ****         (void)osMessageQueuePut(phost->os_event, &phost->os_msg, 0U, 0U);
 915:Middlewares/ST/STM32_USB_Host_Library/Core/Src/usbh_ctlreq.c **** #endif
 916:Middlewares/ST/STM32_USB_Host_Library/Core/Src/usbh_ctlreq.c **** #endif
 917:Middlewares/ST/STM32_USB_Host_Library/Core/Src/usbh_ctlreq.c ****       }
 918:Middlewares/ST/STM32_USB_Host_Library/Core/Src/usbh_ctlreq.c **** 
 919:Middlewares/ST/STM32_USB_Host_Library/Core/Src/usbh_ctlreq.c ****       /* handle error cases */
 920:Middlewares/ST/STM32_USB_Host_Library/Core/Src/usbh_ctlreq.c ****       else if (URB_Status == USBH_URB_STALL)
 921:Middlewares/ST/STM32_USB_Host_Library/Core/Src/usbh_ctlreq.c ****       {
 922:Middlewares/ST/STM32_USB_Host_Library/Core/Src/usbh_ctlreq.c ****         /* In stall case, return to previous machine state*/
 923:Middlewares/ST/STM32_USB_Host_Library/Core/Src/usbh_ctlreq.c ****         phost->Control.state = CTRL_STALLED;
 924:Middlewares/ST/STM32_USB_Host_Library/Core/Src/usbh_ctlreq.c ****         status = USBH_NOT_SUPPORTED;
 925:Middlewares/ST/STM32_USB_Host_Library/Core/Src/usbh_ctlreq.c **** 
 926:Middlewares/ST/STM32_USB_Host_Library/Core/Src/usbh_ctlreq.c **** #if (USBH_USE_OS == 1U)
 927:Middlewares/ST/STM32_USB_Host_Library/Core/Src/usbh_ctlreq.c ****         phost->os_msg = (uint32_t)USBH_CONTROL_EVENT;
 928:Middlewares/ST/STM32_USB_Host_Library/Core/Src/usbh_ctlreq.c **** #if (osCMSIS < 0x20000U)
 929:Middlewares/ST/STM32_USB_Host_Library/Core/Src/usbh_ctlreq.c ****         (void)osMessagePut(phost->os_event, phost->os_msg, 0U);
 930:Middlewares/ST/STM32_USB_Host_Library/Core/Src/usbh_ctlreq.c **** #else
 931:Middlewares/ST/STM32_USB_Host_Library/Core/Src/usbh_ctlreq.c ****         (void)osMessageQueuePut(phost->os_event, &phost->os_msg, 0U, 0U);
 932:Middlewares/ST/STM32_USB_Host_Library/Core/Src/usbh_ctlreq.c **** #endif
 933:Middlewares/ST/STM32_USB_Host_Library/Core/Src/usbh_ctlreq.c **** #endif
 934:Middlewares/ST/STM32_USB_Host_Library/Core/Src/usbh_ctlreq.c ****       }
 935:Middlewares/ST/STM32_USB_Host_Library/Core/Src/usbh_ctlreq.c ****       else if (URB_Status == USBH_URB_NOTREADY)
 936:Middlewares/ST/STM32_USB_Host_Library/Core/Src/usbh_ctlreq.c ****       {
 937:Middlewares/ST/STM32_USB_Host_Library/Core/Src/usbh_ctlreq.c ****         /* Nack received from device */
 938:Middlewares/ST/STM32_USB_Host_Library/Core/Src/usbh_ctlreq.c ****         phost->Control.state = CTRL_DATA_OUT;
 939:Middlewares/ST/STM32_USB_Host_Library/Core/Src/usbh_ctlreq.c **** 
 940:Middlewares/ST/STM32_USB_Host_Library/Core/Src/usbh_ctlreq.c **** #if (USBH_USE_OS == 1U)
 941:Middlewares/ST/STM32_USB_Host_Library/Core/Src/usbh_ctlreq.c ****         phost->os_msg = (uint32_t)USBH_CONTROL_EVENT;
 942:Middlewares/ST/STM32_USB_Host_Library/Core/Src/usbh_ctlreq.c **** #if (osCMSIS < 0x20000U)
 943:Middlewares/ST/STM32_USB_Host_Library/Core/Src/usbh_ctlreq.c ****         (void)osMessagePut(phost->os_event, phost->os_msg, 0U);
 944:Middlewares/ST/STM32_USB_Host_Library/Core/Src/usbh_ctlreq.c **** #else
 945:Middlewares/ST/STM32_USB_Host_Library/Core/Src/usbh_ctlreq.c ****         (void)osMessageQueuePut(phost->os_event, &phost->os_msg, 0U, 0U);
 946:Middlewares/ST/STM32_USB_Host_Library/Core/Src/usbh_ctlreq.c **** #endif
 947:Middlewares/ST/STM32_USB_Host_Library/Core/Src/usbh_ctlreq.c **** #endif
 948:Middlewares/ST/STM32_USB_Host_Library/Core/Src/usbh_ctlreq.c ****       }
 949:Middlewares/ST/STM32_USB_Host_Library/Core/Src/usbh_ctlreq.c ****       else
ARM GAS  C:\Users\stefa\AppData\Local\Temp\ccf1pQEx.s 			page 27


 950:Middlewares/ST/STM32_USB_Host_Library/Core/Src/usbh_ctlreq.c ****       {
 951:Middlewares/ST/STM32_USB_Host_Library/Core/Src/usbh_ctlreq.c ****         if (URB_Status == USBH_URB_ERROR)
 952:Middlewares/ST/STM32_USB_Host_Library/Core/Src/usbh_ctlreq.c ****         {
 953:Middlewares/ST/STM32_USB_Host_Library/Core/Src/usbh_ctlreq.c ****           /* device error */
 954:Middlewares/ST/STM32_USB_Host_Library/Core/Src/usbh_ctlreq.c ****           phost->Control.state = CTRL_ERROR;
 955:Middlewares/ST/STM32_USB_Host_Library/Core/Src/usbh_ctlreq.c ****           status = USBH_FAIL;
 956:Middlewares/ST/STM32_USB_Host_Library/Core/Src/usbh_ctlreq.c **** 
 957:Middlewares/ST/STM32_USB_Host_Library/Core/Src/usbh_ctlreq.c **** #if (USBH_USE_OS == 1U)
 958:Middlewares/ST/STM32_USB_Host_Library/Core/Src/usbh_ctlreq.c ****           phost->os_msg = (uint32_t)USBH_CONTROL_EVENT;
 959:Middlewares/ST/STM32_USB_Host_Library/Core/Src/usbh_ctlreq.c **** #if (osCMSIS < 0x20000U)
 960:Middlewares/ST/STM32_USB_Host_Library/Core/Src/usbh_ctlreq.c ****           (void)osMessagePut(phost->os_event, phost->os_msg, 0U);
 961:Middlewares/ST/STM32_USB_Host_Library/Core/Src/usbh_ctlreq.c **** #else
 962:Middlewares/ST/STM32_USB_Host_Library/Core/Src/usbh_ctlreq.c ****           (void)osMessageQueuePut(phost->os_event, &phost->os_msg, 0U, 0U);
 963:Middlewares/ST/STM32_USB_Host_Library/Core/Src/usbh_ctlreq.c **** #endif
 964:Middlewares/ST/STM32_USB_Host_Library/Core/Src/usbh_ctlreq.c **** #endif
 965:Middlewares/ST/STM32_USB_Host_Library/Core/Src/usbh_ctlreq.c ****         }
 966:Middlewares/ST/STM32_USB_Host_Library/Core/Src/usbh_ctlreq.c ****       }
 967:Middlewares/ST/STM32_USB_Host_Library/Core/Src/usbh_ctlreq.c ****       break;
 968:Middlewares/ST/STM32_USB_Host_Library/Core/Src/usbh_ctlreq.c **** 
 969:Middlewares/ST/STM32_USB_Host_Library/Core/Src/usbh_ctlreq.c ****     case CTRL_STATUS_IN:
 970:Middlewares/ST/STM32_USB_Host_Library/Core/Src/usbh_ctlreq.c ****       /* Send 0 bytes out packet */
 971:Middlewares/ST/STM32_USB_Host_Library/Core/Src/usbh_ctlreq.c ****       (void)USBH_CtlReceiveData(phost, NULL, 0U, phost->Control.pipe_in);
 972:Middlewares/ST/STM32_USB_Host_Library/Core/Src/usbh_ctlreq.c **** 
 973:Middlewares/ST/STM32_USB_Host_Library/Core/Src/usbh_ctlreq.c ****       phost->Control.timer = (uint16_t)phost->Timer;
 974:Middlewares/ST/STM32_USB_Host_Library/Core/Src/usbh_ctlreq.c ****       phost->Control.state = CTRL_STATUS_IN_WAIT;
 975:Middlewares/ST/STM32_USB_Host_Library/Core/Src/usbh_ctlreq.c **** 
 976:Middlewares/ST/STM32_USB_Host_Library/Core/Src/usbh_ctlreq.c ****       break;
 977:Middlewares/ST/STM32_USB_Host_Library/Core/Src/usbh_ctlreq.c **** 
 978:Middlewares/ST/STM32_USB_Host_Library/Core/Src/usbh_ctlreq.c ****     case CTRL_STATUS_IN_WAIT:
 979:Middlewares/ST/STM32_USB_Host_Library/Core/Src/usbh_ctlreq.c **** 
 980:Middlewares/ST/STM32_USB_Host_Library/Core/Src/usbh_ctlreq.c ****       URB_Status = USBH_LL_GetURBState(phost, phost->Control.pipe_in);
 981:Middlewares/ST/STM32_USB_Host_Library/Core/Src/usbh_ctlreq.c **** 
 982:Middlewares/ST/STM32_USB_Host_Library/Core/Src/usbh_ctlreq.c ****       if (URB_Status == USBH_URB_DONE)
 983:Middlewares/ST/STM32_USB_Host_Library/Core/Src/usbh_ctlreq.c ****       {
 984:Middlewares/ST/STM32_USB_Host_Library/Core/Src/usbh_ctlreq.c ****         /* Control transfers completed, Exit the State Machine */
 985:Middlewares/ST/STM32_USB_Host_Library/Core/Src/usbh_ctlreq.c ****         phost->Control.state = CTRL_COMPLETE;
 986:Middlewares/ST/STM32_USB_Host_Library/Core/Src/usbh_ctlreq.c ****         status = USBH_OK;
 987:Middlewares/ST/STM32_USB_Host_Library/Core/Src/usbh_ctlreq.c **** 
 988:Middlewares/ST/STM32_USB_Host_Library/Core/Src/usbh_ctlreq.c **** #if (USBH_USE_OS == 1U)
 989:Middlewares/ST/STM32_USB_Host_Library/Core/Src/usbh_ctlreq.c ****         phost->os_msg = (uint32_t)USBH_CONTROL_EVENT;
 990:Middlewares/ST/STM32_USB_Host_Library/Core/Src/usbh_ctlreq.c **** #if (osCMSIS < 0x20000U)
 991:Middlewares/ST/STM32_USB_Host_Library/Core/Src/usbh_ctlreq.c ****         (void)osMessagePut(phost->os_event, phost->os_msg, 0U);
 992:Middlewares/ST/STM32_USB_Host_Library/Core/Src/usbh_ctlreq.c **** #else
 993:Middlewares/ST/STM32_USB_Host_Library/Core/Src/usbh_ctlreq.c ****         (void)osMessageQueuePut(phost->os_event, &phost->os_msg, 0U, 0U);
 994:Middlewares/ST/STM32_USB_Host_Library/Core/Src/usbh_ctlreq.c **** #endif
 995:Middlewares/ST/STM32_USB_Host_Library/Core/Src/usbh_ctlreq.c **** #endif
 996:Middlewares/ST/STM32_USB_Host_Library/Core/Src/usbh_ctlreq.c ****       }
 997:Middlewares/ST/STM32_USB_Host_Library/Core/Src/usbh_ctlreq.c ****       else if (URB_Status == USBH_URB_ERROR)
 998:Middlewares/ST/STM32_USB_Host_Library/Core/Src/usbh_ctlreq.c ****       {
 999:Middlewares/ST/STM32_USB_Host_Library/Core/Src/usbh_ctlreq.c ****         phost->Control.state = CTRL_ERROR;
1000:Middlewares/ST/STM32_USB_Host_Library/Core/Src/usbh_ctlreq.c **** 
1001:Middlewares/ST/STM32_USB_Host_Library/Core/Src/usbh_ctlreq.c **** #if (USBH_USE_OS == 1U)
1002:Middlewares/ST/STM32_USB_Host_Library/Core/Src/usbh_ctlreq.c ****         phost->os_msg = (uint32_t)USBH_CONTROL_EVENT;
1003:Middlewares/ST/STM32_USB_Host_Library/Core/Src/usbh_ctlreq.c **** #if (osCMSIS < 0x20000U)
1004:Middlewares/ST/STM32_USB_Host_Library/Core/Src/usbh_ctlreq.c ****         (void)osMessagePut(phost->os_event, phost->os_msg, 0U);
1005:Middlewares/ST/STM32_USB_Host_Library/Core/Src/usbh_ctlreq.c **** #else
1006:Middlewares/ST/STM32_USB_Host_Library/Core/Src/usbh_ctlreq.c ****         (void)osMessageQueuePut(phost->os_event, &phost->os_msg, 0U, 0U);
ARM GAS  C:\Users\stefa\AppData\Local\Temp\ccf1pQEx.s 			page 28


1007:Middlewares/ST/STM32_USB_Host_Library/Core/Src/usbh_ctlreq.c **** #endif
1008:Middlewares/ST/STM32_USB_Host_Library/Core/Src/usbh_ctlreq.c **** #endif
1009:Middlewares/ST/STM32_USB_Host_Library/Core/Src/usbh_ctlreq.c ****       }
1010:Middlewares/ST/STM32_USB_Host_Library/Core/Src/usbh_ctlreq.c ****       else
1011:Middlewares/ST/STM32_USB_Host_Library/Core/Src/usbh_ctlreq.c ****       {
1012:Middlewares/ST/STM32_USB_Host_Library/Core/Src/usbh_ctlreq.c ****         if (URB_Status == USBH_URB_STALL)
1013:Middlewares/ST/STM32_USB_Host_Library/Core/Src/usbh_ctlreq.c ****         {
1014:Middlewares/ST/STM32_USB_Host_Library/Core/Src/usbh_ctlreq.c ****           /* Control transfers completed, Exit the State Machine */
1015:Middlewares/ST/STM32_USB_Host_Library/Core/Src/usbh_ctlreq.c ****           status = USBH_NOT_SUPPORTED;
1016:Middlewares/ST/STM32_USB_Host_Library/Core/Src/usbh_ctlreq.c **** 
1017:Middlewares/ST/STM32_USB_Host_Library/Core/Src/usbh_ctlreq.c **** #if (USBH_USE_OS == 1U)
1018:Middlewares/ST/STM32_USB_Host_Library/Core/Src/usbh_ctlreq.c ****           phost->os_msg = (uint32_t)USBH_CONTROL_EVENT;
1019:Middlewares/ST/STM32_USB_Host_Library/Core/Src/usbh_ctlreq.c **** #if (osCMSIS < 0x20000U)
1020:Middlewares/ST/STM32_USB_Host_Library/Core/Src/usbh_ctlreq.c ****           (void)osMessagePut(phost->os_event, phost->os_msg, 0U);
1021:Middlewares/ST/STM32_USB_Host_Library/Core/Src/usbh_ctlreq.c **** #else
1022:Middlewares/ST/STM32_USB_Host_Library/Core/Src/usbh_ctlreq.c ****           (void)osMessageQueuePut(phost->os_event, &phost->os_msg, 0U, 0U);
1023:Middlewares/ST/STM32_USB_Host_Library/Core/Src/usbh_ctlreq.c **** #endif
1024:Middlewares/ST/STM32_USB_Host_Library/Core/Src/usbh_ctlreq.c **** #endif
1025:Middlewares/ST/STM32_USB_Host_Library/Core/Src/usbh_ctlreq.c ****         }
1026:Middlewares/ST/STM32_USB_Host_Library/Core/Src/usbh_ctlreq.c ****       }
1027:Middlewares/ST/STM32_USB_Host_Library/Core/Src/usbh_ctlreq.c ****       break;
1028:Middlewares/ST/STM32_USB_Host_Library/Core/Src/usbh_ctlreq.c **** 
1029:Middlewares/ST/STM32_USB_Host_Library/Core/Src/usbh_ctlreq.c ****     case CTRL_STATUS_OUT:
1030:Middlewares/ST/STM32_USB_Host_Library/Core/Src/usbh_ctlreq.c ****       (void)USBH_CtlSendData(phost, NULL, 0U, phost->Control.pipe_out, 1U);
1031:Middlewares/ST/STM32_USB_Host_Library/Core/Src/usbh_ctlreq.c **** 
1032:Middlewares/ST/STM32_USB_Host_Library/Core/Src/usbh_ctlreq.c ****       phost->Control.timer = (uint16_t)phost->Timer;
1033:Middlewares/ST/STM32_USB_Host_Library/Core/Src/usbh_ctlreq.c ****       phost->Control.state = CTRL_STATUS_OUT_WAIT;
1034:Middlewares/ST/STM32_USB_Host_Library/Core/Src/usbh_ctlreq.c ****       break;
1035:Middlewares/ST/STM32_USB_Host_Library/Core/Src/usbh_ctlreq.c **** 
1036:Middlewares/ST/STM32_USB_Host_Library/Core/Src/usbh_ctlreq.c ****     case CTRL_STATUS_OUT_WAIT:
1037:Middlewares/ST/STM32_USB_Host_Library/Core/Src/usbh_ctlreq.c ****       URB_Status = USBH_LL_GetURBState(phost, phost->Control.pipe_out);
1038:Middlewares/ST/STM32_USB_Host_Library/Core/Src/usbh_ctlreq.c ****       if (URB_Status == USBH_URB_DONE)
1039:Middlewares/ST/STM32_USB_Host_Library/Core/Src/usbh_ctlreq.c ****       {
1040:Middlewares/ST/STM32_USB_Host_Library/Core/Src/usbh_ctlreq.c ****         status = USBH_OK;
1041:Middlewares/ST/STM32_USB_Host_Library/Core/Src/usbh_ctlreq.c ****         phost->Control.state = CTRL_COMPLETE;
1042:Middlewares/ST/STM32_USB_Host_Library/Core/Src/usbh_ctlreq.c **** 
1043:Middlewares/ST/STM32_USB_Host_Library/Core/Src/usbh_ctlreq.c **** #if (USBH_USE_OS == 1U)
1044:Middlewares/ST/STM32_USB_Host_Library/Core/Src/usbh_ctlreq.c ****         phost->os_msg = (uint32_t)USBH_CONTROL_EVENT;
1045:Middlewares/ST/STM32_USB_Host_Library/Core/Src/usbh_ctlreq.c **** #if (osCMSIS < 0x20000U)
1046:Middlewares/ST/STM32_USB_Host_Library/Core/Src/usbh_ctlreq.c ****         (void)osMessagePut(phost->os_event, phost->os_msg, 0U);
1047:Middlewares/ST/STM32_USB_Host_Library/Core/Src/usbh_ctlreq.c **** #else
1048:Middlewares/ST/STM32_USB_Host_Library/Core/Src/usbh_ctlreq.c ****         (void)osMessageQueuePut(phost->os_event, &phost->os_msg, 0U, 0U);
1049:Middlewares/ST/STM32_USB_Host_Library/Core/Src/usbh_ctlreq.c **** #endif
1050:Middlewares/ST/STM32_USB_Host_Library/Core/Src/usbh_ctlreq.c **** #endif
1051:Middlewares/ST/STM32_USB_Host_Library/Core/Src/usbh_ctlreq.c ****       }
1052:Middlewares/ST/STM32_USB_Host_Library/Core/Src/usbh_ctlreq.c ****       else if (URB_Status == USBH_URB_NOTREADY)
1053:Middlewares/ST/STM32_USB_Host_Library/Core/Src/usbh_ctlreq.c ****       {
1054:Middlewares/ST/STM32_USB_Host_Library/Core/Src/usbh_ctlreq.c ****         phost->Control.state = CTRL_STATUS_OUT;
1055:Middlewares/ST/STM32_USB_Host_Library/Core/Src/usbh_ctlreq.c **** 
1056:Middlewares/ST/STM32_USB_Host_Library/Core/Src/usbh_ctlreq.c **** #if (USBH_USE_OS == 1U)
1057:Middlewares/ST/STM32_USB_Host_Library/Core/Src/usbh_ctlreq.c ****         phost->os_msg = (uint32_t)USBH_CONTROL_EVENT;
1058:Middlewares/ST/STM32_USB_Host_Library/Core/Src/usbh_ctlreq.c **** #if (osCMSIS < 0x20000U)
1059:Middlewares/ST/STM32_USB_Host_Library/Core/Src/usbh_ctlreq.c ****         (void)osMessagePut(phost->os_event, phost->os_msg, 0U);
1060:Middlewares/ST/STM32_USB_Host_Library/Core/Src/usbh_ctlreq.c **** #else
1061:Middlewares/ST/STM32_USB_Host_Library/Core/Src/usbh_ctlreq.c ****         (void)osMessageQueuePut(phost->os_event, &phost->os_msg, 0U, 0U);
1062:Middlewares/ST/STM32_USB_Host_Library/Core/Src/usbh_ctlreq.c **** #endif
1063:Middlewares/ST/STM32_USB_Host_Library/Core/Src/usbh_ctlreq.c **** #endif
ARM GAS  C:\Users\stefa\AppData\Local\Temp\ccf1pQEx.s 			page 29


1064:Middlewares/ST/STM32_USB_Host_Library/Core/Src/usbh_ctlreq.c ****       }
1065:Middlewares/ST/STM32_USB_Host_Library/Core/Src/usbh_ctlreq.c ****       else
1066:Middlewares/ST/STM32_USB_Host_Library/Core/Src/usbh_ctlreq.c ****       {
1067:Middlewares/ST/STM32_USB_Host_Library/Core/Src/usbh_ctlreq.c ****         if (URB_Status == USBH_URB_ERROR)
1068:Middlewares/ST/STM32_USB_Host_Library/Core/Src/usbh_ctlreq.c ****         {
1069:Middlewares/ST/STM32_USB_Host_Library/Core/Src/usbh_ctlreq.c ****           phost->Control.state = CTRL_ERROR;
1070:Middlewares/ST/STM32_USB_Host_Library/Core/Src/usbh_ctlreq.c **** 
1071:Middlewares/ST/STM32_USB_Host_Library/Core/Src/usbh_ctlreq.c **** #if (USBH_USE_OS == 1U)
1072:Middlewares/ST/STM32_USB_Host_Library/Core/Src/usbh_ctlreq.c ****           phost->os_msg = (uint32_t)USBH_CONTROL_EVENT;
1073:Middlewares/ST/STM32_USB_Host_Library/Core/Src/usbh_ctlreq.c **** #if (osCMSIS < 0x20000U)
1074:Middlewares/ST/STM32_USB_Host_Library/Core/Src/usbh_ctlreq.c ****           (void)osMessagePut(phost->os_event, phost->os_msg, 0U);
1075:Middlewares/ST/STM32_USB_Host_Library/Core/Src/usbh_ctlreq.c **** #else
1076:Middlewares/ST/STM32_USB_Host_Library/Core/Src/usbh_ctlreq.c ****           (void)osMessageQueuePut(phost->os_event, &phost->os_msg, 0U, 0U);
1077:Middlewares/ST/STM32_USB_Host_Library/Core/Src/usbh_ctlreq.c **** #endif
1078:Middlewares/ST/STM32_USB_Host_Library/Core/Src/usbh_ctlreq.c **** #endif
1079:Middlewares/ST/STM32_USB_Host_Library/Core/Src/usbh_ctlreq.c ****         }
1080:Middlewares/ST/STM32_USB_Host_Library/Core/Src/usbh_ctlreq.c ****       }
1081:Middlewares/ST/STM32_USB_Host_Library/Core/Src/usbh_ctlreq.c ****       break;
1082:Middlewares/ST/STM32_USB_Host_Library/Core/Src/usbh_ctlreq.c **** 
1083:Middlewares/ST/STM32_USB_Host_Library/Core/Src/usbh_ctlreq.c ****     case CTRL_ERROR:
1084:Middlewares/ST/STM32_USB_Host_Library/Core/Src/usbh_ctlreq.c ****       /*
1085:Middlewares/ST/STM32_USB_Host_Library/Core/Src/usbh_ctlreq.c ****       After a halt condition is encountered or an error is detected by the
1086:Middlewares/ST/STM32_USB_Host_Library/Core/Src/usbh_ctlreq.c ****       host, a control endpoint is allowed to recover by accepting the next Setup
1087:Middlewares/ST/STM32_USB_Host_Library/Core/Src/usbh_ctlreq.c ****       PID; i.e., recovery actions via some other pipe are not required for control
1088:Middlewares/ST/STM32_USB_Host_Library/Core/Src/usbh_ctlreq.c ****       endpoints. For the Default Control Pipe, a device reset will ultimately be
1089:Middlewares/ST/STM32_USB_Host_Library/Core/Src/usbh_ctlreq.c ****       required to clear the halt or error condition if the next Setup PID is not
1090:Middlewares/ST/STM32_USB_Host_Library/Core/Src/usbh_ctlreq.c ****       accepted.
1091:Middlewares/ST/STM32_USB_Host_Library/Core/Src/usbh_ctlreq.c ****       */
1092:Middlewares/ST/STM32_USB_Host_Library/Core/Src/usbh_ctlreq.c ****       if (++phost->Control.errorcount <= USBH_MAX_ERROR_COUNT)
1093:Middlewares/ST/STM32_USB_Host_Library/Core/Src/usbh_ctlreq.c ****       {
1094:Middlewares/ST/STM32_USB_Host_Library/Core/Src/usbh_ctlreq.c ****         /* Do the transmission again, starting from SETUP Packet */
1095:Middlewares/ST/STM32_USB_Host_Library/Core/Src/usbh_ctlreq.c ****         phost->Control.state = CTRL_SETUP;
1096:Middlewares/ST/STM32_USB_Host_Library/Core/Src/usbh_ctlreq.c ****         phost->RequestState = CMD_SEND;
1097:Middlewares/ST/STM32_USB_Host_Library/Core/Src/usbh_ctlreq.c ****       }
1098:Middlewares/ST/STM32_USB_Host_Library/Core/Src/usbh_ctlreq.c ****       else
1099:Middlewares/ST/STM32_USB_Host_Library/Core/Src/usbh_ctlreq.c ****       {
1100:Middlewares/ST/STM32_USB_Host_Library/Core/Src/usbh_ctlreq.c ****         phost->pUser(phost, HOST_USER_UNRECOVERED_ERROR);
1101:Middlewares/ST/STM32_USB_Host_Library/Core/Src/usbh_ctlreq.c ****         phost->Control.errorcount = 0U;
1102:Middlewares/ST/STM32_USB_Host_Library/Core/Src/usbh_ctlreq.c ****         USBH_ErrLog("Control error: Device not responding");
1103:Middlewares/ST/STM32_USB_Host_Library/Core/Src/usbh_ctlreq.c **** 
1104:Middlewares/ST/STM32_USB_Host_Library/Core/Src/usbh_ctlreq.c ****         /* Free control pipes */
1105:Middlewares/ST/STM32_USB_Host_Library/Core/Src/usbh_ctlreq.c ****         (void)USBH_FreePipe(phost, phost->Control.pipe_out);
1106:Middlewares/ST/STM32_USB_Host_Library/Core/Src/usbh_ctlreq.c ****         (void)USBH_FreePipe(phost, phost->Control.pipe_in);
1107:Middlewares/ST/STM32_USB_Host_Library/Core/Src/usbh_ctlreq.c **** 
1108:Middlewares/ST/STM32_USB_Host_Library/Core/Src/usbh_ctlreq.c ****         phost->gState = HOST_IDLE;
1109:Middlewares/ST/STM32_USB_Host_Library/Core/Src/usbh_ctlreq.c ****         status = USBH_FAIL;
1110:Middlewares/ST/STM32_USB_Host_Library/Core/Src/usbh_ctlreq.c ****       }
1111:Middlewares/ST/STM32_USB_Host_Library/Core/Src/usbh_ctlreq.c ****       break;
1112:Middlewares/ST/STM32_USB_Host_Library/Core/Src/usbh_ctlreq.c **** 
1113:Middlewares/ST/STM32_USB_Host_Library/Core/Src/usbh_ctlreq.c ****     default:
1114:Middlewares/ST/STM32_USB_Host_Library/Core/Src/usbh_ctlreq.c ****       break;
1115:Middlewares/ST/STM32_USB_Host_Library/Core/Src/usbh_ctlreq.c ****   }
1116:Middlewares/ST/STM32_USB_Host_Library/Core/Src/usbh_ctlreq.c **** 
1117:Middlewares/ST/STM32_USB_Host_Library/Core/Src/usbh_ctlreq.c ****   return status;
 501              		.loc 1 1117 3 view .LVU168
1118:Middlewares/ST/STM32_USB_Host_Library/Core/Src/usbh_ctlreq.c **** }
 502              		.loc 1 1118 1 is_stmt 0 view .LVU169
ARM GAS  C:\Users\stefa\AppData\Local\Temp\ccf1pQEx.s 			page 30


 503 002e 2846     		mov	r0, r5
 504 0030 03B0     		add	sp, sp, #12
 505              	.LCFI3:
 506              		.cfi_remember_state
 507              		.cfi_def_cfa_offset 12
 508              		@ sp needed
 509 0032 30BD     		pop	{r4, r5, pc}
 510              	.LVL30:
 511              	.L38:
 512              	.LCFI4:
 513              		.cfi_restore_state
 766:Middlewares/ST/STM32_USB_Host_Library/Core/Src/usbh_ctlreq.c ****       /* case SETUP packet sent successfully */
 514              		.loc 1 766 7 is_stmt 1 view .LVU170
 766:Middlewares/ST/STM32_USB_Host_Library/Core/Src/usbh_ctlreq.c ****       /* case SETUP packet sent successfully */
 515              		.loc 1 766 20 is_stmt 0 view .LVU171
 516 0034 4179     		ldrb	r1, [r0, #5]	@ zero_extendqisi2
 517 0036 FFF7FEFF 		bl	USBH_LL_GetURBState
 518              	.LVL31:
 766:Middlewares/ST/STM32_USB_Host_Library/Core/Src/usbh_ctlreq.c ****       /* case SETUP packet sent successfully */
 519              		.loc 1 766 20 view .LVU172
 520 003a 0546     		mov	r5, r0
 521              	.LVL32:
 768:Middlewares/ST/STM32_USB_Host_Library/Core/Src/usbh_ctlreq.c ****       {
 522              		.loc 1 768 7 is_stmt 1 view .LVU173
 768:Middlewares/ST/STM32_USB_Host_Library/Core/Src/usbh_ctlreq.c ****       {
 523              		.loc 1 768 10 is_stmt 0 view .LVU174
 524 003c 0128     		cmp	r0, #1
 525 003e 05D0     		beq	.L62
 813:Middlewares/ST/STM32_USB_Host_Library/Core/Src/usbh_ctlreq.c ****         {
 526              		.loc 1 813 9 is_stmt 1 view .LVU175
 813:Middlewares/ST/STM32_USB_Host_Library/Core/Src/usbh_ctlreq.c ****         {
 527              		.loc 1 813 12 is_stmt 0 view .LVU176
 528 0040 0428     		cmp	r0, #4
 529 0042 18D0     		beq	.L44
 813:Middlewares/ST/STM32_USB_Host_Library/Core/Src/usbh_ctlreq.c ****         {
 530              		.loc 1 813 44 discriminator 1 view .LVU177
 531 0044 0228     		cmp	r0, #2
 532 0046 16D0     		beq	.L44
 751:Middlewares/ST/STM32_USB_Host_Library/Core/Src/usbh_ctlreq.c ****   USBH_URBStateTypeDef URB_Status = USBH_URB_IDLE;
 533              		.loc 1 751 22 view .LVU178
 534 0048 0125     		movs	r5, #1
 535 004a F0E7     		b	.L27
 536              	.L62:
 770:Middlewares/ST/STM32_USB_Host_Library/Core/Src/usbh_ctlreq.c **** 
 537              		.loc 1 770 9 is_stmt 1 view .LVU179
 770:Middlewares/ST/STM32_USB_Host_Library/Core/Src/usbh_ctlreq.c **** 
 538              		.loc 1 770 44 is_stmt 0 view .LVU180
 539 004c 237C     		ldrb	r3, [r4, #16]	@ zero_extendqisi2
 540              	.LVL33:
 773:Middlewares/ST/STM32_USB_Host_Library/Core/Src/usbh_ctlreq.c ****         {
 541              		.loc 1 773 9 is_stmt 1 view .LVU181
 773:Middlewares/ST/STM32_USB_Host_Library/Core/Src/usbh_ctlreq.c ****         {
 542              		.loc 1 773 43 is_stmt 0 view .LVU182
 543 004e E28A     		ldrh	r2, [r4, #22]
 773:Middlewares/ST/STM32_USB_Host_Library/Core/Src/usbh_ctlreq.c ****         {
 544              		.loc 1 773 12 view .LVU183
 545 0050 42B1     		cbz	r2, .L41
ARM GAS  C:\Users\stefa\AppData\Local\Temp\ccf1pQEx.s 			page 31


 775:Middlewares/ST/STM32_USB_Host_Library/Core/Src/usbh_ctlreq.c ****           {
 546              		.loc 1 775 11 is_stmt 1 view .LVU184
 775:Middlewares/ST/STM32_USB_Host_Library/Core/Src/usbh_ctlreq.c ****           {
 547              		.loc 1 775 14 is_stmt 0 view .LVU185
 548 0052 13F0800F 		tst	r3, #128
 549 0056 02D1     		bne	.L63
 783:Middlewares/ST/STM32_USB_Host_Library/Core/Src/usbh_ctlreq.c ****           }
 550              		.loc 1 783 13 is_stmt 1 view .LVU186
 783:Middlewares/ST/STM32_USB_Host_Library/Core/Src/usbh_ctlreq.c ****           }
 551              		.loc 1 783 34 is_stmt 0 view .LVU187
 552 0058 0523     		movs	r3, #5
 553              	.LVL34:
 783:Middlewares/ST/STM32_USB_Host_Library/Core/Src/usbh_ctlreq.c ****           }
 554              		.loc 1 783 34 view .LVU188
 555 005a 2376     		strb	r3, [r4, #24]
 556 005c E7E7     		b	.L27
 557              	.LVL35:
 558              	.L63:
 778:Middlewares/ST/STM32_USB_Host_Library/Core/Src/usbh_ctlreq.c ****           }
 559              		.loc 1 778 13 is_stmt 1 view .LVU189
 778:Middlewares/ST/STM32_USB_Host_Library/Core/Src/usbh_ctlreq.c ****           }
 560              		.loc 1 778 34 is_stmt 0 view .LVU190
 561 005e 0323     		movs	r3, #3
 562              	.LVL36:
 778:Middlewares/ST/STM32_USB_Host_Library/Core/Src/usbh_ctlreq.c ****           }
 563              		.loc 1 778 34 view .LVU191
 564 0060 2376     		strb	r3, [r4, #24]
 565 0062 E4E7     		b	.L27
 566              	.LVL37:
 567              	.L41:
 790:Middlewares/ST/STM32_USB_Host_Library/Core/Src/usbh_ctlreq.c ****           {
 568              		.loc 1 790 11 is_stmt 1 view .LVU192
 790:Middlewares/ST/STM32_USB_Host_Library/Core/Src/usbh_ctlreq.c ****           {
 569              		.loc 1 790 14 is_stmt 0 view .LVU193
 570 0064 13F0800F 		tst	r3, #128
 571 0068 02D1     		bne	.L64
 798:Middlewares/ST/STM32_USB_Host_Library/Core/Src/usbh_ctlreq.c ****           }
 572              		.loc 1 798 13 is_stmt 1 view .LVU194
 798:Middlewares/ST/STM32_USB_Host_Library/Core/Src/usbh_ctlreq.c ****           }
 573              		.loc 1 798 34 is_stmt 0 view .LVU195
 574 006a 0723     		movs	r3, #7
 575              	.LVL38:
 798:Middlewares/ST/STM32_USB_Host_Library/Core/Src/usbh_ctlreq.c ****           }
 576              		.loc 1 798 34 view .LVU196
 577 006c 2376     		strb	r3, [r4, #24]
 578 006e DEE7     		b	.L27
 579              	.LVL39:
 580              	.L64:
 793:Middlewares/ST/STM32_USB_Host_Library/Core/Src/usbh_ctlreq.c ****           }
 581              		.loc 1 793 13 is_stmt 1 view .LVU197
 793:Middlewares/ST/STM32_USB_Host_Library/Core/Src/usbh_ctlreq.c ****           }
 582              		.loc 1 793 34 is_stmt 0 view .LVU198
 583 0070 0923     		movs	r3, #9
 584              	.LVL40:
 793:Middlewares/ST/STM32_USB_Host_Library/Core/Src/usbh_ctlreq.c ****           }
 585              		.loc 1 793 34 view .LVU199
 586 0072 2376     		strb	r3, [r4, #24]
ARM GAS  C:\Users\stefa\AppData\Local\Temp\ccf1pQEx.s 			page 32


 587 0074 DBE7     		b	.L27
 588              	.LVL41:
 589              	.L44:
 815:Middlewares/ST/STM32_USB_Host_Library/Core/Src/usbh_ctlreq.c **** 
 590              		.loc 1 815 11 is_stmt 1 view .LVU200
 815:Middlewares/ST/STM32_USB_Host_Library/Core/Src/usbh_ctlreq.c **** 
 591              		.loc 1 815 32 is_stmt 0 view .LVU201
 592 0076 0B23     		movs	r3, #11
 593 0078 2376     		strb	r3, [r4, #24]
 751:Middlewares/ST/STM32_USB_Host_Library/Core/Src/usbh_ctlreq.c ****   USBH_URBStateTypeDef URB_Status = USBH_URB_IDLE;
 594              		.loc 1 751 22 view .LVU202
 595 007a 0125     		movs	r5, #1
 596 007c D7E7     		b	.L27
 597              	.LVL42:
 598              	.L37:
 831:Middlewares/ST/STM32_USB_Host_Library/Core/Src/usbh_ctlreq.c ****       (void)USBH_CtlReceiveData(phost, phost->Control.buff,
 599              		.loc 1 831 7 is_stmt 1 view .LVU203
 831:Middlewares/ST/STM32_USB_Host_Library/Core/Src/usbh_ctlreq.c ****       (void)USBH_CtlReceiveData(phost, phost->Control.buff,
 600              		.loc 1 831 45 is_stmt 0 view .LVU204
 601 007e D0F8C433 		ldr	r3, [r0, #964]
 831:Middlewares/ST/STM32_USB_Host_Library/Core/Src/usbh_ctlreq.c ****       (void)USBH_CtlReceiveData(phost, phost->Control.buff,
 602              		.loc 1 831 28 view .LVU205
 603 0082 C381     		strh	r3, [r0, #14]	@ movhi
 832:Middlewares/ST/STM32_USB_Host_Library/Core/Src/usbh_ctlreq.c ****                                 phost->Control.length, phost->Control.pipe_in);
 604              		.loc 1 832 7 is_stmt 1 view .LVU206
 832:Middlewares/ST/STM32_USB_Host_Library/Core/Src/usbh_ctlreq.c ****                                 phost->Control.length, phost->Control.pipe_in);
 605              		.loc 1 832 13 is_stmt 0 view .LVU207
 606 0084 0379     		ldrb	r3, [r0, #4]	@ zero_extendqisi2
 607 0086 8289     		ldrh	r2, [r0, #12]
 608 0088 8168     		ldr	r1, [r0, #8]
 609 008a FFF7FEFF 		bl	USBH_CtlReceiveData
 610              	.LVL43:
 835:Middlewares/ST/STM32_USB_Host_Library/Core/Src/usbh_ctlreq.c ****       break;
 611              		.loc 1 835 7 is_stmt 1 view .LVU208
 835:Middlewares/ST/STM32_USB_Host_Library/Core/Src/usbh_ctlreq.c ****       break;
 612              		.loc 1 835 28 is_stmt 0 view .LVU209
 613 008e 0423     		movs	r3, #4
 614 0090 2376     		strb	r3, [r4, #24]
 836:Middlewares/ST/STM32_USB_Host_Library/Core/Src/usbh_ctlreq.c **** 
 615              		.loc 1 836 7 is_stmt 1 view .LVU210
 751:Middlewares/ST/STM32_USB_Host_Library/Core/Src/usbh_ctlreq.c ****   USBH_URBStateTypeDef URB_Status = USBH_URB_IDLE;
 616              		.loc 1 751 22 is_stmt 0 view .LVU211
 617 0092 0125     		movs	r5, #1
 836:Middlewares/ST/STM32_USB_Host_Library/Core/Src/usbh_ctlreq.c **** 
 618              		.loc 1 836 7 view .LVU212
 619 0094 CBE7     		b	.L27
 620              	.LVL44:
 621              	.L36:
 840:Middlewares/ST/STM32_USB_Host_Library/Core/Src/usbh_ctlreq.c **** 
 622              		.loc 1 840 7 is_stmt 1 view .LVU213
 840:Middlewares/ST/STM32_USB_Host_Library/Core/Src/usbh_ctlreq.c **** 
 623              		.loc 1 840 20 is_stmt 0 view .LVU214
 624 0096 0179     		ldrb	r1, [r0, #4]	@ zero_extendqisi2
 625 0098 FFF7FEFF 		bl	USBH_LL_GetURBState
 626              	.LVL45:
 843:Middlewares/ST/STM32_USB_Host_Library/Core/Src/usbh_ctlreq.c ****       {
 627              		.loc 1 843 7 is_stmt 1 view .LVU215
ARM GAS  C:\Users\stefa\AppData\Local\Temp\ccf1pQEx.s 			page 33


 843:Middlewares/ST/STM32_USB_Host_Library/Core/Src/usbh_ctlreq.c ****       {
 628              		.loc 1 843 10 is_stmt 0 view .LVU216
 629 009c 0128     		cmp	r0, #1
 630 009e 06D0     		beq	.L65
 631              	.L45:
 858:Middlewares/ST/STM32_USB_Host_Library/Core/Src/usbh_ctlreq.c ****       {
 632              		.loc 1 858 7 is_stmt 1 view .LVU217
 858:Middlewares/ST/STM32_USB_Host_Library/Core/Src/usbh_ctlreq.c ****       {
 633              		.loc 1 858 10 is_stmt 0 view .LVU218
 634 00a0 0528     		cmp	r0, #5
 635 00a2 00F09580 		beq	.L56
 874:Middlewares/ST/STM32_USB_Host_Library/Core/Src/usbh_ctlreq.c ****         {
 636              		.loc 1 874 9 is_stmt 1 view .LVU219
 874:Middlewares/ST/STM32_USB_Host_Library/Core/Src/usbh_ctlreq.c ****         {
 637              		.loc 1 874 12 is_stmt 0 view .LVU220
 638 00a6 0428     		cmp	r0, #4
 639 00a8 04D0     		beq	.L66
 751:Middlewares/ST/STM32_USB_Host_Library/Core/Src/usbh_ctlreq.c ****   USBH_URBStateTypeDef URB_Status = USBH_URB_IDLE;
 640              		.loc 1 751 22 view .LVU221
 641 00aa 0125     		movs	r5, #1
 642 00ac BFE7     		b	.L27
 643              	.L65:
 845:Middlewares/ST/STM32_USB_Host_Library/Core/Src/usbh_ctlreq.c **** 
 644              		.loc 1 845 9 is_stmt 1 view .LVU222
 845:Middlewares/ST/STM32_USB_Host_Library/Core/Src/usbh_ctlreq.c **** 
 645              		.loc 1 845 30 is_stmt 0 view .LVU223
 646 00ae 0923     		movs	r3, #9
 647 00b0 2376     		strb	r3, [r4, #24]
 648 00b2 F5E7     		b	.L45
 649              	.L66:
 877:Middlewares/ST/STM32_USB_Host_Library/Core/Src/usbh_ctlreq.c **** 
 650              		.loc 1 877 11 is_stmt 1 view .LVU224
 877:Middlewares/ST/STM32_USB_Host_Library/Core/Src/usbh_ctlreq.c **** 
 651              		.loc 1 877 32 is_stmt 0 view .LVU225
 652 00b4 0B23     		movs	r3, #11
 653 00b6 2376     		strb	r3, [r4, #24]
 751:Middlewares/ST/STM32_USB_Host_Library/Core/Src/usbh_ctlreq.c ****   USBH_URBStateTypeDef URB_Status = USBH_URB_IDLE;
 654              		.loc 1 751 22 view .LVU226
 655 00b8 0125     		movs	r5, #1
 656 00ba B8E7     		b	.L27
 657              	.LVL46:
 658              	.L35:
 893:Middlewares/ST/STM32_USB_Host_Library/Core/Src/usbh_ctlreq.c ****                              phost->Control.pipe_out, 1U);
 659              		.loc 1 893 7 is_stmt 1 view .LVU227
 893:Middlewares/ST/STM32_USB_Host_Library/Core/Src/usbh_ctlreq.c ****                              phost->Control.pipe_out, 1U);
 660              		.loc 1 893 13 is_stmt 0 view .LVU228
 661 00bc 0125     		movs	r5, #1
 662 00be 0095     		str	r5, [sp]
 663 00c0 4379     		ldrb	r3, [r0, #5]	@ zero_extendqisi2
 664 00c2 8289     		ldrh	r2, [r0, #12]
 665 00c4 8168     		ldr	r1, [r0, #8]
 666 00c6 FFF7FEFF 		bl	USBH_CtlSendData
 667              	.LVL47:
 896:Middlewares/ST/STM32_USB_Host_Library/Core/Src/usbh_ctlreq.c ****       phost->Control.state = CTRL_DATA_OUT_WAIT;
 668              		.loc 1 896 7 is_stmt 1 view .LVU229
 896:Middlewares/ST/STM32_USB_Host_Library/Core/Src/usbh_ctlreq.c ****       phost->Control.state = CTRL_DATA_OUT_WAIT;
 669              		.loc 1 896 45 is_stmt 0 view .LVU230
ARM GAS  C:\Users\stefa\AppData\Local\Temp\ccf1pQEx.s 			page 34


 670 00ca D4F8C433 		ldr	r3, [r4, #964]
 896:Middlewares/ST/STM32_USB_Host_Library/Core/Src/usbh_ctlreq.c ****       phost->Control.state = CTRL_DATA_OUT_WAIT;
 671              		.loc 1 896 28 view .LVU231
 672 00ce E381     		strh	r3, [r4, #14]	@ movhi
 897:Middlewares/ST/STM32_USB_Host_Library/Core/Src/usbh_ctlreq.c ****       break;
 673              		.loc 1 897 7 is_stmt 1 view .LVU232
 897:Middlewares/ST/STM32_USB_Host_Library/Core/Src/usbh_ctlreq.c ****       break;
 674              		.loc 1 897 28 is_stmt 0 view .LVU233
 675 00d0 0623     		movs	r3, #6
 676 00d2 2376     		strb	r3, [r4, #24]
 898:Middlewares/ST/STM32_USB_Host_Library/Core/Src/usbh_ctlreq.c **** 
 677              		.loc 1 898 7 is_stmt 1 view .LVU234
 678 00d4 ABE7     		b	.L27
 679              	.LVL48:
 680              	.L34:
 902:Middlewares/ST/STM32_USB_Host_Library/Core/Src/usbh_ctlreq.c **** 
 681              		.loc 1 902 7 view .LVU235
 902:Middlewares/ST/STM32_USB_Host_Library/Core/Src/usbh_ctlreq.c **** 
 682              		.loc 1 902 20 is_stmt 0 view .LVU236
 683 00d6 4179     		ldrb	r1, [r0, #5]	@ zero_extendqisi2
 684 00d8 FFF7FEFF 		bl	USBH_LL_GetURBState
 685              	.LVL49:
 902:Middlewares/ST/STM32_USB_Host_Library/Core/Src/usbh_ctlreq.c **** 
 686              		.loc 1 902 20 view .LVU237
 687 00dc 0546     		mov	r5, r0
 688              	.LVL50:
 904:Middlewares/ST/STM32_USB_Host_Library/Core/Src/usbh_ctlreq.c ****       {
 689              		.loc 1 904 7 is_stmt 1 view .LVU238
 904:Middlewares/ST/STM32_USB_Host_Library/Core/Src/usbh_ctlreq.c ****       {
 690              		.loc 1 904 10 is_stmt 0 view .LVU239
 691 00de 0128     		cmp	r0, #1
 692 00e0 07D0     		beq	.L67
 920:Middlewares/ST/STM32_USB_Host_Library/Core/Src/usbh_ctlreq.c ****       {
 693              		.loc 1 920 12 is_stmt 1 view .LVU240
 920:Middlewares/ST/STM32_USB_Host_Library/Core/Src/usbh_ctlreq.c ****       {
 694              		.loc 1 920 15 is_stmt 0 view .LVU241
 695 00e2 0528     		cmp	r0, #5
 696 00e4 08D0     		beq	.L68
 935:Middlewares/ST/STM32_USB_Host_Library/Core/Src/usbh_ctlreq.c ****       {
 697              		.loc 1 935 12 is_stmt 1 view .LVU242
 935:Middlewares/ST/STM32_USB_Host_Library/Core/Src/usbh_ctlreq.c ****       {
 698              		.loc 1 935 15 is_stmt 0 view .LVU243
 699 00e6 0228     		cmp	r0, #2
 700 00e8 0AD0     		beq	.L69
 951:Middlewares/ST/STM32_USB_Host_Library/Core/Src/usbh_ctlreq.c ****         {
 701              		.loc 1 951 9 is_stmt 1 view .LVU244
 951:Middlewares/ST/STM32_USB_Host_Library/Core/Src/usbh_ctlreq.c ****         {
 702              		.loc 1 951 12 is_stmt 0 view .LVU245
 703 00ea 0428     		cmp	r0, #4
 704 00ec 0CD0     		beq	.L70
 751:Middlewares/ST/STM32_USB_Host_Library/Core/Src/usbh_ctlreq.c ****   USBH_URBStateTypeDef URB_Status = USBH_URB_IDLE;
 705              		.loc 1 751 22 view .LVU246
 706 00ee 0125     		movs	r5, #1
 707 00f0 9DE7     		b	.L27
 708              	.L67:
 907:Middlewares/ST/STM32_USB_Host_Library/Core/Src/usbh_ctlreq.c **** 
 709              		.loc 1 907 9 is_stmt 1 view .LVU247
ARM GAS  C:\Users\stefa\AppData\Local\Temp\ccf1pQEx.s 			page 35


 907:Middlewares/ST/STM32_USB_Host_Library/Core/Src/usbh_ctlreq.c **** 
 710              		.loc 1 907 30 is_stmt 0 view .LVU248
 711 00f2 0723     		movs	r3, #7
 712 00f4 2376     		strb	r3, [r4, #24]
 713 00f6 9AE7     		b	.L27
 714              	.L68:
 923:Middlewares/ST/STM32_USB_Host_Library/Core/Src/usbh_ctlreq.c ****         status = USBH_NOT_SUPPORTED;
 715              		.loc 1 923 9 is_stmt 1 view .LVU249
 923:Middlewares/ST/STM32_USB_Host_Library/Core/Src/usbh_ctlreq.c ****         status = USBH_NOT_SUPPORTED;
 716              		.loc 1 923 30 is_stmt 0 view .LVU250
 717 00f8 0C23     		movs	r3, #12
 718 00fa 2376     		strb	r3, [r4, #24]
 924:Middlewares/ST/STM32_USB_Host_Library/Core/Src/usbh_ctlreq.c **** 
 719              		.loc 1 924 9 is_stmt 1 view .LVU251
 720              	.LVL51:
 924:Middlewares/ST/STM32_USB_Host_Library/Core/Src/usbh_ctlreq.c **** 
 721              		.loc 1 924 16 is_stmt 0 view .LVU252
 722 00fc 0325     		movs	r5, #3
 723 00fe 96E7     		b	.L27
 724              	.LVL52:
 725              	.L69:
 938:Middlewares/ST/STM32_USB_Host_Library/Core/Src/usbh_ctlreq.c **** 
 726              		.loc 1 938 9 is_stmt 1 view .LVU253
 938:Middlewares/ST/STM32_USB_Host_Library/Core/Src/usbh_ctlreq.c **** 
 727              		.loc 1 938 30 is_stmt 0 view .LVU254
 728 0100 0523     		movs	r3, #5
 729 0102 2376     		strb	r3, [r4, #24]
 751:Middlewares/ST/STM32_USB_Host_Library/Core/Src/usbh_ctlreq.c ****   USBH_URBStateTypeDef URB_Status = USBH_URB_IDLE;
 730              		.loc 1 751 22 view .LVU255
 731 0104 0125     		movs	r5, #1
 732 0106 92E7     		b	.L27
 733              	.L70:
 954:Middlewares/ST/STM32_USB_Host_Library/Core/Src/usbh_ctlreq.c ****           status = USBH_FAIL;
 734              		.loc 1 954 11 is_stmt 1 view .LVU256
 954:Middlewares/ST/STM32_USB_Host_Library/Core/Src/usbh_ctlreq.c ****           status = USBH_FAIL;
 735              		.loc 1 954 32 is_stmt 0 view .LVU257
 736 0108 0B23     		movs	r3, #11
 737 010a 2376     		strb	r3, [r4, #24]
 955:Middlewares/ST/STM32_USB_Host_Library/Core/Src/usbh_ctlreq.c **** 
 738              		.loc 1 955 11 is_stmt 1 view .LVU258
 739              	.LVL53:
 955:Middlewares/ST/STM32_USB_Host_Library/Core/Src/usbh_ctlreq.c **** 
 740              		.loc 1 955 18 is_stmt 0 view .LVU259
 741 010c 0225     		movs	r5, #2
 742 010e 8EE7     		b	.L27
 743              	.LVL54:
 744              	.L33:
 971:Middlewares/ST/STM32_USB_Host_Library/Core/Src/usbh_ctlreq.c **** 
 745              		.loc 1 971 7 is_stmt 1 view .LVU260
 971:Middlewares/ST/STM32_USB_Host_Library/Core/Src/usbh_ctlreq.c **** 
 746              		.loc 1 971 13 is_stmt 0 view .LVU261
 747 0110 0379     		ldrb	r3, [r0, #4]	@ zero_extendqisi2
 748 0112 0022     		movs	r2, #0
 749 0114 1146     		mov	r1, r2
 750 0116 FFF7FEFF 		bl	USBH_CtlReceiveData
 751              	.LVL55:
 973:Middlewares/ST/STM32_USB_Host_Library/Core/Src/usbh_ctlreq.c ****       phost->Control.state = CTRL_STATUS_IN_WAIT;
ARM GAS  C:\Users\stefa\AppData\Local\Temp\ccf1pQEx.s 			page 36


 752              		.loc 1 973 7 is_stmt 1 view .LVU262
 973:Middlewares/ST/STM32_USB_Host_Library/Core/Src/usbh_ctlreq.c ****       phost->Control.state = CTRL_STATUS_IN_WAIT;
 753              		.loc 1 973 45 is_stmt 0 view .LVU263
 754 011a D4F8C433 		ldr	r3, [r4, #964]
 973:Middlewares/ST/STM32_USB_Host_Library/Core/Src/usbh_ctlreq.c ****       phost->Control.state = CTRL_STATUS_IN_WAIT;
 755              		.loc 1 973 28 view .LVU264
 756 011e E381     		strh	r3, [r4, #14]	@ movhi
 974:Middlewares/ST/STM32_USB_Host_Library/Core/Src/usbh_ctlreq.c **** 
 757              		.loc 1 974 7 is_stmt 1 view .LVU265
 974:Middlewares/ST/STM32_USB_Host_Library/Core/Src/usbh_ctlreq.c **** 
 758              		.loc 1 974 28 is_stmt 0 view .LVU266
 759 0120 0823     		movs	r3, #8
 760 0122 2376     		strb	r3, [r4, #24]
 976:Middlewares/ST/STM32_USB_Host_Library/Core/Src/usbh_ctlreq.c **** 
 761              		.loc 1 976 7 is_stmt 1 view .LVU267
 751:Middlewares/ST/STM32_USB_Host_Library/Core/Src/usbh_ctlreq.c ****   USBH_URBStateTypeDef URB_Status = USBH_URB_IDLE;
 762              		.loc 1 751 22 is_stmt 0 view .LVU268
 763 0124 0125     		movs	r5, #1
 976:Middlewares/ST/STM32_USB_Host_Library/Core/Src/usbh_ctlreq.c **** 
 764              		.loc 1 976 7 view .LVU269
 765 0126 82E7     		b	.L27
 766              	.LVL56:
 767              	.L32:
 980:Middlewares/ST/STM32_USB_Host_Library/Core/Src/usbh_ctlreq.c **** 
 768              		.loc 1 980 7 is_stmt 1 view .LVU270
 980:Middlewares/ST/STM32_USB_Host_Library/Core/Src/usbh_ctlreq.c **** 
 769              		.loc 1 980 20 is_stmt 0 view .LVU271
 770 0128 0179     		ldrb	r1, [r0, #4]	@ zero_extendqisi2
 771 012a FFF7FEFF 		bl	USBH_LL_GetURBState
 772              	.LVL57:
 982:Middlewares/ST/STM32_USB_Host_Library/Core/Src/usbh_ctlreq.c ****       {
 773              		.loc 1 982 7 is_stmt 1 view .LVU272
 982:Middlewares/ST/STM32_USB_Host_Library/Core/Src/usbh_ctlreq.c ****       {
 774              		.loc 1 982 10 is_stmt 0 view .LVU273
 775 012e 0128     		cmp	r0, #1
 776 0130 05D0     		beq	.L71
 997:Middlewares/ST/STM32_USB_Host_Library/Core/Src/usbh_ctlreq.c ****       {
 777              		.loc 1 997 12 is_stmt 1 view .LVU274
 997:Middlewares/ST/STM32_USB_Host_Library/Core/Src/usbh_ctlreq.c ****       {
 778              		.loc 1 997 15 is_stmt 0 view .LVU275
 779 0132 0428     		cmp	r0, #4
 780 0134 07D0     		beq	.L72
1012:Middlewares/ST/STM32_USB_Host_Library/Core/Src/usbh_ctlreq.c ****         {
 781              		.loc 1 1012 9 is_stmt 1 view .LVU276
1012:Middlewares/ST/STM32_USB_Host_Library/Core/Src/usbh_ctlreq.c ****         {
 782              		.loc 1 1012 12 is_stmt 0 view .LVU277
 783 0136 0528     		cmp	r0, #5
 784 0138 4CD0     		beq	.L59
 751:Middlewares/ST/STM32_USB_Host_Library/Core/Src/usbh_ctlreq.c ****   USBH_URBStateTypeDef URB_Status = USBH_URB_IDLE;
 785              		.loc 1 751 22 view .LVU278
 786 013a 0125     		movs	r5, #1
 787 013c 77E7     		b	.L27
 788              	.L71:
 985:Middlewares/ST/STM32_USB_Host_Library/Core/Src/usbh_ctlreq.c ****         status = USBH_OK;
 789              		.loc 1 985 9 is_stmt 1 view .LVU279
 985:Middlewares/ST/STM32_USB_Host_Library/Core/Src/usbh_ctlreq.c ****         status = USBH_OK;
 790              		.loc 1 985 30 is_stmt 0 view .LVU280
ARM GAS  C:\Users\stefa\AppData\Local\Temp\ccf1pQEx.s 			page 37


 791 013e 0D23     		movs	r3, #13
 792 0140 2376     		strb	r3, [r4, #24]
 986:Middlewares/ST/STM32_USB_Host_Library/Core/Src/usbh_ctlreq.c **** 
 793              		.loc 1 986 9 is_stmt 1 view .LVU281
 794              	.LVL58:
 986:Middlewares/ST/STM32_USB_Host_Library/Core/Src/usbh_ctlreq.c **** 
 795              		.loc 1 986 16 is_stmt 0 view .LVU282
 796 0142 0025     		movs	r5, #0
 797 0144 73E7     		b	.L27
 798              	.LVL59:
 799              	.L72:
 999:Middlewares/ST/STM32_USB_Host_Library/Core/Src/usbh_ctlreq.c **** 
 800              		.loc 1 999 9 is_stmt 1 view .LVU283
 999:Middlewares/ST/STM32_USB_Host_Library/Core/Src/usbh_ctlreq.c **** 
 801              		.loc 1 999 30 is_stmt 0 view .LVU284
 802 0146 0B23     		movs	r3, #11
 803 0148 2376     		strb	r3, [r4, #24]
 751:Middlewares/ST/STM32_USB_Host_Library/Core/Src/usbh_ctlreq.c ****   USBH_URBStateTypeDef URB_Status = USBH_URB_IDLE;
 804              		.loc 1 751 22 view .LVU285
 805 014a 0125     		movs	r5, #1
 806 014c 6FE7     		b	.L27
 807              	.LVL60:
 808              	.L31:
1030:Middlewares/ST/STM32_USB_Host_Library/Core/Src/usbh_ctlreq.c **** 
 809              		.loc 1 1030 7 is_stmt 1 view .LVU286
1030:Middlewares/ST/STM32_USB_Host_Library/Core/Src/usbh_ctlreq.c **** 
 810              		.loc 1 1030 13 is_stmt 0 view .LVU287
 811 014e 0125     		movs	r5, #1
 812 0150 0095     		str	r5, [sp]
 813 0152 4379     		ldrb	r3, [r0, #5]	@ zero_extendqisi2
 814 0154 0022     		movs	r2, #0
 815 0156 1146     		mov	r1, r2
 816 0158 FFF7FEFF 		bl	USBH_CtlSendData
 817              	.LVL61:
1032:Middlewares/ST/STM32_USB_Host_Library/Core/Src/usbh_ctlreq.c ****       phost->Control.state = CTRL_STATUS_OUT_WAIT;
 818              		.loc 1 1032 7 is_stmt 1 view .LVU288
1032:Middlewares/ST/STM32_USB_Host_Library/Core/Src/usbh_ctlreq.c ****       phost->Control.state = CTRL_STATUS_OUT_WAIT;
 819              		.loc 1 1032 45 is_stmt 0 view .LVU289
 820 015c D4F8C433 		ldr	r3, [r4, #964]
1032:Middlewares/ST/STM32_USB_Host_Library/Core/Src/usbh_ctlreq.c ****       phost->Control.state = CTRL_STATUS_OUT_WAIT;
 821              		.loc 1 1032 28 view .LVU290
 822 0160 E381     		strh	r3, [r4, #14]	@ movhi
1033:Middlewares/ST/STM32_USB_Host_Library/Core/Src/usbh_ctlreq.c ****       break;
 823              		.loc 1 1033 7 is_stmt 1 view .LVU291
1033:Middlewares/ST/STM32_USB_Host_Library/Core/Src/usbh_ctlreq.c ****       break;
 824              		.loc 1 1033 28 is_stmt 0 view .LVU292
 825 0162 0A23     		movs	r3, #10
 826 0164 2376     		strb	r3, [r4, #24]
1034:Middlewares/ST/STM32_USB_Host_Library/Core/Src/usbh_ctlreq.c **** 
 827              		.loc 1 1034 7 is_stmt 1 view .LVU293
 828 0166 62E7     		b	.L27
 829              	.LVL62:
 830              	.L30:
1037:Middlewares/ST/STM32_USB_Host_Library/Core/Src/usbh_ctlreq.c ****       if (URB_Status == USBH_URB_DONE)
 831              		.loc 1 1037 7 view .LVU294
1037:Middlewares/ST/STM32_USB_Host_Library/Core/Src/usbh_ctlreq.c ****       if (URB_Status == USBH_URB_DONE)
 832              		.loc 1 1037 20 is_stmt 0 view .LVU295
ARM GAS  C:\Users\stefa\AppData\Local\Temp\ccf1pQEx.s 			page 38


 833 0168 4179     		ldrb	r1, [r0, #5]	@ zero_extendqisi2
 834 016a FFF7FEFF 		bl	USBH_LL_GetURBState
 835              	.LVL63:
1038:Middlewares/ST/STM32_USB_Host_Library/Core/Src/usbh_ctlreq.c ****       {
 836              		.loc 1 1038 7 is_stmt 1 view .LVU296
1038:Middlewares/ST/STM32_USB_Host_Library/Core/Src/usbh_ctlreq.c ****       {
 837              		.loc 1 1038 10 is_stmt 0 view .LVU297
 838 016e 0128     		cmp	r0, #1
 839 0170 05D0     		beq	.L73
1052:Middlewares/ST/STM32_USB_Host_Library/Core/Src/usbh_ctlreq.c ****       {
 840              		.loc 1 1052 12 is_stmt 1 view .LVU298
1052:Middlewares/ST/STM32_USB_Host_Library/Core/Src/usbh_ctlreq.c ****       {
 841              		.loc 1 1052 15 is_stmt 0 view .LVU299
 842 0172 0228     		cmp	r0, #2
 843 0174 07D0     		beq	.L74
1067:Middlewares/ST/STM32_USB_Host_Library/Core/Src/usbh_ctlreq.c ****         {
 844              		.loc 1 1067 9 is_stmt 1 view .LVU300
1067:Middlewares/ST/STM32_USB_Host_Library/Core/Src/usbh_ctlreq.c ****         {
 845              		.loc 1 1067 12 is_stmt 0 view .LVU301
 846 0176 0428     		cmp	r0, #4
 847 0178 09D0     		beq	.L75
 751:Middlewares/ST/STM32_USB_Host_Library/Core/Src/usbh_ctlreq.c ****   USBH_URBStateTypeDef URB_Status = USBH_URB_IDLE;
 848              		.loc 1 751 22 view .LVU302
 849 017a 0125     		movs	r5, #1
 850 017c 57E7     		b	.L27
 851              	.L73:
1040:Middlewares/ST/STM32_USB_Host_Library/Core/Src/usbh_ctlreq.c ****         phost->Control.state = CTRL_COMPLETE;
 852              		.loc 1 1040 9 is_stmt 1 view .LVU303
 853              	.LVL64:
1041:Middlewares/ST/STM32_USB_Host_Library/Core/Src/usbh_ctlreq.c **** 
 854              		.loc 1 1041 9 view .LVU304
1041:Middlewares/ST/STM32_USB_Host_Library/Core/Src/usbh_ctlreq.c **** 
 855              		.loc 1 1041 30 is_stmt 0 view .LVU305
 856 017e 0D23     		movs	r3, #13
 857 0180 2376     		strb	r3, [r4, #24]
1040:Middlewares/ST/STM32_USB_Host_Library/Core/Src/usbh_ctlreq.c ****         phost->Control.state = CTRL_COMPLETE;
 858              		.loc 1 1040 16 view .LVU306
 859 0182 0025     		movs	r5, #0
 860 0184 53E7     		b	.L27
 861              	.LVL65:
 862              	.L74:
1054:Middlewares/ST/STM32_USB_Host_Library/Core/Src/usbh_ctlreq.c **** 
 863              		.loc 1 1054 9 is_stmt 1 view .LVU307
1054:Middlewares/ST/STM32_USB_Host_Library/Core/Src/usbh_ctlreq.c **** 
 864              		.loc 1 1054 30 is_stmt 0 view .LVU308
 865 0186 0923     		movs	r3, #9
 866 0188 2376     		strb	r3, [r4, #24]
 751:Middlewares/ST/STM32_USB_Host_Library/Core/Src/usbh_ctlreq.c ****   USBH_URBStateTypeDef URB_Status = USBH_URB_IDLE;
 867              		.loc 1 751 22 view .LVU309
 868 018a 0125     		movs	r5, #1
 869 018c 4FE7     		b	.L27
 870              	.L75:
1069:Middlewares/ST/STM32_USB_Host_Library/Core/Src/usbh_ctlreq.c **** 
 871              		.loc 1 1069 11 is_stmt 1 view .LVU310
1069:Middlewares/ST/STM32_USB_Host_Library/Core/Src/usbh_ctlreq.c **** 
 872              		.loc 1 1069 32 is_stmt 0 view .LVU311
 873 018e 0B23     		movs	r3, #11
ARM GAS  C:\Users\stefa\AppData\Local\Temp\ccf1pQEx.s 			page 39


 874 0190 2376     		strb	r3, [r4, #24]
 751:Middlewares/ST/STM32_USB_Host_Library/Core/Src/usbh_ctlreq.c ****   USBH_URBStateTypeDef URB_Status = USBH_URB_IDLE;
 875              		.loc 1 751 22 view .LVU312
 876 0192 0125     		movs	r5, #1
 877 0194 4BE7     		b	.L27
 878              	.LVL66:
 879              	.L28:
1092:Middlewares/ST/STM32_USB_Host_Library/Core/Src/usbh_ctlreq.c ****       {
 880              		.loc 1 1092 7 is_stmt 1 view .LVU313
1092:Middlewares/ST/STM32_USB_Host_Library/Core/Src/usbh_ctlreq.c ****       {
 881              		.loc 1 1092 27 is_stmt 0 view .LVU314
 882 0196 437E     		ldrb	r3, [r0, #25]	@ zero_extendqisi2
1092:Middlewares/ST/STM32_USB_Host_Library/Core/Src/usbh_ctlreq.c ****       {
 883              		.loc 1 1092 11 view .LVU315
 884 0198 0133     		adds	r3, r3, #1
 885 019a DBB2     		uxtb	r3, r3
1092:Middlewares/ST/STM32_USB_Host_Library/Core/Src/usbh_ctlreq.c ****       {
 886              		.loc 1 1092 10 view .LVU316
 887 019c 4376     		strb	r3, [r0, #25]
 888 019e 022B     		cmp	r3, #2
 889 01a0 03D8     		bhi	.L53
1095:Middlewares/ST/STM32_USB_Host_Library/Core/Src/usbh_ctlreq.c ****         phost->RequestState = CMD_SEND;
 890              		.loc 1 1095 9 is_stmt 1 view .LVU317
1095:Middlewares/ST/STM32_USB_Host_Library/Core/Src/usbh_ctlreq.c ****         phost->RequestState = CMD_SEND;
 891              		.loc 1 1095 30 is_stmt 0 view .LVU318
 892 01a2 0125     		movs	r5, #1
 893 01a4 0576     		strb	r5, [r0, #24]
1096:Middlewares/ST/STM32_USB_Host_Library/Core/Src/usbh_ctlreq.c ****       }
 894              		.loc 1 1096 9 is_stmt 1 view .LVU319
1096:Middlewares/ST/STM32_USB_Host_Library/Core/Src/usbh_ctlreq.c ****       }
 895              		.loc 1 1096 29 is_stmt 0 view .LVU320
 896 01a6 8570     		strb	r5, [r0, #2]
 897 01a8 41E7     		b	.L27
 898              	.L53:
1100:Middlewares/ST/STM32_USB_Host_Library/Core/Src/usbh_ctlreq.c ****         phost->Control.errorcount = 0U;
 899              		.loc 1 1100 9 is_stmt 1 view .LVU321
1100:Middlewares/ST/STM32_USB_Host_Library/Core/Src/usbh_ctlreq.c ****         phost->Control.errorcount = 0U;
 900              		.loc 1 1100 14 is_stmt 0 view .LVU322
 901 01aa D0F8D433 		ldr	r3, [r0, #980]
1100:Middlewares/ST/STM32_USB_Host_Library/Core/Src/usbh_ctlreq.c ****         phost->Control.errorcount = 0U;
 902              		.loc 1 1100 9 view .LVU323
 903 01ae 0621     		movs	r1, #6
 904 01b0 9847     		blx	r3
 905              	.LVL67:
1101:Middlewares/ST/STM32_USB_Host_Library/Core/Src/usbh_ctlreq.c ****         USBH_ErrLog("Control error: Device not responding");
 906              		.loc 1 1101 9 is_stmt 1 view .LVU324
1101:Middlewares/ST/STM32_USB_Host_Library/Core/Src/usbh_ctlreq.c ****         USBH_ErrLog("Control error: Device not responding");
 907              		.loc 1 1101 35 is_stmt 0 view .LVU325
 908 01b2 0025     		movs	r5, #0
 909 01b4 6576     		strb	r5, [r4, #25]
1102:Middlewares/ST/STM32_USB_Host_Library/Core/Src/usbh_ctlreq.c **** 
 910              		.loc 1 1102 9 is_stmt 1 view .LVU326
1102:Middlewares/ST/STM32_USB_Host_Library/Core/Src/usbh_ctlreq.c **** 
 911              		.loc 1 1102 9 view .LVU327
1102:Middlewares/ST/STM32_USB_Host_Library/Core/Src/usbh_ctlreq.c **** 
 912              		.loc 1 1102 9 view .LVU328
1105:Middlewares/ST/STM32_USB_Host_Library/Core/Src/usbh_ctlreq.c ****         (void)USBH_FreePipe(phost, phost->Control.pipe_in);
ARM GAS  C:\Users\stefa\AppData\Local\Temp\ccf1pQEx.s 			page 40


 913              		.loc 1 1105 9 view .LVU329
1105:Middlewares/ST/STM32_USB_Host_Library/Core/Src/usbh_ctlreq.c ****         (void)USBH_FreePipe(phost, phost->Control.pipe_in);
 914              		.loc 1 1105 15 is_stmt 0 view .LVU330
 915 01b6 6179     		ldrb	r1, [r4, #5]	@ zero_extendqisi2
 916 01b8 2046     		mov	r0, r4
 917 01ba FFF7FEFF 		bl	USBH_FreePipe
 918              	.LVL68:
1106:Middlewares/ST/STM32_USB_Host_Library/Core/Src/usbh_ctlreq.c **** 
 919              		.loc 1 1106 9 is_stmt 1 view .LVU331
1106:Middlewares/ST/STM32_USB_Host_Library/Core/Src/usbh_ctlreq.c **** 
 920              		.loc 1 1106 15 is_stmt 0 view .LVU332
 921 01be 2179     		ldrb	r1, [r4, #4]	@ zero_extendqisi2
 922 01c0 2046     		mov	r0, r4
 923 01c2 FFF7FEFF 		bl	USBH_FreePipe
 924              	.LVL69:
1108:Middlewares/ST/STM32_USB_Host_Library/Core/Src/usbh_ctlreq.c ****         status = USBH_FAIL;
 925              		.loc 1 1108 9 is_stmt 1 view .LVU333
1108:Middlewares/ST/STM32_USB_Host_Library/Core/Src/usbh_ctlreq.c ****         status = USBH_FAIL;
 926              		.loc 1 1108 23 is_stmt 0 view .LVU334
 927 01c6 2570     		strb	r5, [r4]
1109:Middlewares/ST/STM32_USB_Host_Library/Core/Src/usbh_ctlreq.c ****       }
 928              		.loc 1 1109 9 is_stmt 1 view .LVU335
 929              	.LVL70:
1109:Middlewares/ST/STM32_USB_Host_Library/Core/Src/usbh_ctlreq.c ****       }
 930              		.loc 1 1109 16 is_stmt 0 view .LVU336
 931 01c8 0225     		movs	r5, #2
 932 01ca 30E7     		b	.L27
 933              	.LVL71:
 934              	.L54:
 754:Middlewares/ST/STM32_USB_Host_Library/Core/Src/usbh_ctlreq.c ****   {
 935              		.loc 1 754 3 view .LVU337
 936 01cc 0125     		movs	r5, #1
 937 01ce 2EE7     		b	.L27
 938              	.LVL72:
 939              	.L56:
 861:Middlewares/ST/STM32_USB_Host_Library/Core/Src/usbh_ctlreq.c **** 
 940              		.loc 1 861 16 view .LVU338
 941 01d0 0325     		movs	r5, #3
 942 01d2 2CE7     		b	.L27
 943              	.L59:
1015:Middlewares/ST/STM32_USB_Host_Library/Core/Src/usbh_ctlreq.c **** 
 944              		.loc 1 1015 18 view .LVU339
 945 01d4 0325     		movs	r5, #3
 946 01d6 2AE7     		b	.L27
 947              		.cfi_endproc
 948              	.LFE149:
 950              		.section	.text.USBH_GetNextDesc,"ax",%progbits
 951              		.align	1
 952              		.global	USBH_GetNextDesc
 953              		.syntax unified
 954              		.thumb
 955              		.thumb_func
 957              	USBH_GetNextDesc:
 958              	.LVL73:
 959              	.LFB147:
 661:Middlewares/ST/STM32_USB_Host_Library/Core/Src/usbh_ctlreq.c ****   USBH_DescHeader_t  *pnext;
 960              		.loc 1 661 1 is_stmt 1 view -0
ARM GAS  C:\Users\stefa\AppData\Local\Temp\ccf1pQEx.s 			page 41


 961              		.cfi_startproc
 962              		@ args = 0, pretend = 0, frame = 0
 963              		@ frame_needed = 0, uses_anonymous_args = 0
 964              		@ link register save eliminated.
 662:Middlewares/ST/STM32_USB_Host_Library/Core/Src/usbh_ctlreq.c **** 
 965              		.loc 1 662 3 view .LVU341
 664:Middlewares/ST/STM32_USB_Host_Library/Core/Src/usbh_ctlreq.c ****   pnext = (USBH_DescHeader_t *)(void *)((uint8_t *)(void *)pbuf + \
 966              		.loc 1 664 3 view .LVU342
 664:Middlewares/ST/STM32_USB_Host_Library/Core/Src/usbh_ctlreq.c ****   pnext = (USBH_DescHeader_t *)(void *)((uint8_t *)(void *)pbuf + \
 967              		.loc 1 664 46 is_stmt 0 view .LVU343
 968 0000 0378     		ldrb	r3, [r0]	@ zero_extendqisi2
 664:Middlewares/ST/STM32_USB_Host_Library/Core/Src/usbh_ctlreq.c ****   pnext = (USBH_DescHeader_t *)(void *)((uint8_t *)(void *)pbuf + \
 969              		.loc 1 664 8 view .LVU344
 970 0002 0A88     		ldrh	r2, [r1]
 971 0004 1344     		add	r3, r3, r2
 972 0006 0B80     		strh	r3, [r1]	@ movhi
 665:Middlewares/ST/STM32_USB_Host_Library/Core/Src/usbh_ctlreq.c ****                                         ((USBH_DescHeader_t *)(void *)pbuf)->bLength);
 973              		.loc 1 665 3 is_stmt 1 view .LVU345
 666:Middlewares/ST/STM32_USB_Host_Library/Core/Src/usbh_ctlreq.c **** 
 974              		.loc 1 666 76 is_stmt 0 view .LVU346
 975 0008 0378     		ldrb	r3, [r0]	@ zero_extendqisi2
 976              	.LVL74:
 668:Middlewares/ST/STM32_USB_Host_Library/Core/Src/usbh_ctlreq.c **** }
 977              		.loc 1 668 3 is_stmt 1 view .LVU347
 669:Middlewares/ST/STM32_USB_Host_Library/Core/Src/usbh_ctlreq.c **** 
 978              		.loc 1 669 1 is_stmt 0 view .LVU348
 979 000a 1844     		add	r0, r0, r3
 980              	.LVL75:
 669:Middlewares/ST/STM32_USB_Host_Library/Core/Src/usbh_ctlreq.c **** 
 981              		.loc 1 669 1 view .LVU349
 982 000c 7047     		bx	lr
 983              		.cfi_endproc
 984              	.LFE147:
 986              		.section	.text.USBH_ParseCfgDesc,"ax",%progbits
 987              		.align	1
 988              		.syntax unified
 989              		.thumb
 990              		.thumb_func
 992              	USBH_ParseCfgDesc:
 993              	.LVL76:
 994              	.LFB143:
 403:Middlewares/ST/STM32_USB_Host_Library/Core/Src/usbh_ctlreq.c ****   USBH_CfgDescTypeDef *cfg_desc = &phost->device.CfgDesc;
 995              		.loc 1 403 1 is_stmt 1 view -0
 996              		.cfi_startproc
 997              		@ args = 0, pretend = 0, frame = 8
 998              		@ frame_needed = 0, uses_anonymous_args = 0
 403:Middlewares/ST/STM32_USB_Host_Library/Core/Src/usbh_ctlreq.c ****   USBH_CfgDescTypeDef *cfg_desc = &phost->device.CfgDesc;
 999              		.loc 1 403 1 is_stmt 0 view .LVU351
 1000 0000 2DE9F043 		push	{r4, r5, r6, r7, r8, r9, lr}
 1001              	.LCFI5:
 1002              		.cfi_def_cfa_offset 28
 1003              		.cfi_offset 4, -28
 1004              		.cfi_offset 5, -24
 1005              		.cfi_offset 6, -20
 1006              		.cfi_offset 7, -16
 1007              		.cfi_offset 8, -12
 1008              		.cfi_offset 9, -8
ARM GAS  C:\Users\stefa\AppData\Local\Temp\ccf1pQEx.s 			page 42


 1009              		.cfi_offset 14, -4
 1010 0004 83B0     		sub	sp, sp, #12
 1011              	.LCFI6:
 1012              		.cfi_def_cfa_offset 40
 1013 0006 0546     		mov	r5, r0
 1014 0008 0C46     		mov	r4, r1
 404:Middlewares/ST/STM32_USB_Host_Library/Core/Src/usbh_ctlreq.c ****   USBH_StatusTypeDef           status = USBH_OK;
 1015              		.loc 1 404 3 is_stmt 1 view .LVU352
 1016              	.LVL77:
 405:Middlewares/ST/STM32_USB_Host_Library/Core/Src/usbh_ctlreq.c ****   USBH_InterfaceDescTypeDef    *pif ;
 1017              		.loc 1 405 3 view .LVU353
 406:Middlewares/ST/STM32_USB_Host_Library/Core/Src/usbh_ctlreq.c ****   USBH_EpDescTypeDef           *pep;
 1018              		.loc 1 406 3 view .LVU354
 407:Middlewares/ST/STM32_USB_Host_Library/Core/Src/usbh_ctlreq.c ****   USBH_DescHeader_t            *pdesc = (USBH_DescHeader_t *)(void *)buf;
 1019              		.loc 1 407 3 view .LVU355
 408:Middlewares/ST/STM32_USB_Host_Library/Core/Src/usbh_ctlreq.c ****   uint16_t                     ptr;
 1020              		.loc 1 408 3 view .LVU356
 409:Middlewares/ST/STM32_USB_Host_Library/Core/Src/usbh_ctlreq.c ****   uint8_t                      if_ix = 0U;
 1021              		.loc 1 409 3 view .LVU357
 410:Middlewares/ST/STM32_USB_Host_Library/Core/Src/usbh_ctlreq.c ****   uint8_t                      ep_ix = 0U;
 1022              		.loc 1 410 3 view .LVU358
 411:Middlewares/ST/STM32_USB_Host_Library/Core/Src/usbh_ctlreq.c **** 
 1023              		.loc 1 411 3 view .LVU359
 413:Middlewares/ST/STM32_USB_Host_Library/Core/Src/usbh_ctlreq.c **** 
 1024              		.loc 1 413 3 view .LVU360
 416:Middlewares/ST/STM32_USB_Host_Library/Core/Src/usbh_ctlreq.c ****   cfg_desc->bDescriptorType     = *(uint8_t *)(buf + 1);
 1025              		.loc 1 416 3 view .LVU361
 416:Middlewares/ST/STM32_USB_Host_Library/Core/Src/usbh_ctlreq.c ****   cfg_desc->bDescriptorType     = *(uint8_t *)(buf + 1);
 1026              		.loc 1 416 35 is_stmt 0 view .LVU362
 1027 000a 0978     		ldrb	r1, [r1]	@ zero_extendqisi2
 1028              	.LVL78:
 416:Middlewares/ST/STM32_USB_Host_Library/Core/Src/usbh_ctlreq.c ****   cfg_desc->bDescriptorType     = *(uint8_t *)(buf + 1);
 1029              		.loc 1 416 33 view .LVU363
 1030 000c 80F83813 		strb	r1, [r0, #824]
 417:Middlewares/ST/STM32_USB_Host_Library/Core/Src/usbh_ctlreq.c ****   cfg_desc->wTotalLength        = MIN(((uint16_t) LE16(buf + 2)), ((uint16_t)USBH_MAX_SIZE_CONFIGUR
 1031              		.loc 1 417 3 is_stmt 1 view .LVU364
 417:Middlewares/ST/STM32_USB_Host_Library/Core/Src/usbh_ctlreq.c ****   cfg_desc->wTotalLength        = MIN(((uint16_t) LE16(buf + 2)), ((uint16_t)USBH_MAX_SIZE_CONFIGUR
 1032              		.loc 1 417 33 is_stmt 0 view .LVU365
 1033 0010 6378     		ldrb	r3, [r4, #1]	@ zero_extendqisi2
 1034 0012 80F83933 		strb	r3, [r0, #825]
 418:Middlewares/ST/STM32_USB_Host_Library/Core/Src/usbh_ctlreq.c ****   cfg_desc->bNumInterfaces      = *(uint8_t *)(buf + 4);
 1035              		.loc 1 418 3 is_stmt 1 view .LVU366
 418:Middlewares/ST/STM32_USB_Host_Library/Core/Src/usbh_ctlreq.c ****   cfg_desc->bNumInterfaces      = *(uint8_t *)(buf + 4);
 1036              		.loc 1 418 35 is_stmt 0 view .LVU367
 1037 0016 A378     		ldrb	r3, [r4, #2]	@ zero_extendqisi2
 1038 0018 E078     		ldrb	r0, [r4, #3]	@ zero_extendqisi2
 1039              	.LVL79:
 418:Middlewares/ST/STM32_USB_Host_Library/Core/Src/usbh_ctlreq.c ****   cfg_desc->bNumInterfaces      = *(uint8_t *)(buf + 4);
 1040              		.loc 1 418 35 view .LVU368
 1041 001a 43EA0023 		orr	r3, r3, r0, lsl #8
 1042 001e B3F5807F 		cmp	r3, #256
 1043 0022 28BF     		it	cs
 1044 0024 4FF48073 		movcs	r3, #256
 418:Middlewares/ST/STM32_USB_Host_Library/Core/Src/usbh_ctlreq.c ****   cfg_desc->bNumInterfaces      = *(uint8_t *)(buf + 4);
 1045              		.loc 1 418 33 view .LVU369
 1046 0028 A5F83A33 		strh	r3, [r5, #826]	@ movhi
 419:Middlewares/ST/STM32_USB_Host_Library/Core/Src/usbh_ctlreq.c ****   cfg_desc->bConfigurationValue = *(uint8_t *)(buf + 5);
ARM GAS  C:\Users\stefa\AppData\Local\Temp\ccf1pQEx.s 			page 43


 1047              		.loc 1 419 3 is_stmt 1 view .LVU370
 419:Middlewares/ST/STM32_USB_Host_Library/Core/Src/usbh_ctlreq.c ****   cfg_desc->bConfigurationValue = *(uint8_t *)(buf + 5);
 1048              		.loc 1 419 33 is_stmt 0 view .LVU371
 1049 002c 2379     		ldrb	r3, [r4, #4]	@ zero_extendqisi2
 1050 002e 85F83C33 		strb	r3, [r5, #828]
 420:Middlewares/ST/STM32_USB_Host_Library/Core/Src/usbh_ctlreq.c ****   cfg_desc->iConfiguration      = *(uint8_t *)(buf + 6);
 1051              		.loc 1 420 3 is_stmt 1 view .LVU372
 420:Middlewares/ST/STM32_USB_Host_Library/Core/Src/usbh_ctlreq.c ****   cfg_desc->iConfiguration      = *(uint8_t *)(buf + 6);
 1052              		.loc 1 420 33 is_stmt 0 view .LVU373
 1053 0032 6379     		ldrb	r3, [r4, #5]	@ zero_extendqisi2
 1054 0034 85F83D33 		strb	r3, [r5, #829]
 421:Middlewares/ST/STM32_USB_Host_Library/Core/Src/usbh_ctlreq.c ****   cfg_desc->bmAttributes        = *(uint8_t *)(buf + 7);
 1055              		.loc 1 421 3 is_stmt 1 view .LVU374
 421:Middlewares/ST/STM32_USB_Host_Library/Core/Src/usbh_ctlreq.c ****   cfg_desc->bmAttributes        = *(uint8_t *)(buf + 7);
 1056              		.loc 1 421 33 is_stmt 0 view .LVU375
 1057 0038 A379     		ldrb	r3, [r4, #6]	@ zero_extendqisi2
 1058 003a 85F83E33 		strb	r3, [r5, #830]
 422:Middlewares/ST/STM32_USB_Host_Library/Core/Src/usbh_ctlreq.c ****   cfg_desc->bMaxPower           = *(uint8_t *)(buf + 8);
 1059              		.loc 1 422 3 is_stmt 1 view .LVU376
 422:Middlewares/ST/STM32_USB_Host_Library/Core/Src/usbh_ctlreq.c ****   cfg_desc->bMaxPower           = *(uint8_t *)(buf + 8);
 1060              		.loc 1 422 33 is_stmt 0 view .LVU377
 1061 003e E379     		ldrb	r3, [r4, #7]	@ zero_extendqisi2
 1062 0040 85F83F33 		strb	r3, [r5, #831]
 423:Middlewares/ST/STM32_USB_Host_Library/Core/Src/usbh_ctlreq.c **** 
 1063              		.loc 1 423 3 is_stmt 1 view .LVU378
 423:Middlewares/ST/STM32_USB_Host_Library/Core/Src/usbh_ctlreq.c **** 
 1064              		.loc 1 423 33 is_stmt 0 view .LVU379
 1065 0044 237A     		ldrb	r3, [r4, #8]	@ zero_extendqisi2
 1066 0046 85F84033 		strb	r3, [r5, #832]
 426:Middlewares/ST/STM32_USB_Host_Library/Core/Src/usbh_ctlreq.c ****   {
 1067              		.loc 1 426 3 is_stmt 1 view .LVU380
 426:Middlewares/ST/STM32_USB_Host_Library/Core/Src/usbh_ctlreq.c ****   {
 1068              		.loc 1 426 6 is_stmt 0 view .LVU381
 1069 004a 0929     		cmp	r1, #9
 1070 004c 02D0     		beq	.L78
 428:Middlewares/ST/STM32_USB_Host_Library/Core/Src/usbh_ctlreq.c ****   }
 1071              		.loc 1 428 5 is_stmt 1 view .LVU382
 428:Middlewares/ST/STM32_USB_Host_Library/Core/Src/usbh_ctlreq.c ****   }
 1072              		.loc 1 428 23 is_stmt 0 view .LVU383
 1073 004e 0923     		movs	r3, #9
 1074 0050 85F83833 		strb	r3, [r5, #824]
 1075              	.L78:
 431:Middlewares/ST/STM32_USB_Host_Library/Core/Src/usbh_ctlreq.c ****   {
 1076              		.loc 1 431 3 is_stmt 1 view .LVU384
 431:Middlewares/ST/STM32_USB_Host_Library/Core/Src/usbh_ctlreq.c ****   {
 1077              		.loc 1 431 6 is_stmt 0 view .LVU385
 1078 0054 092A     		cmp	r2, #9
 1079 0056 7FD9     		bls	.L91
 433:Middlewares/ST/STM32_USB_Host_Library/Core/Src/usbh_ctlreq.c ****     pif = (USBH_InterfaceDescTypeDef *)NULL;
 1080              		.loc 1 433 5 is_stmt 1 view .LVU386
 433:Middlewares/ST/STM32_USB_Host_Library/Core/Src/usbh_ctlreq.c ****     pif = (USBH_InterfaceDescTypeDef *)NULL;
 1081              		.loc 1 433 9 is_stmt 0 view .LVU387
 1082 0058 0923     		movs	r3, #9
 1083 005a ADF80630 		strh	r3, [sp, #6]	@ movhi
 434:Middlewares/ST/STM32_USB_Host_Library/Core/Src/usbh_ctlreq.c **** 
 1084              		.loc 1 434 5 is_stmt 1 view .LVU388
 1085              	.LVL80:
ARM GAS  C:\Users\stefa\AppData\Local\Temp\ccf1pQEx.s 			page 44


 436:Middlewares/ST/STM32_USB_Host_Library/Core/Src/usbh_ctlreq.c ****     {
 1086              		.loc 1 436 5 view .LVU389
 410:Middlewares/ST/STM32_USB_Host_Library/Core/Src/usbh_ctlreq.c ****   uint8_t                      ep_ix = 0U;
 1087              		.loc 1 410 32 is_stmt 0 view .LVU390
 1088 005e 0026     		movs	r6, #0
 405:Middlewares/ST/STM32_USB_Host_Library/Core/Src/usbh_ctlreq.c ****   USBH_InterfaceDescTypeDef    *pif ;
 1089              		.loc 1 405 32 view .LVU391
 1090 0060 3746     		mov	r7, r6
 1091              	.LVL81:
 1092              	.L81:
 436:Middlewares/ST/STM32_USB_Host_Library/Core/Src/usbh_ctlreq.c ****     {
 1093              		.loc 1 436 11 is_stmt 1 view .LVU392
 1094 0062 012E     		cmp	r6, #1
 1095 0064 6FD8     		bhi	.L89
 436:Middlewares/ST/STM32_USB_Host_Library/Core/Src/usbh_ctlreq.c ****     {
 1096              		.loc 1 436 64 is_stmt 0 discriminator 1 view .LVU393
 1097 0066 B5F83A23 		ldrh	r2, [r5, #826]
 436:Middlewares/ST/STM32_USB_Host_Library/Core/Src/usbh_ctlreq.c ****     {
 1098              		.loc 1 436 54 discriminator 1 view .LVU394
 1099 006a BDF80630 		ldrh	r3, [sp, #6]
 436:Middlewares/ST/STM32_USB_Host_Library/Core/Src/usbh_ctlreq.c ****     {
 1100              		.loc 1 436 46 discriminator 1 view .LVU395
 1101 006e 9A42     		cmp	r2, r3
 1102 0070 69D9     		bls	.L89
 438:Middlewares/ST/STM32_USB_Host_Library/Core/Src/usbh_ctlreq.c ****       if (pdesc->bDescriptorType == USB_DESC_TYPE_INTERFACE)
 1103              		.loc 1 438 7 is_stmt 1 view .LVU396
 438:Middlewares/ST/STM32_USB_Host_Library/Core/Src/usbh_ctlreq.c ****       if (pdesc->bDescriptorType == USB_DESC_TYPE_INTERFACE)
 1104              		.loc 1 438 15 is_stmt 0 view .LVU397
 1105 0072 0DF10601 		add	r1, sp, #6
 1106 0076 2046     		mov	r0, r4
 1107 0078 FFF7FEFF 		bl	USBH_GetNextDesc
 1108              	.LVL82:
 1109 007c 0446     		mov	r4, r0
 1110              	.LVL83:
 439:Middlewares/ST/STM32_USB_Host_Library/Core/Src/usbh_ctlreq.c ****       {
 1111              		.loc 1 439 7 is_stmt 1 view .LVU398
 439:Middlewares/ST/STM32_USB_Host_Library/Core/Src/usbh_ctlreq.c ****       {
 1112              		.loc 1 439 16 is_stmt 0 view .LVU399
 1113 007e 4378     		ldrb	r3, [r0, #1]	@ zero_extendqisi2
 439:Middlewares/ST/STM32_USB_Host_Library/Core/Src/usbh_ctlreq.c ****       {
 1114              		.loc 1 439 10 view .LVU400
 1115 0080 042B     		cmp	r3, #4
 1116 0082 EED1     		bne	.L81
 442:Middlewares/ST/STM32_USB_Host_Library/Core/Src/usbh_ctlreq.c ****         {
 1117              		.loc 1 442 9 is_stmt 1 view .LVU401
 442:Middlewares/ST/STM32_USB_Host_Library/Core/Src/usbh_ctlreq.c ****         {
 1118              		.loc 1 442 18 is_stmt 0 view .LVU402
 1119 0084 0378     		ldrb	r3, [r0]	@ zero_extendqisi2
 442:Middlewares/ST/STM32_USB_Host_Library/Core/Src/usbh_ctlreq.c ****         {
 1120              		.loc 1 442 12 view .LVU403
 1121 0086 092B     		cmp	r3, #9
 1122 0088 01D0     		beq	.L82
 444:Middlewares/ST/STM32_USB_Host_Library/Core/Src/usbh_ctlreq.c ****         }
 1123              		.loc 1 444 11 is_stmt 1 view .LVU404
 444:Middlewares/ST/STM32_USB_Host_Library/Core/Src/usbh_ctlreq.c ****         }
 1124              		.loc 1 444 26 is_stmt 0 view .LVU405
 1125 008a 0923     		movs	r3, #9
ARM GAS  C:\Users\stefa\AppData\Local\Temp\ccf1pQEx.s 			page 45


 1126 008c 0370     		strb	r3, [r0]
 1127              	.L82:
 447:Middlewares/ST/STM32_USB_Host_Library/Core/Src/usbh_ctlreq.c ****         USBH_ParseInterfaceDesc(pif, (uint8_t *)(void *)pdesc);
 1128              		.loc 1 447 9 is_stmt 1 view .LVU406
 447:Middlewares/ST/STM32_USB_Host_Library/Core/Src/usbh_ctlreq.c ****         USBH_ParseInterfaceDesc(pif, (uint8_t *)(void *)pdesc);
 1129              		.loc 1 447 34 is_stmt 0 view .LVU407
 1130 008e B146     		mov	r9, r6
 447:Middlewares/ST/STM32_USB_Host_Library/Core/Src/usbh_ctlreq.c ****         USBH_ParseInterfaceDesc(pif, (uint8_t *)(void *)pdesc);
 1131              		.loc 1 447 13 view .LVU408
 1132 0090 05F54E70 		add	r0, r5, #824
 1133              	.LVL84:
 447:Middlewares/ST/STM32_USB_Host_Library/Core/Src/usbh_ctlreq.c ****         USBH_ParseInterfaceDesc(pif, (uint8_t *)(void *)pdesc);
 1134              		.loc 1 447 13 view .LVU409
 1135 0094 1A23     		movs	r3, #26
 1136 0096 06FB03F3 		mul	r3, r6, r3
 1137 009a 0833     		adds	r3, r3, #8
 1138 009c 1844     		add	r0, r0, r3
 1139              	.LVL85:
 448:Middlewares/ST/STM32_USB_Host_Library/Core/Src/usbh_ctlreq.c **** 
 1140              		.loc 1 448 9 is_stmt 1 view .LVU410
 1141 009e 2146     		mov	r1, r4
 1142 00a0 0230     		adds	r0, r0, #2
 1143              	.LVL86:
 448:Middlewares/ST/STM32_USB_Host_Library/Core/Src/usbh_ctlreq.c **** 
 1144              		.loc 1 448 9 is_stmt 0 view .LVU411
 1145 00a2 FFF7FEFF 		bl	USBH_ParseInterfaceDesc
 1146              	.LVL87:
 450:Middlewares/ST/STM32_USB_Host_Library/Core/Src/usbh_ctlreq.c ****         pep = (USBH_EpDescTypeDef *)NULL;
 1147              		.loc 1 450 9 is_stmt 1 view .LVU412
 451:Middlewares/ST/STM32_USB_Host_Library/Core/Src/usbh_ctlreq.c **** 
 1148              		.loc 1 451 9 view .LVU413
 453:Middlewares/ST/STM32_USB_Host_Library/Core/Src/usbh_ctlreq.c ****         {
 1149              		.loc 1 453 9 view .LVU414
 450:Middlewares/ST/STM32_USB_Host_Library/Core/Src/usbh_ctlreq.c ****         pep = (USBH_EpDescTypeDef *)NULL;
 1150              		.loc 1 450 15 is_stmt 0 view .LVU415
 1151 00a6 4FF00008 		mov	r8, #0
 453:Middlewares/ST/STM32_USB_Host_Library/Core/Src/usbh_ctlreq.c ****         {
 1152              		.loc 1 453 15 view .LVU416
 1153 00aa 24E0     		b	.L83
 1154              	.LVL88:
 1155              	.L95:
 460:Middlewares/ST/STM32_USB_Host_Library/Core/Src/usbh_ctlreq.c ****             {
 1156              		.loc 1 460 56 discriminator 1 view .LVU417
 1157 00ac 1A23     		movs	r3, #26
 1158              	.LVL89:
 460:Middlewares/ST/STM32_USB_Host_Library/Core/Src/usbh_ctlreq.c ****             {
 1159              		.loc 1 460 56 discriminator 1 view .LVU418
 1160 00ae 03FB0953 		mla	r3, r3, r9, r5
 1161              	.LVL90:
 460:Middlewares/ST/STM32_USB_Host_Library/Core/Src/usbh_ctlreq.c ****             {
 1162              		.loc 1 460 56 discriminator 1 view .LVU419
 1163 00b2 93F84833 		ldrb	r3, [r3, #840]	@ zero_extendqisi2
 460:Middlewares/ST/STM32_USB_Host_Library/Core/Src/usbh_ctlreq.c ****             {
 1164              		.loc 1 460 49 discriminator 1 view .LVU420
 1165 00b6 022B     		cmp	r3, #2
 1166 00b8 3AD1     		bne	.L85
 463:Middlewares/ST/STM32_USB_Host_Library/Core/Src/usbh_ctlreq.c ****               {
ARM GAS  C:\Users\stefa\AppData\Local\Temp\ccf1pQEx.s 			page 46


 1167              		.loc 1 463 15 is_stmt 1 view .LVU421
 463:Middlewares/ST/STM32_USB_Host_Library/Core/Src/usbh_ctlreq.c ****               {
 1168              		.loc 1 463 23 is_stmt 0 view .LVU422
 1169 00ba 1A23     		movs	r3, #26
 1170              	.LVL91:
 463:Middlewares/ST/STM32_USB_Host_Library/Core/Src/usbh_ctlreq.c ****               {
 1171              		.loc 1 463 23 view .LVU423
 1172 00bc 03FB0953 		mla	r3, r3, r9, r5
 1173              	.LVL92:
 463:Middlewares/ST/STM32_USB_Host_Library/Core/Src/usbh_ctlreq.c ****               {
 1174              		.loc 1 463 23 view .LVU424
 1175 00c0 93F84933 		ldrb	r3, [r3, #841]	@ zero_extendqisi2
 463:Middlewares/ST/STM32_USB_Host_Library/Core/Src/usbh_ctlreq.c ****               {
 1176              		.loc 1 463 18 view .LVU425
 1177 00c4 23B9     		cbnz	r3, .L86
 463:Middlewares/ST/STM32_USB_Host_Library/Core/Src/usbh_ctlreq.c ****               {
 1178              		.loc 1 463 63 discriminator 1 view .LVU426
 1179 00c6 0378     		ldrb	r3, [r0]	@ zero_extendqisi2
 463:Middlewares/ST/STM32_USB_Host_Library/Core/Src/usbh_ctlreq.c ****               {
 1180              		.loc 1 463 54 discriminator 1 view .LVU427
 1181 00c8 092B     		cmp	r3, #9
 1182 00ca 01D0     		beq	.L86
 465:Middlewares/ST/STM32_USB_Host_Library/Core/Src/usbh_ctlreq.c ****               }
 1183              		.loc 1 465 17 is_stmt 1 view .LVU428
 465:Middlewares/ST/STM32_USB_Host_Library/Core/Src/usbh_ctlreq.c ****               }
 1184              		.loc 1 465 32 is_stmt 0 view .LVU429
 1185 00cc 0923     		movs	r3, #9
 1186 00ce 0370     		strb	r3, [r0]
 1187              	.L86:
 477:Middlewares/ST/STM32_USB_Host_Library/Core/Src/usbh_ctlreq.c **** 
 1188              		.loc 1 477 13 is_stmt 1 view .LVU430
 479:Middlewares/ST/STM32_USB_Host_Library/Core/Src/usbh_ctlreq.c **** 
 1189              		.loc 1 479 13 view .LVU431
 479:Middlewares/ST/STM32_USB_Host_Library/Core/Src/usbh_ctlreq.c **** 
 1190              		.loc 1 479 17 is_stmt 0 view .LVU432
 1191 00d0 05F54E73 		add	r3, r5, #824
 1192 00d4 08F10108 		add	r8, r8, #1
 1193              	.LVL93:
 479:Middlewares/ST/STM32_USB_Host_Library/Core/Src/usbh_ctlreq.c **** 
 1194              		.loc 1 479 17 view .LVU433
 1195 00d8 1A21     		movs	r1, #26
 1196              	.LVL94:
 479:Middlewares/ST/STM32_USB_Host_Library/Core/Src/usbh_ctlreq.c **** 
 1197              		.loc 1 479 17 view .LVU434
 1198 00da 01FB09F1 		mul	r1, r1, r9
 1199              	.LVL95:
 479:Middlewares/ST/STM32_USB_Host_Library/Core/Src/usbh_ctlreq.c **** 
 1200              		.loc 1 479 17 view .LVU435
 1201 00de 01EBC801 		add	r1, r1, r8, lsl #3
 1202 00e2 0831     		adds	r1, r1, #8
 1203 00e4 1944     		add	r1, r1, r3
 1204              	.LVL96:
 481:Middlewares/ST/STM32_USB_Host_Library/Core/Src/usbh_ctlreq.c **** 
 1205              		.loc 1 481 13 is_stmt 1 view .LVU436
 481:Middlewares/ST/STM32_USB_Host_Library/Core/Src/usbh_ctlreq.c **** 
 1206              		.loc 1 481 22 is_stmt 0 view .LVU437
 1207 00e6 2246     		mov	r2, r4
ARM GAS  C:\Users\stefa\AppData\Local\Temp\ccf1pQEx.s 			page 47


 1208 00e8 0431     		adds	r1, r1, #4
 1209              	.LVL97:
 481:Middlewares/ST/STM32_USB_Host_Library/Core/Src/usbh_ctlreq.c **** 
 1210              		.loc 1 481 22 view .LVU438
 1211 00ea 2846     		mov	r0, r5
 1212              	.LVL98:
 481:Middlewares/ST/STM32_USB_Host_Library/Core/Src/usbh_ctlreq.c **** 
 1213              		.loc 1 481 22 view .LVU439
 1214 00ec FFF7FEFF 		bl	USBH_ParseEPDesc
 1215              	.LVL99:
 481:Middlewares/ST/STM32_USB_Host_Library/Core/Src/usbh_ctlreq.c **** 
 1216              		.loc 1 481 22 view .LVU440
 1217 00f0 0746     		mov	r7, r0
 1218              	.LVL100:
 483:Middlewares/ST/STM32_USB_Host_Library/Core/Src/usbh_ctlreq.c ****           }
 1219              		.loc 1 483 13 is_stmt 1 view .LVU441
 483:Middlewares/ST/STM32_USB_Host_Library/Core/Src/usbh_ctlreq.c ****           }
 1220              		.loc 1 483 18 is_stmt 0 view .LVU442
 1221 00f2 5FFA88F8 		uxtb	r8, r8
 1222              	.LVL101:
 1223              	.L83:
 453:Middlewares/ST/STM32_USB_Host_Library/Core/Src/usbh_ctlreq.c ****         {
 1224              		.loc 1 453 15 is_stmt 1 view .LVU443
 453:Middlewares/ST/STM32_USB_Host_Library/Core/Src/usbh_ctlreq.c ****         {
 1225              		.loc 1 453 28 is_stmt 0 view .LVU444
 1226 00f6 1A23     		movs	r3, #26
 1227              	.LVL102:
 453:Middlewares/ST/STM32_USB_Host_Library/Core/Src/usbh_ctlreq.c ****         {
 1228              		.loc 1 453 28 view .LVU445
 1229 00f8 03FB0953 		mla	r3, r3, r9, r5
 1230              	.LVL103:
 453:Middlewares/ST/STM32_USB_Host_Library/Core/Src/usbh_ctlreq.c ****         {
 1231              		.loc 1 453 28 view .LVU446
 1232 00fc 93F84633 		ldrb	r3, [r3, #838]	@ zero_extendqisi2
 453:Middlewares/ST/STM32_USB_Host_Library/Core/Src/usbh_ctlreq.c ****         {
 1233              		.loc 1 453 15 view .LVU447
 1234 0100 4345     		cmp	r3, r8
 1235 0102 1BD9     		bls	.L87
 453:Middlewares/ST/STM32_USB_Host_Library/Core/Src/usbh_ctlreq.c ****         {
 1236              		.loc 1 453 63 discriminator 1 view .LVU448
 1237 0104 B5F83A13 		ldrh	r1, [r5, #826]
 453:Middlewares/ST/STM32_USB_Host_Library/Core/Src/usbh_ctlreq.c ****         {
 1238              		.loc 1 453 53 discriminator 1 view .LVU449
 1239 0108 BDF80620 		ldrh	r2, [sp, #6]
 453:Middlewares/ST/STM32_USB_Host_Library/Core/Src/usbh_ctlreq.c ****         {
 1240              		.loc 1 453 45 discriminator 1 view .LVU450
 1241 010c 9142     		cmp	r1, r2
 1242 010e 15D9     		bls	.L87
 455:Middlewares/ST/STM32_USB_Host_Library/Core/Src/usbh_ctlreq.c **** 
 1243              		.loc 1 455 11 is_stmt 1 view .LVU451
 455:Middlewares/ST/STM32_USB_Host_Library/Core/Src/usbh_ctlreq.c **** 
 1244              		.loc 1 455 19 is_stmt 0 view .LVU452
 1245 0110 0DF10601 		add	r1, sp, #6
 1246 0114 2046     		mov	r0, r4
 1247 0116 FFF7FEFF 		bl	USBH_GetNextDesc
 1248              	.LVL104:
 1249 011a 0446     		mov	r4, r0
ARM GAS  C:\Users\stefa\AppData\Local\Temp\ccf1pQEx.s 			page 48


 1250              	.LVL105:
 457:Middlewares/ST/STM32_USB_Host_Library/Core/Src/usbh_ctlreq.c ****           {
 1251              		.loc 1 457 11 is_stmt 1 view .LVU453
 457:Middlewares/ST/STM32_USB_Host_Library/Core/Src/usbh_ctlreq.c ****           {
 1252              		.loc 1 457 20 is_stmt 0 view .LVU454
 1253 011c 4378     		ldrb	r3, [r0, #1]	@ zero_extendqisi2
 457:Middlewares/ST/STM32_USB_Host_Library/Core/Src/usbh_ctlreq.c ****           {
 1254              		.loc 1 457 14 view .LVU455
 1255 011e 052B     		cmp	r3, #5
 1256 0120 E9D1     		bne	.L83
 460:Middlewares/ST/STM32_USB_Host_Library/Core/Src/usbh_ctlreq.c ****             {
 1257              		.loc 1 460 13 is_stmt 1 view .LVU456
 460:Middlewares/ST/STM32_USB_Host_Library/Core/Src/usbh_ctlreq.c ****             {
 1258              		.loc 1 460 21 is_stmt 0 view .LVU457
 1259 0122 1A23     		movs	r3, #26
 1260              	.LVL106:
 460:Middlewares/ST/STM32_USB_Host_Library/Core/Src/usbh_ctlreq.c ****             {
 1261              		.loc 1 460 21 view .LVU458
 1262 0124 03FB0953 		mla	r3, r3, r9, r5
 1263              	.LVL107:
 460:Middlewares/ST/STM32_USB_Host_Library/Core/Src/usbh_ctlreq.c ****             {
 1264              		.loc 1 460 21 view .LVU459
 1265 0128 93F84733 		ldrb	r3, [r3, #839]	@ zero_extendqisi2
 460:Middlewares/ST/STM32_USB_Host_Library/Core/Src/usbh_ctlreq.c ****             {
 1266              		.loc 1 460 16 view .LVU460
 1267 012c 012B     		cmp	r3, #1
 1268 012e BDD0     		beq	.L95
 1269              	.L85:
 470:Middlewares/ST/STM32_USB_Host_Library/Core/Src/usbh_ctlreq.c ****             {
 1270              		.loc 1 470 18 is_stmt 1 view .LVU461
 470:Middlewares/ST/STM32_USB_Host_Library/Core/Src/usbh_ctlreq.c ****             {
 1271              		.loc 1 470 27 is_stmt 0 view .LVU462
 1272 0130 2378     		ldrb	r3, [r4]	@ zero_extendqisi2
 470:Middlewares/ST/STM32_USB_Host_Library/Core/Src/usbh_ctlreq.c ****             {
 1273              		.loc 1 470 21 view .LVU463
 1274 0132 072B     		cmp	r3, #7
 1275 0134 CCD0     		beq	.L86
 472:Middlewares/ST/STM32_USB_Host_Library/Core/Src/usbh_ctlreq.c ****             }
 1276              		.loc 1 472 15 is_stmt 1 view .LVU464
 472:Middlewares/ST/STM32_USB_Host_Library/Core/Src/usbh_ctlreq.c ****             }
 1277              		.loc 1 472 30 is_stmt 0 view .LVU465
 1278 0136 0723     		movs	r3, #7
 1279 0138 2370     		strb	r3, [r4]
 1280 013a C9E7     		b	.L86
 1281              	.LVL108:
 1282              	.L87:
 488:Middlewares/ST/STM32_USB_Host_Library/Core/Src/usbh_ctlreq.c ****         {
 1283              		.loc 1 488 9 is_stmt 1 view .LVU466
 488:Middlewares/ST/STM32_USB_Host_Library/Core/Src/usbh_ctlreq.c ****         {
 1284              		.loc 1 488 12 is_stmt 0 view .LVU467
 1285 013c 4345     		cmp	r3, r8
 1286 013e 10D8     		bhi	.L92
 493:Middlewares/ST/STM32_USB_Host_Library/Core/Src/usbh_ctlreq.c ****       }
 1287              		.loc 1 493 9 is_stmt 1 view .LVU468
 493:Middlewares/ST/STM32_USB_Host_Library/Core/Src/usbh_ctlreq.c ****       }
 1288              		.loc 1 493 14 is_stmt 0 view .LVU469
 1289 0140 0136     		adds	r6, r6, #1
ARM GAS  C:\Users\stefa\AppData\Local\Temp\ccf1pQEx.s 			page 49


 1290              	.LVL109:
 493:Middlewares/ST/STM32_USB_Host_Library/Core/Src/usbh_ctlreq.c ****       }
 1291              		.loc 1 493 14 view .LVU470
 1292 0142 F6B2     		uxtb	r6, r6
 1293              	.LVL110:
 493:Middlewares/ST/STM32_USB_Host_Library/Core/Src/usbh_ctlreq.c ****       }
 1294              		.loc 1 493 14 view .LVU471
 1295 0144 8DE7     		b	.L81
 1296              	.LVL111:
 1297              	.L89:
 498:Middlewares/ST/STM32_USB_Host_Library/Core/Src/usbh_ctlreq.c ****     {
 1298              		.loc 1 498 5 is_stmt 1 view .LVU472
 498:Middlewares/ST/STM32_USB_Host_Library/Core/Src/usbh_ctlreq.c ****     {
 1299              		.loc 1 498 17 is_stmt 0 view .LVU473
 1300 0146 95F83C33 		ldrb	r3, [r5, #828]	@ zero_extendqisi2
 1301 014a 022B     		cmp	r3, #2
 1302 014c 28BF     		it	cs
 1303 014e 0223     		movcs	r3, #2
 498:Middlewares/ST/STM32_USB_Host_Library/Core/Src/usbh_ctlreq.c ****     {
 1304              		.loc 1 498 8 view .LVU474
 1305 0150 B342     		cmp	r3, r6
 1306 0152 02D9     		bls	.L79
 500:Middlewares/ST/STM32_USB_Host_Library/Core/Src/usbh_ctlreq.c ****     }
 1307              		.loc 1 500 14 view .LVU475
 1308 0154 0327     		movs	r7, #3
 1309              	.LVL112:
 500:Middlewares/ST/STM32_USB_Host_Library/Core/Src/usbh_ctlreq.c ****     }
 1310              		.loc 1 500 14 view .LVU476
 1311 0156 00E0     		b	.L79
 1312              	.LVL113:
 1313              	.L91:
 405:Middlewares/ST/STM32_USB_Host_Library/Core/Src/usbh_ctlreq.c ****   USBH_InterfaceDescTypeDef    *pif ;
 1314              		.loc 1 405 32 view .LVU477
 1315 0158 0027     		movs	r7, #0
 1316              	.LVL114:
 1317              	.L79:
 505:Middlewares/ST/STM32_USB_Host_Library/Core/Src/usbh_ctlreq.c **** 
 1318              		.loc 1 505 1 view .LVU478
 1319 015a 3846     		mov	r0, r7
 1320 015c 03B0     		add	sp, sp, #12
 1321              	.LCFI7:
 1322              		.cfi_remember_state
 1323              		.cfi_def_cfa_offset 28
 1324              		@ sp needed
 1325 015e BDE8F083 		pop	{r4, r5, r6, r7, r8, r9, pc}
 1326              	.LVL115:
 1327              	.L92:
 1328              	.LCFI8:
 1329              		.cfi_restore_state
 490:Middlewares/ST/STM32_USB_Host_Library/Core/Src/usbh_ctlreq.c ****         }
 1330              		.loc 1 490 18 view .LVU479
 1331 0162 0327     		movs	r7, #3
 1332              	.LVL116:
 490:Middlewares/ST/STM32_USB_Host_Library/Core/Src/usbh_ctlreq.c ****         }
 1333              		.loc 1 490 18 view .LVU480
 1334 0164 F9E7     		b	.L79
 1335              		.cfi_endproc
ARM GAS  C:\Users\stefa\AppData\Local\Temp\ccf1pQEx.s 			page 50


 1336              	.LFE143:
 1338              		.section	.text.USBH_CtlReq,"ax",%progbits
 1339              		.align	1
 1340              		.global	USBH_CtlReq
 1341              		.syntax unified
 1342              		.thumb
 1343              		.thumb_func
 1345              	USBH_CtlReq:
 1346              	.LVL117:
 1347              	.LFB148:
 684:Middlewares/ST/STM32_USB_Host_Library/Core/Src/usbh_ctlreq.c ****   USBH_StatusTypeDef status;
 1348              		.loc 1 684 1 is_stmt 1 view -0
 1349              		.cfi_startproc
 1350              		@ args = 0, pretend = 0, frame = 0
 1351              		@ frame_needed = 0, uses_anonymous_args = 0
 684:Middlewares/ST/STM32_USB_Host_Library/Core/Src/usbh_ctlreq.c ****   USBH_StatusTypeDef status;
 1352              		.loc 1 684 1 is_stmt 0 view .LVU482
 1353 0000 10B5     		push	{r4, lr}
 1354              	.LCFI9:
 1355              		.cfi_def_cfa_offset 8
 1356              		.cfi_offset 4, -8
 1357              		.cfi_offset 14, -4
 1358 0002 0446     		mov	r4, r0
 685:Middlewares/ST/STM32_USB_Host_Library/Core/Src/usbh_ctlreq.c ****   status = USBH_BUSY;
 1359              		.loc 1 685 3 is_stmt 1 view .LVU483
 686:Middlewares/ST/STM32_USB_Host_Library/Core/Src/usbh_ctlreq.c **** 
 1360              		.loc 1 686 3 view .LVU484
 1361              	.LVL118:
 688:Middlewares/ST/STM32_USB_Host_Library/Core/Src/usbh_ctlreq.c ****   {
 1362              		.loc 1 688 3 view .LVU485
 688:Middlewares/ST/STM32_USB_Host_Library/Core/Src/usbh_ctlreq.c ****   {
 1363              		.loc 1 688 16 is_stmt 0 view .LVU486
 1364 0004 8078     		ldrb	r0, [r0, #2]	@ zero_extendqisi2
 1365              	.LVL119:
 688:Middlewares/ST/STM32_USB_Host_Library/Core/Src/usbh_ctlreq.c ****   {
 1366              		.loc 1 688 3 view .LVU487
 1367 0006 0128     		cmp	r0, #1
 1368 0008 03D0     		beq	.L97
 1369 000a 0228     		cmp	r0, #2
 1370 000c 08D0     		beq	.L98
 1371 000e 0120     		movs	r0, #1
 1372              	.LVL120:
 1373              	.L99:
 738:Middlewares/ST/STM32_USB_Host_Library/Core/Src/usbh_ctlreq.c **** }
 1374              		.loc 1 738 3 is_stmt 1 view .LVU488
 739:Middlewares/ST/STM32_USB_Host_Library/Core/Src/usbh_ctlreq.c **** 
 1375              		.loc 1 739 1 is_stmt 0 view .LVU489
 1376 0010 10BD     		pop	{r4, pc}
 1377              	.LVL121:
 1378              	.L97:
 692:Middlewares/ST/STM32_USB_Host_Library/Core/Src/usbh_ctlreq.c ****       phost->Control.length = length;
 1379              		.loc 1 692 7 is_stmt 1 view .LVU490
 692:Middlewares/ST/STM32_USB_Host_Library/Core/Src/usbh_ctlreq.c ****       phost->Control.length = length;
 1380              		.loc 1 692 27 is_stmt 0 view .LVU491
 1381 0012 A160     		str	r1, [r4, #8]
 693:Middlewares/ST/STM32_USB_Host_Library/Core/Src/usbh_ctlreq.c ****       phost->Control.state = CTRL_SETUP;
 1382              		.loc 1 693 7 is_stmt 1 view .LVU492
ARM GAS  C:\Users\stefa\AppData\Local\Temp\ccf1pQEx.s 			page 51


 693:Middlewares/ST/STM32_USB_Host_Library/Core/Src/usbh_ctlreq.c ****       phost->Control.state = CTRL_SETUP;
 1383              		.loc 1 693 29 is_stmt 0 view .LVU493
 1384 0014 A281     		strh	r2, [r4, #12]	@ movhi
 694:Middlewares/ST/STM32_USB_Host_Library/Core/Src/usbh_ctlreq.c ****       phost->RequestState = CMD_WAIT;
 1385              		.loc 1 694 7 is_stmt 1 view .LVU494
 694:Middlewares/ST/STM32_USB_Host_Library/Core/Src/usbh_ctlreq.c ****       phost->RequestState = CMD_WAIT;
 1386              		.loc 1 694 28 is_stmt 0 view .LVU495
 1387 0016 0123     		movs	r3, #1
 1388 0018 2376     		strb	r3, [r4, #24]
 695:Middlewares/ST/STM32_USB_Host_Library/Core/Src/usbh_ctlreq.c ****       status = USBH_BUSY;
 1389              		.loc 1 695 7 is_stmt 1 view .LVU496
 695:Middlewares/ST/STM32_USB_Host_Library/Core/Src/usbh_ctlreq.c ****       status = USBH_BUSY;
 1390              		.loc 1 695 27 is_stmt 0 view .LVU497
 1391 001a 0223     		movs	r3, #2
 1392 001c A370     		strb	r3, [r4, #2]
 696:Middlewares/ST/STM32_USB_Host_Library/Core/Src/usbh_ctlreq.c **** 
 1393              		.loc 1 696 7 is_stmt 1 view .LVU498
 706:Middlewares/ST/STM32_USB_Host_Library/Core/Src/usbh_ctlreq.c **** 
 1394              		.loc 1 706 7 view .LVU499
 1395 001e F7E7     		b	.L99
 1396              	.L98:
 709:Middlewares/ST/STM32_USB_Host_Library/Core/Src/usbh_ctlreq.c ****       if ((status == USBH_OK) || (status == USBH_NOT_SUPPORTED))
 1397              		.loc 1 709 7 view .LVU500
 709:Middlewares/ST/STM32_USB_Host_Library/Core/Src/usbh_ctlreq.c ****       if ((status == USBH_OK) || (status == USBH_NOT_SUPPORTED))
 1398              		.loc 1 709 16 is_stmt 0 view .LVU501
 1399 0020 2046     		mov	r0, r4
 1400 0022 FFF7FEFF 		bl	USBH_HandleControl
 1401              	.LVL122:
 710:Middlewares/ST/STM32_USB_Host_Library/Core/Src/usbh_ctlreq.c ****       {
 1402              		.loc 1 710 7 is_stmt 1 view .LVU502
 710:Middlewares/ST/STM32_USB_Host_Library/Core/Src/usbh_ctlreq.c ****       {
 1403              		.loc 1 710 10 is_stmt 0 view .LVU503
 1404 0026 30B1     		cbz	r0, .L100
 710:Middlewares/ST/STM32_USB_Host_Library/Core/Src/usbh_ctlreq.c ****       {
 1405              		.loc 1 710 31 discriminator 1 view .LVU504
 1406 0028 0328     		cmp	r0, #3
 1407 002a 04D0     		beq	.L100
 716:Middlewares/ST/STM32_USB_Host_Library/Core/Src/usbh_ctlreq.c ****       {
 1408              		.loc 1 716 12 is_stmt 1 view .LVU505
 716:Middlewares/ST/STM32_USB_Host_Library/Core/Src/usbh_ctlreq.c ****       {
 1409              		.loc 1 716 15 is_stmt 0 view .LVU506
 1410 002c 0228     		cmp	r0, #2
 1411 002e EFD1     		bne	.L99
 719:Middlewares/ST/STM32_USB_Host_Library/Core/Src/usbh_ctlreq.c ****       }
 1412              		.loc 1 719 9 is_stmt 1 view .LVU507
 719:Middlewares/ST/STM32_USB_Host_Library/Core/Src/usbh_ctlreq.c ****       }
 1413              		.loc 1 719 29 is_stmt 0 view .LVU508
 1414 0030 0123     		movs	r3, #1
 1415 0032 A370     		strb	r3, [r4, #2]
 1416 0034 ECE7     		b	.L99
 1417              	.L100:
 713:Middlewares/ST/STM32_USB_Host_Library/Core/Src/usbh_ctlreq.c ****         phost->Control.state = CTRL_IDLE;
 1418              		.loc 1 713 9 is_stmt 1 view .LVU509
 713:Middlewares/ST/STM32_USB_Host_Library/Core/Src/usbh_ctlreq.c ****         phost->Control.state = CTRL_IDLE;
 1419              		.loc 1 713 29 is_stmt 0 view .LVU510
 1420 0036 0123     		movs	r3, #1
 1421 0038 A370     		strb	r3, [r4, #2]
ARM GAS  C:\Users\stefa\AppData\Local\Temp\ccf1pQEx.s 			page 52


 714:Middlewares/ST/STM32_USB_Host_Library/Core/Src/usbh_ctlreq.c ****       }
 1422              		.loc 1 714 9 is_stmt 1 view .LVU511
 714:Middlewares/ST/STM32_USB_Host_Library/Core/Src/usbh_ctlreq.c ****       }
 1423              		.loc 1 714 30 is_stmt 0 view .LVU512
 1424 003a 0023     		movs	r3, #0
 1425 003c 2376     		strb	r3, [r4, #24]
 1426 003e E7E7     		b	.L99
 1427              		.cfi_endproc
 1428              	.LFE148:
 1430              		.section	.text.USBH_GetDescriptor,"ax",%progbits
 1431              		.align	1
 1432              		.global	USBH_GetDescriptor
 1433              		.syntax unified
 1434              		.thumb
 1435              		.thumb_func
 1437              	USBH_GetDescriptor:
 1438              	.LVL123:
 1439              	.LFB136:
 199:Middlewares/ST/STM32_USB_Host_Library/Core/Src/usbh_ctlreq.c ****   if (phost->RequestState == CMD_SEND)
 1440              		.loc 1 199 1 is_stmt 1 view -0
 1441              		.cfi_startproc
 1442              		@ args = 4, pretend = 0, frame = 0
 1443              		@ frame_needed = 0, uses_anonymous_args = 0
 199:Middlewares/ST/STM32_USB_Host_Library/Core/Src/usbh_ctlreq.c ****   if (phost->RequestState == CMD_SEND)
 1444              		.loc 1 199 1 is_stmt 0 view .LVU514
 1445 0000 08B5     		push	{r3, lr}
 1446              	.LCFI10:
 1447              		.cfi_def_cfa_offset 8
 1448              		.cfi_offset 3, -8
 1449              		.cfi_offset 14, -4
 1450 0002 8E46     		mov	lr, r1
 1451 0004 9446     		mov	ip, r2
 1452 0006 1946     		mov	r1, r3
 1453              	.LVL124:
 199:Middlewares/ST/STM32_USB_Host_Library/Core/Src/usbh_ctlreq.c ****   if (phost->RequestState == CMD_SEND)
 1454              		.loc 1 199 1 view .LVU515
 1455 0008 BDF80820 		ldrh	r2, [sp, #8]
 1456              	.LVL125:
 200:Middlewares/ST/STM32_USB_Host_Library/Core/Src/usbh_ctlreq.c ****   {
 1457              		.loc 1 200 3 is_stmt 1 view .LVU516
 200:Middlewares/ST/STM32_USB_Host_Library/Core/Src/usbh_ctlreq.c ****   {
 1458              		.loc 1 200 12 is_stmt 0 view .LVU517
 1459 000c 8378     		ldrb	r3, [r0, #2]	@ zero_extendqisi2
 1460              	.LVL126:
 200:Middlewares/ST/STM32_USB_Host_Library/Core/Src/usbh_ctlreq.c ****   {
 1461              		.loc 1 200 6 view .LVU518
 1462 000e 012B     		cmp	r3, #1
 1463 0010 02D0     		beq	.L108
 1464              	.L104:
 217:Middlewares/ST/STM32_USB_Host_Library/Core/Src/usbh_ctlreq.c **** }
 1465              		.loc 1 217 3 is_stmt 1 view .LVU519
 217:Middlewares/ST/STM32_USB_Host_Library/Core/Src/usbh_ctlreq.c **** }
 1466              		.loc 1 217 10 is_stmt 0 view .LVU520
 1467 0012 FFF7FEFF 		bl	USBH_CtlReq
 1468              	.LVL127:
 218:Middlewares/ST/STM32_USB_Host_Library/Core/Src/usbh_ctlreq.c **** 
 1469              		.loc 1 218 1 view .LVU521
ARM GAS  C:\Users\stefa\AppData\Local\Temp\ccf1pQEx.s 			page 53


 1470 0016 08BD     		pop	{r3, pc}
 1471              	.LVL128:
 1472              	.L108:
 202:Middlewares/ST/STM32_USB_Host_Library/Core/Src/usbh_ctlreq.c ****     phost->Control.setup.b.bRequest = USB_REQ_GET_DESCRIPTOR;
 1473              		.loc 1 202 5 is_stmt 1 view .LVU522
 202:Middlewares/ST/STM32_USB_Host_Library/Core/Src/usbh_ctlreq.c ****     phost->Control.setup.b.bRequest = USB_REQ_GET_DESCRIPTOR;
 1474              		.loc 1 202 42 is_stmt 0 view .LVU523
 1475 0018 6EF07F0E 		orn	lr, lr, #127
 1476 001c 80F810E0 		strb	lr, [r0, #16]
 203:Middlewares/ST/STM32_USB_Host_Library/Core/Src/usbh_ctlreq.c ****     phost->Control.setup.b.wValue.w = value_idx;
 1477              		.loc 1 203 5 is_stmt 1 view .LVU524
 203:Middlewares/ST/STM32_USB_Host_Library/Core/Src/usbh_ctlreq.c ****     phost->Control.setup.b.wValue.w = value_idx;
 1478              		.loc 1 203 37 is_stmt 0 view .LVU525
 1479 0020 0623     		movs	r3, #6
 1480 0022 4374     		strb	r3, [r0, #17]
 204:Middlewares/ST/STM32_USB_Host_Library/Core/Src/usbh_ctlreq.c **** 
 1481              		.loc 1 204 5 is_stmt 1 view .LVU526
 204:Middlewares/ST/STM32_USB_Host_Library/Core/Src/usbh_ctlreq.c **** 
 1482              		.loc 1 204 37 is_stmt 0 view .LVU527
 1483 0024 A0F812C0 		strh	ip, [r0, #18]	@ movhi
 206:Middlewares/ST/STM32_USB_Host_Library/Core/Src/usbh_ctlreq.c ****     {
 1484              		.loc 1 206 5 is_stmt 1 view .LVU528
 206:Middlewares/ST/STM32_USB_Host_Library/Core/Src/usbh_ctlreq.c ****     {
 1485              		.loc 1 206 8 is_stmt 0 view .LVU529
 1486 0028 0CF47F4C 		and	ip, ip, #65280
 1487 002c BCF5407F 		cmp	ip, #768
 1488 0030 03D0     		beq	.L109
 212:Middlewares/ST/STM32_USB_Host_Library/Core/Src/usbh_ctlreq.c ****     }
 1489              		.loc 1 212 7 is_stmt 1 view .LVU530
 212:Middlewares/ST/STM32_USB_Host_Library/Core/Src/usbh_ctlreq.c ****     }
 1490              		.loc 1 212 39 is_stmt 0 view .LVU531
 1491 0032 0023     		movs	r3, #0
 1492 0034 8382     		strh	r3, [r0, #20]	@ movhi
 1493              	.L106:
 214:Middlewares/ST/STM32_USB_Host_Library/Core/Src/usbh_ctlreq.c ****   }
 1494              		.loc 1 214 5 is_stmt 1 view .LVU532
 214:Middlewares/ST/STM32_USB_Host_Library/Core/Src/usbh_ctlreq.c ****   }
 1495              		.loc 1 214 38 is_stmt 0 view .LVU533
 1496 0036 C282     		strh	r2, [r0, #22]	@ movhi
 1497 0038 EBE7     		b	.L104
 1498              	.L109:
 208:Middlewares/ST/STM32_USB_Host_Library/Core/Src/usbh_ctlreq.c ****     }
 1499              		.loc 1 208 7 is_stmt 1 view .LVU534
 208:Middlewares/ST/STM32_USB_Host_Library/Core/Src/usbh_ctlreq.c ****     }
 1500              		.loc 1 208 39 is_stmt 0 view .LVU535
 1501 003a 40F20943 		movw	r3, #1033
 1502 003e 8382     		strh	r3, [r0, #20]	@ movhi
 1503 0040 F9E7     		b	.L106
 1504              		.cfi_endproc
 1505              	.LFE136:
 1507              		.section	.text.USBH_Get_DevDesc,"ax",%progbits
 1508              		.align	1
 1509              		.global	USBH_Get_DevDesc
 1510              		.syntax unified
 1511              		.thumb
 1512              		.thumb_func
 1514              	USBH_Get_DevDesc:
ARM GAS  C:\Users\stefa\AppData\Local\Temp\ccf1pQEx.s 			page 54


 1515              	.LVL129:
 1516              	.LFB133:
 104:Middlewares/ST/STM32_USB_Host_Library/Core/Src/usbh_ctlreq.c ****   USBH_StatusTypeDef status;
 1517              		.loc 1 104 1 is_stmt 1 view -0
 1518              		.cfi_startproc
 1519              		@ args = 0, pretend = 0, frame = 0
 1520              		@ frame_needed = 0, uses_anonymous_args = 0
 104:Middlewares/ST/STM32_USB_Host_Library/Core/Src/usbh_ctlreq.c ****   USBH_StatusTypeDef status;
 1521              		.loc 1 104 1 is_stmt 0 view .LVU537
 1522 0000 F0B5     		push	{r4, r5, r6, r7, lr}
 1523              	.LCFI11:
 1524              		.cfi_def_cfa_offset 20
 1525              		.cfi_offset 4, -20
 1526              		.cfi_offset 5, -16
 1527              		.cfi_offset 6, -12
 1528              		.cfi_offset 7, -8
 1529              		.cfi_offset 14, -4
 1530 0002 83B0     		sub	sp, sp, #12
 1531              	.LCFI12:
 1532              		.cfi_def_cfa_offset 32
 1533 0004 0446     		mov	r4, r0
 105:Middlewares/ST/STM32_USB_Host_Library/Core/Src/usbh_ctlreq.c **** 
 1534              		.loc 1 105 3 is_stmt 1 view .LVU538
 107:Middlewares/ST/STM32_USB_Host_Library/Core/Src/usbh_ctlreq.c ****                               USB_REQ_RECIPIENT_DEVICE | USB_REQ_TYPE_STANDARD,
 1535              		.loc 1 107 3 view .LVU539
 109:Middlewares/ST/STM32_USB_Host_Library/Core/Src/usbh_ctlreq.c ****                               (uint16_t)length);
 1536              		.loc 1 109 61 is_stmt 0 view .LVU540
 1537 0006 00F58E76 		add	r6, r0, #284
 107:Middlewares/ST/STM32_USB_Host_Library/Core/Src/usbh_ctlreq.c ****                               USB_REQ_RECIPIENT_DEVICE | USB_REQ_TYPE_STANDARD,
 1538              		.loc 1 107 12 view .LVU541
 1539 000a 0D46     		mov	r5, r1
 1540 000c 0091     		str	r1, [sp]
 1541 000e 3346     		mov	r3, r6
 1542 0010 4FF48072 		mov	r2, #256
 1543 0014 0021     		movs	r1, #0
 1544              	.LVL130:
 107:Middlewares/ST/STM32_USB_Host_Library/Core/Src/usbh_ctlreq.c ****                               USB_REQ_RECIPIENT_DEVICE | USB_REQ_TYPE_STANDARD,
 1545              		.loc 1 107 12 view .LVU542
 1546 0016 FFF7FEFF 		bl	USBH_GetDescriptor
 1547              	.LVL131:
 112:Middlewares/ST/STM32_USB_Host_Library/Core/Src/usbh_ctlreq.c ****   {
 1548              		.loc 1 112 3 is_stmt 1 view .LVU543
 112:Middlewares/ST/STM32_USB_Host_Library/Core/Src/usbh_ctlreq.c ****   {
 1549              		.loc 1 112 6 is_stmt 0 view .LVU544
 1550 001a 0746     		mov	r7, r0
 1551 001c 10B1     		cbz	r0, .L113
 1552              	.LVL132:
 1553              	.L111:
 119:Middlewares/ST/STM32_USB_Host_Library/Core/Src/usbh_ctlreq.c **** }
 1554              		.loc 1 119 3 is_stmt 1 view .LVU545
 120:Middlewares/ST/STM32_USB_Host_Library/Core/Src/usbh_ctlreq.c **** 
 1555              		.loc 1 120 1 is_stmt 0 view .LVU546
 1556 001e 3846     		mov	r0, r7
 1557 0020 03B0     		add	sp, sp, #12
 1558              	.LCFI13:
 1559              		.cfi_remember_state
 1560              		.cfi_def_cfa_offset 20
ARM GAS  C:\Users\stefa\AppData\Local\Temp\ccf1pQEx.s 			page 55


 1561              		@ sp needed
 1562 0022 F0BD     		pop	{r4, r5, r6, r7, pc}
 1563              	.LVL133:
 1564              	.L113:
 1565              	.LCFI14:
 1566              		.cfi_restore_state
 115:Middlewares/ST/STM32_USB_Host_Library/Core/Src/usbh_ctlreq.c ****                       (uint16_t)length);
 1567              		.loc 1 115 5 is_stmt 1 view .LVU547
 1568 0024 2A46     		mov	r2, r5
 1569 0026 3146     		mov	r1, r6
 1570 0028 04F22630 		addw	r0, r4, #806
 1571              	.LVL134:
 115:Middlewares/ST/STM32_USB_Host_Library/Core/Src/usbh_ctlreq.c ****                       (uint16_t)length);
 1572              		.loc 1 115 5 is_stmt 0 view .LVU548
 1573 002c FFF7FEFF 		bl	USBH_ParseDevDesc
 1574              	.LVL135:
 1575 0030 F5E7     		b	.L111
 1576              		.cfi_endproc
 1577              	.LFE133:
 1579              		.section	.text.USBH_Get_CfgDesc,"ax",%progbits
 1580              		.align	1
 1581              		.global	USBH_Get_CfgDesc
 1582              		.syntax unified
 1583              		.thumb
 1584              		.thumb_func
 1586              	USBH_Get_CfgDesc:
 1587              	.LVL136:
 1588              	.LFB134:
 135:Middlewares/ST/STM32_USB_Host_Library/Core/Src/usbh_ctlreq.c ****   USBH_StatusTypeDef status;
 1589              		.loc 1 135 1 is_stmt 1 view -0
 1590              		.cfi_startproc
 1591              		@ args = 0, pretend = 0, frame = 0
 1592              		@ frame_needed = 0, uses_anonymous_args = 0
 135:Middlewares/ST/STM32_USB_Host_Library/Core/Src/usbh_ctlreq.c ****   USBH_StatusTypeDef status;
 1593              		.loc 1 135 1 is_stmt 0 view .LVU550
 1594 0000 70B5     		push	{r4, r5, r6, lr}
 1595              	.LCFI15:
 1596              		.cfi_def_cfa_offset 16
 1597              		.cfi_offset 4, -16
 1598              		.cfi_offset 5, -12
 1599              		.cfi_offset 6, -8
 1600              		.cfi_offset 14, -4
 1601 0002 82B0     		sub	sp, sp, #8
 1602              	.LCFI16:
 1603              		.cfi_def_cfa_offset 24
 1604 0004 0446     		mov	r4, r0
 1605 0006 0D46     		mov	r5, r1
 136:Middlewares/ST/STM32_USB_Host_Library/Core/Src/usbh_ctlreq.c ****   uint8_t *pData = phost->device.CfgDesc_Raw;
 1606              		.loc 1 136 3 is_stmt 1 view .LVU551
 137:Middlewares/ST/STM32_USB_Host_Library/Core/Src/usbh_ctlreq.c **** 
 1607              		.loc 1 137 3 view .LVU552
 137:Middlewares/ST/STM32_USB_Host_Library/Core/Src/usbh_ctlreq.c **** 
 1608              		.loc 1 137 12 is_stmt 0 view .LVU553
 1609 0008 00F11C06 		add	r6, r0, #28
 1610              	.LVL137:
 139:Middlewares/ST/STM32_USB_Host_Library/Core/Src/usbh_ctlreq.c ****                               USB_DESC_CONFIGURATION, pData, length);
 1611              		.loc 1 139 3 is_stmt 1 view .LVU554
ARM GAS  C:\Users\stefa\AppData\Local\Temp\ccf1pQEx.s 			page 56


 139:Middlewares/ST/STM32_USB_Host_Library/Core/Src/usbh_ctlreq.c ****                               USB_DESC_CONFIGURATION, pData, length);
 1612              		.loc 1 139 12 is_stmt 0 view .LVU555
 1613 000c 0091     		str	r1, [sp]
 1614 000e 3346     		mov	r3, r6
 1615 0010 4FF40072 		mov	r2, #512
 1616 0014 0021     		movs	r1, #0
 1617              	.LVL138:
 139:Middlewares/ST/STM32_USB_Host_Library/Core/Src/usbh_ctlreq.c ****                               USB_DESC_CONFIGURATION, pData, length);
 1618              		.loc 1 139 12 view .LVU556
 1619 0016 FFF7FEFF 		bl	USBH_GetDescriptor
 1620              	.LVL139:
 142:Middlewares/ST/STM32_USB_Host_Library/Core/Src/usbh_ctlreq.c ****   {
 1621              		.loc 1 142 3 is_stmt 1 view .LVU557
 142:Middlewares/ST/STM32_USB_Host_Library/Core/Src/usbh_ctlreq.c ****   {
 1622              		.loc 1 142 6 is_stmt 0 view .LVU558
 1623 001a 08B1     		cbz	r0, .L117
 1624              	.LVL140:
 1625              	.L115:
 148:Middlewares/ST/STM32_USB_Host_Library/Core/Src/usbh_ctlreq.c **** }
 1626              		.loc 1 148 3 is_stmt 1 view .LVU559
 149:Middlewares/ST/STM32_USB_Host_Library/Core/Src/usbh_ctlreq.c **** 
 1627              		.loc 1 149 1 is_stmt 0 view .LVU560
 1628 001c 02B0     		add	sp, sp, #8
 1629              	.LCFI17:
 1630              		.cfi_remember_state
 1631              		.cfi_def_cfa_offset 16
 1632              		@ sp needed
 1633 001e 70BD     		pop	{r4, r5, r6, pc}
 1634              	.LVL141:
 1635              	.L117:
 1636              	.LCFI18:
 1637              		.cfi_restore_state
 145:Middlewares/ST/STM32_USB_Host_Library/Core/Src/usbh_ctlreq.c ****   }
 1638              		.loc 1 145 5 is_stmt 1 view .LVU561
 145:Middlewares/ST/STM32_USB_Host_Library/Core/Src/usbh_ctlreq.c ****   }
 1639              		.loc 1 145 14 is_stmt 0 view .LVU562
 1640 0020 2A46     		mov	r2, r5
 1641 0022 3146     		mov	r1, r6
 1642 0024 2046     		mov	r0, r4
 1643 0026 FFF7FEFF 		bl	USBH_ParseCfgDesc
 1644              	.LVL142:
 145:Middlewares/ST/STM32_USB_Host_Library/Core/Src/usbh_ctlreq.c ****   }
 1645              		.loc 1 145 14 view .LVU563
 1646 002a F7E7     		b	.L115
 1647              		.cfi_endproc
 1648              	.LFE134:
 1650              		.section	.text.USBH_Get_StringDesc,"ax",%progbits
 1651              		.align	1
 1652              		.global	USBH_Get_StringDesc
 1653              		.syntax unified
 1654              		.thumb
 1655              		.thumb_func
 1657              	USBH_Get_StringDesc:
 1658              	.LVL143:
 1659              	.LFB135:
 165:Middlewares/ST/STM32_USB_Host_Library/Core/Src/usbh_ctlreq.c ****   USBH_StatusTypeDef status;
 1660              		.loc 1 165 1 is_stmt 1 view -0
ARM GAS  C:\Users\stefa\AppData\Local\Temp\ccf1pQEx.s 			page 57


 1661              		.cfi_startproc
 1662              		@ args = 0, pretend = 0, frame = 0
 1663              		@ frame_needed = 0, uses_anonymous_args = 0
 165:Middlewares/ST/STM32_USB_Host_Library/Core/Src/usbh_ctlreq.c ****   USBH_StatusTypeDef status;
 1664              		.loc 1 165 1 is_stmt 0 view .LVU565
 1665 0000 F0B5     		push	{r4, r5, r6, r7, lr}
 1666              	.LCFI19:
 1667              		.cfi_def_cfa_offset 20
 1668              		.cfi_offset 4, -20
 1669              		.cfi_offset 5, -16
 1670              		.cfi_offset 6, -12
 1671              		.cfi_offset 7, -8
 1672              		.cfi_offset 14, -4
 1673 0002 83B0     		sub	sp, sp, #12
 1674              	.LCFI20:
 1675              		.cfi_def_cfa_offset 32
 1676 0004 1646     		mov	r6, r2
 1677 0006 1D46     		mov	r5, r3
 166:Middlewares/ST/STM32_USB_Host_Library/Core/Src/usbh_ctlreq.c **** 
 1678              		.loc 1 166 3 is_stmt 1 view .LVU566
 168:Middlewares/ST/STM32_USB_Host_Library/Core/Src/usbh_ctlreq.c ****                               USB_REQ_RECIPIENT_DEVICE | USB_REQ_TYPE_STANDARD,
 1679              		.loc 1 168 3 view .LVU567
 171:Middlewares/ST/STM32_USB_Host_Library/Core/Src/usbh_ctlreq.c **** 
 1680              		.loc 1 171 44 is_stmt 0 view .LVU568
 1681 0008 00F58E74 		add	r4, r0, #284
 168:Middlewares/ST/STM32_USB_Host_Library/Core/Src/usbh_ctlreq.c ****                               USB_REQ_RECIPIENT_DEVICE | USB_REQ_TYPE_STANDARD,
 1682              		.loc 1 168 12 view .LVU569
 1683 000c 0093     		str	r3, [sp]
 1684 000e 2346     		mov	r3, r4
 1685              	.LVL144:
 168:Middlewares/ST/STM32_USB_Host_Library/Core/Src/usbh_ctlreq.c ****                               USB_REQ_RECIPIENT_DEVICE | USB_REQ_TYPE_STANDARD,
 1686              		.loc 1 168 12 view .LVU570
 1687 0010 41F44072 		orr	r2, r1, #768
 1688              	.LVL145:
 168:Middlewares/ST/STM32_USB_Host_Library/Core/Src/usbh_ctlreq.c ****                               USB_REQ_RECIPIENT_DEVICE | USB_REQ_TYPE_STANDARD,
 1689              		.loc 1 168 12 view .LVU571
 1690 0014 0021     		movs	r1, #0
 1691              	.LVL146:
 168:Middlewares/ST/STM32_USB_Host_Library/Core/Src/usbh_ctlreq.c ****                               USB_REQ_RECIPIENT_DEVICE | USB_REQ_TYPE_STANDARD,
 1692              		.loc 1 168 12 view .LVU572
 1693 0016 FFF7FEFF 		bl	USBH_GetDescriptor
 1694              	.LVL147:
 173:Middlewares/ST/STM32_USB_Host_Library/Core/Src/usbh_ctlreq.c ****   {
 1695              		.loc 1 173 3 is_stmt 1 view .LVU573
 173:Middlewares/ST/STM32_USB_Host_Library/Core/Src/usbh_ctlreq.c ****   {
 1696              		.loc 1 173 6 is_stmt 0 view .LVU574
 1697 001a 0746     		mov	r7, r0
 1698 001c 10B1     		cbz	r0, .L121
 1699              	.LVL148:
 1700              	.L119:
 179:Middlewares/ST/STM32_USB_Host_Library/Core/Src/usbh_ctlreq.c **** }
 1701              		.loc 1 179 3 is_stmt 1 view .LVU575
 180:Middlewares/ST/STM32_USB_Host_Library/Core/Src/usbh_ctlreq.c **** 
 1702              		.loc 1 180 1 is_stmt 0 view .LVU576
 1703 001e 3846     		mov	r0, r7
 1704 0020 03B0     		add	sp, sp, #12
 1705              	.LCFI21:
ARM GAS  C:\Users\stefa\AppData\Local\Temp\ccf1pQEx.s 			page 58


 1706              		.cfi_remember_state
 1707              		.cfi_def_cfa_offset 20
 1708              		@ sp needed
 1709 0022 F0BD     		pop	{r4, r5, r6, r7, pc}
 1710              	.LVL149:
 1711              	.L121:
 1712              	.LCFI22:
 1713              		.cfi_restore_state
 176:Middlewares/ST/STM32_USB_Host_Library/Core/Src/usbh_ctlreq.c ****   }
 1714              		.loc 1 176 5 is_stmt 1 view .LVU577
 1715 0024 2A46     		mov	r2, r5
 1716 0026 3146     		mov	r1, r6
 1717 0028 2046     		mov	r0, r4
 1718              	.LVL150:
 176:Middlewares/ST/STM32_USB_Host_Library/Core/Src/usbh_ctlreq.c ****   }
 1719              		.loc 1 176 5 is_stmt 0 view .LVU578
 1720 002a FFF7FEFF 		bl	USBH_ParseStringDesc
 1721              	.LVL151:
 1722 002e F6E7     		b	.L119
 1723              		.cfi_endproc
 1724              	.LFE135:
 1726              		.section	.text.USBH_SetAddress,"ax",%progbits
 1727              		.align	1
 1728              		.global	USBH_SetAddress
 1729              		.syntax unified
 1730              		.thumb
 1731              		.thumb_func
 1733              	USBH_SetAddress:
 1734              	.LVL152:
 1735              	.LFB137:
 230:Middlewares/ST/STM32_USB_Host_Library/Core/Src/usbh_ctlreq.c ****   if (phost->RequestState == CMD_SEND)
 1736              		.loc 1 230 1 is_stmt 1 view -0
 1737              		.cfi_startproc
 1738              		@ args = 0, pretend = 0, frame = 0
 1739              		@ frame_needed = 0, uses_anonymous_args = 0
 230:Middlewares/ST/STM32_USB_Host_Library/Core/Src/usbh_ctlreq.c ****   if (phost->RequestState == CMD_SEND)
 1740              		.loc 1 230 1 is_stmt 0 view .LVU580
 1741 0000 08B5     		push	{r3, lr}
 1742              	.LCFI23:
 1743              		.cfi_def_cfa_offset 8
 1744              		.cfi_offset 3, -8
 1745              		.cfi_offset 14, -4
 231:Middlewares/ST/STM32_USB_Host_Library/Core/Src/usbh_ctlreq.c ****   {
 1746              		.loc 1 231 3 is_stmt 1 view .LVU581
 231:Middlewares/ST/STM32_USB_Host_Library/Core/Src/usbh_ctlreq.c ****   {
 1747              		.loc 1 231 12 is_stmt 0 view .LVU582
 1748 0002 8378     		ldrb	r3, [r0, #2]	@ zero_extendqisi2
 231:Middlewares/ST/STM32_USB_Host_Library/Core/Src/usbh_ctlreq.c ****   {
 1749              		.loc 1 231 6 view .LVU583
 1750 0004 012B     		cmp	r3, #1
 1751 0006 04D0     		beq	.L125
 1752              	.L123:
 243:Middlewares/ST/STM32_USB_Host_Library/Core/Src/usbh_ctlreq.c **** }
 1753              		.loc 1 243 3 is_stmt 1 view .LVU584
 243:Middlewares/ST/STM32_USB_Host_Library/Core/Src/usbh_ctlreq.c **** }
 1754              		.loc 1 243 10 is_stmt 0 view .LVU585
 1755 0008 0022     		movs	r2, #0
ARM GAS  C:\Users\stefa\AppData\Local\Temp\ccf1pQEx.s 			page 59


 1756 000a 1146     		mov	r1, r2
 1757              	.LVL153:
 243:Middlewares/ST/STM32_USB_Host_Library/Core/Src/usbh_ctlreq.c **** }
 1758              		.loc 1 243 10 view .LVU586
 1759 000c FFF7FEFF 		bl	USBH_CtlReq
 1760              	.LVL154:
 244:Middlewares/ST/STM32_USB_Host_Library/Core/Src/usbh_ctlreq.c **** 
 1761              		.loc 1 244 1 view .LVU587
 1762 0010 08BD     		pop	{r3, pc}
 1763              	.LVL155:
 1764              	.L125:
 233:Middlewares/ST/STM32_USB_Host_Library/Core/Src/usbh_ctlreq.c ****                                            USB_REQ_TYPE_STANDARD;
 1765              		.loc 1 233 5 is_stmt 1 view .LVU588
 233:Middlewares/ST/STM32_USB_Host_Library/Core/Src/usbh_ctlreq.c ****                                            USB_REQ_TYPE_STANDARD;
 1766              		.loc 1 233 42 is_stmt 0 view .LVU589
 1767 0012 0023     		movs	r3, #0
 1768 0014 0374     		strb	r3, [r0, #16]
 236:Middlewares/ST/STM32_USB_Host_Library/Core/Src/usbh_ctlreq.c **** 
 1769              		.loc 1 236 5 is_stmt 1 view .LVU590
 236:Middlewares/ST/STM32_USB_Host_Library/Core/Src/usbh_ctlreq.c **** 
 1770              		.loc 1 236 37 is_stmt 0 view .LVU591
 1771 0016 0522     		movs	r2, #5
 1772 0018 4274     		strb	r2, [r0, #17]
 238:Middlewares/ST/STM32_USB_Host_Library/Core/Src/usbh_ctlreq.c ****     phost->Control.setup.b.wIndex.w = 0U;
 1773              		.loc 1 238 5 is_stmt 1 view .LVU592
 238:Middlewares/ST/STM32_USB_Host_Library/Core/Src/usbh_ctlreq.c ****     phost->Control.setup.b.wIndex.w = 0U;
 1774              		.loc 1 238 37 is_stmt 0 view .LVU593
 1775 001a 4182     		strh	r1, [r0, #18]	@ movhi
 239:Middlewares/ST/STM32_USB_Host_Library/Core/Src/usbh_ctlreq.c ****     phost->Control.setup.b.wLength.w = 0U;
 1776              		.loc 1 239 5 is_stmt 1 view .LVU594
 239:Middlewares/ST/STM32_USB_Host_Library/Core/Src/usbh_ctlreq.c ****     phost->Control.setup.b.wLength.w = 0U;
 1777              		.loc 1 239 37 is_stmt 0 view .LVU595
 1778 001c 8382     		strh	r3, [r0, #20]	@ movhi
 240:Middlewares/ST/STM32_USB_Host_Library/Core/Src/usbh_ctlreq.c ****   }
 1779              		.loc 1 240 5 is_stmt 1 view .LVU596
 240:Middlewares/ST/STM32_USB_Host_Library/Core/Src/usbh_ctlreq.c ****   }
 1780              		.loc 1 240 38 is_stmt 0 view .LVU597
 1781 001e C382     		strh	r3, [r0, #22]	@ movhi
 1782 0020 F2E7     		b	.L123
 1783              		.cfi_endproc
 1784              	.LFE137:
 1786              		.section	.text.USBH_SetCfg,"ax",%progbits
 1787              		.align	1
 1788              		.global	USBH_SetCfg
 1789              		.syntax unified
 1790              		.thumb
 1791              		.thumb_func
 1793              	USBH_SetCfg:
 1794              	.LVL156:
 1795              	.LFB138:
 255:Middlewares/ST/STM32_USB_Host_Library/Core/Src/usbh_ctlreq.c ****   if (phost->RequestState == CMD_SEND)
 1796              		.loc 1 255 1 is_stmt 1 view -0
 1797              		.cfi_startproc
 1798              		@ args = 0, pretend = 0, frame = 0
 1799              		@ frame_needed = 0, uses_anonymous_args = 0
 255:Middlewares/ST/STM32_USB_Host_Library/Core/Src/usbh_ctlreq.c ****   if (phost->RequestState == CMD_SEND)
 1800              		.loc 1 255 1 is_stmt 0 view .LVU599
ARM GAS  C:\Users\stefa\AppData\Local\Temp\ccf1pQEx.s 			page 60


 1801 0000 08B5     		push	{r3, lr}
 1802              	.LCFI24:
 1803              		.cfi_def_cfa_offset 8
 1804              		.cfi_offset 3, -8
 1805              		.cfi_offset 14, -4
 256:Middlewares/ST/STM32_USB_Host_Library/Core/Src/usbh_ctlreq.c ****   {
 1806              		.loc 1 256 3 is_stmt 1 view .LVU600
 256:Middlewares/ST/STM32_USB_Host_Library/Core/Src/usbh_ctlreq.c ****   {
 1807              		.loc 1 256 12 is_stmt 0 view .LVU601
 1808 0002 8378     		ldrb	r3, [r0, #2]	@ zero_extendqisi2
 256:Middlewares/ST/STM32_USB_Host_Library/Core/Src/usbh_ctlreq.c ****   {
 1809              		.loc 1 256 6 view .LVU602
 1810 0004 012B     		cmp	r3, #1
 1811 0006 04D0     		beq	.L129
 1812              	.L127:
 267:Middlewares/ST/STM32_USB_Host_Library/Core/Src/usbh_ctlreq.c **** }
 1813              		.loc 1 267 3 is_stmt 1 view .LVU603
 267:Middlewares/ST/STM32_USB_Host_Library/Core/Src/usbh_ctlreq.c **** }
 1814              		.loc 1 267 10 is_stmt 0 view .LVU604
 1815 0008 0022     		movs	r2, #0
 1816 000a 1146     		mov	r1, r2
 1817              	.LVL157:
 267:Middlewares/ST/STM32_USB_Host_Library/Core/Src/usbh_ctlreq.c **** }
 1818              		.loc 1 267 10 view .LVU605
 1819 000c FFF7FEFF 		bl	USBH_CtlReq
 1820              	.LVL158:
 268:Middlewares/ST/STM32_USB_Host_Library/Core/Src/usbh_ctlreq.c **** 
 1821              		.loc 1 268 1 view .LVU606
 1822 0010 08BD     		pop	{r3, pc}
 1823              	.LVL159:
 1824              	.L129:
 258:Middlewares/ST/STM32_USB_Host_Library/Core/Src/usbh_ctlreq.c ****                                            | USB_REQ_TYPE_STANDARD;
 1825              		.loc 1 258 5 is_stmt 1 view .LVU607
 258:Middlewares/ST/STM32_USB_Host_Library/Core/Src/usbh_ctlreq.c ****                                            | USB_REQ_TYPE_STANDARD;
 1826              		.loc 1 258 42 is_stmt 0 view .LVU608
 1827 0012 0023     		movs	r3, #0
 1828 0014 0374     		strb	r3, [r0, #16]
 261:Middlewares/ST/STM32_USB_Host_Library/Core/Src/usbh_ctlreq.c ****     phost->Control.setup.b.wValue.w = cfg_idx;
 1829              		.loc 1 261 5 is_stmt 1 view .LVU609
 261:Middlewares/ST/STM32_USB_Host_Library/Core/Src/usbh_ctlreq.c ****     phost->Control.setup.b.wValue.w = cfg_idx;
 1830              		.loc 1 261 37 is_stmt 0 view .LVU610
 1831 0016 0922     		movs	r2, #9
 1832 0018 4274     		strb	r2, [r0, #17]
 262:Middlewares/ST/STM32_USB_Host_Library/Core/Src/usbh_ctlreq.c ****     phost->Control.setup.b.wIndex.w = 0U;
 1833              		.loc 1 262 5 is_stmt 1 view .LVU611
 262:Middlewares/ST/STM32_USB_Host_Library/Core/Src/usbh_ctlreq.c ****     phost->Control.setup.b.wIndex.w = 0U;
 1834              		.loc 1 262 37 is_stmt 0 view .LVU612
 1835 001a 4182     		strh	r1, [r0, #18]	@ movhi
 263:Middlewares/ST/STM32_USB_Host_Library/Core/Src/usbh_ctlreq.c ****     phost->Control.setup.b.wLength.w = 0U;
 1836              		.loc 1 263 5 is_stmt 1 view .LVU613
 263:Middlewares/ST/STM32_USB_Host_Library/Core/Src/usbh_ctlreq.c ****     phost->Control.setup.b.wLength.w = 0U;
 1837              		.loc 1 263 37 is_stmt 0 view .LVU614
 1838 001c 8382     		strh	r3, [r0, #20]	@ movhi
 264:Middlewares/ST/STM32_USB_Host_Library/Core/Src/usbh_ctlreq.c ****   }
 1839              		.loc 1 264 5 is_stmt 1 view .LVU615
 264:Middlewares/ST/STM32_USB_Host_Library/Core/Src/usbh_ctlreq.c ****   }
 1840              		.loc 1 264 38 is_stmt 0 view .LVU616
ARM GAS  C:\Users\stefa\AppData\Local\Temp\ccf1pQEx.s 			page 61


 1841 001e C382     		strh	r3, [r0, #22]	@ movhi
 1842 0020 F2E7     		b	.L127
 1843              		.cfi_endproc
 1844              	.LFE138:
 1846              		.section	.text.USBH_SetInterface,"ax",%progbits
 1847              		.align	1
 1848              		.global	USBH_SetInterface
 1849              		.syntax unified
 1850              		.thumb
 1851              		.thumb_func
 1853              	USBH_SetInterface:
 1854              	.LVL160:
 1855              	.LFB139:
 280:Middlewares/ST/STM32_USB_Host_Library/Core/Src/usbh_ctlreq.c ****   if (phost->RequestState == CMD_SEND)
 1856              		.loc 1 280 1 is_stmt 1 view -0
 1857              		.cfi_startproc
 1858              		@ args = 0, pretend = 0, frame = 0
 1859              		@ frame_needed = 0, uses_anonymous_args = 0
 280:Middlewares/ST/STM32_USB_Host_Library/Core/Src/usbh_ctlreq.c ****   if (phost->RequestState == CMD_SEND)
 1860              		.loc 1 280 1 is_stmt 0 view .LVU618
 1861 0000 08B5     		push	{r3, lr}
 1862              	.LCFI25:
 1863              		.cfi_def_cfa_offset 8
 1864              		.cfi_offset 3, -8
 1865              		.cfi_offset 14, -4
 281:Middlewares/ST/STM32_USB_Host_Library/Core/Src/usbh_ctlreq.c ****   {
 1866              		.loc 1 281 3 is_stmt 1 view .LVU619
 281:Middlewares/ST/STM32_USB_Host_Library/Core/Src/usbh_ctlreq.c ****   {
 1867              		.loc 1 281 12 is_stmt 0 view .LVU620
 1868 0002 8378     		ldrb	r3, [r0, #2]	@ zero_extendqisi2
 281:Middlewares/ST/STM32_USB_Host_Library/Core/Src/usbh_ctlreq.c ****   {
 1869              		.loc 1 281 6 view .LVU621
 1870 0004 012B     		cmp	r3, #1
 1871 0006 04D0     		beq	.L133
 1872              	.L131:
 292:Middlewares/ST/STM32_USB_Host_Library/Core/Src/usbh_ctlreq.c **** }
 1873              		.loc 1 292 3 is_stmt 1 view .LVU622
 292:Middlewares/ST/STM32_USB_Host_Library/Core/Src/usbh_ctlreq.c **** }
 1874              		.loc 1 292 10 is_stmt 0 view .LVU623
 1875 0008 0022     		movs	r2, #0
 1876              	.LVL161:
 292:Middlewares/ST/STM32_USB_Host_Library/Core/Src/usbh_ctlreq.c **** }
 1877              		.loc 1 292 10 view .LVU624
 1878 000a 1146     		mov	r1, r2
 1879              	.LVL162:
 292:Middlewares/ST/STM32_USB_Host_Library/Core/Src/usbh_ctlreq.c **** }
 1880              		.loc 1 292 10 view .LVU625
 1881 000c FFF7FEFF 		bl	USBH_CtlReq
 1882              	.LVL163:
 293:Middlewares/ST/STM32_USB_Host_Library/Core/Src/usbh_ctlreq.c **** 
 1883              		.loc 1 293 1 view .LVU626
 1884 0010 08BD     		pop	{r3, pc}
 1885              	.LVL164:
 1886              	.L133:
 283:Middlewares/ST/STM32_USB_Host_Library/Core/Src/usbh_ctlreq.c ****                                            | USB_REQ_TYPE_STANDARD;
 1887              		.loc 1 283 5 is_stmt 1 view .LVU627
 283:Middlewares/ST/STM32_USB_Host_Library/Core/Src/usbh_ctlreq.c ****                                            | USB_REQ_TYPE_STANDARD;
ARM GAS  C:\Users\stefa\AppData\Local\Temp\ccf1pQEx.s 			page 62


 1888              		.loc 1 283 42 is_stmt 0 view .LVU628
 1889 0012 0374     		strb	r3, [r0, #16]
 286:Middlewares/ST/STM32_USB_Host_Library/Core/Src/usbh_ctlreq.c ****     phost->Control.setup.b.wValue.w = altSetting;
 1890              		.loc 1 286 5 is_stmt 1 view .LVU629
 286:Middlewares/ST/STM32_USB_Host_Library/Core/Src/usbh_ctlreq.c ****     phost->Control.setup.b.wValue.w = altSetting;
 1891              		.loc 1 286 37 is_stmt 0 view .LVU630
 1892 0014 0B23     		movs	r3, #11
 1893 0016 4374     		strb	r3, [r0, #17]
 287:Middlewares/ST/STM32_USB_Host_Library/Core/Src/usbh_ctlreq.c ****     phost->Control.setup.b.wIndex.w = ep_num;
 1894              		.loc 1 287 5 is_stmt 1 view .LVU631
 287:Middlewares/ST/STM32_USB_Host_Library/Core/Src/usbh_ctlreq.c ****     phost->Control.setup.b.wIndex.w = ep_num;
 1895              		.loc 1 287 37 is_stmt 0 view .LVU632
 1896 0018 4282     		strh	r2, [r0, #18]	@ movhi
 288:Middlewares/ST/STM32_USB_Host_Library/Core/Src/usbh_ctlreq.c ****     phost->Control.setup.b.wLength.w = 0U;
 1897              		.loc 1 288 5 is_stmt 1 view .LVU633
 288:Middlewares/ST/STM32_USB_Host_Library/Core/Src/usbh_ctlreq.c ****     phost->Control.setup.b.wLength.w = 0U;
 1898              		.loc 1 288 37 is_stmt 0 view .LVU634
 1899 001a 8182     		strh	r1, [r0, #20]	@ movhi
 289:Middlewares/ST/STM32_USB_Host_Library/Core/Src/usbh_ctlreq.c ****   }
 1900              		.loc 1 289 5 is_stmt 1 view .LVU635
 289:Middlewares/ST/STM32_USB_Host_Library/Core/Src/usbh_ctlreq.c ****   }
 1901              		.loc 1 289 38 is_stmt 0 view .LVU636
 1902 001c 0023     		movs	r3, #0
 1903 001e C382     		strh	r3, [r0, #22]	@ movhi
 1904 0020 F2E7     		b	.L131
 1905              		.cfi_endproc
 1906              	.LFE139:
 1908              		.section	.text.USBH_SetFeature,"ax",%progbits
 1909              		.align	1
 1910              		.global	USBH_SetFeature
 1911              		.syntax unified
 1912              		.thumb
 1913              		.thumb_func
 1915              	USBH_SetFeature:
 1916              	.LVL165:
 1917              	.LFB140:
 304:Middlewares/ST/STM32_USB_Host_Library/Core/Src/usbh_ctlreq.c ****   if (phost->RequestState == CMD_SEND)
 1918              		.loc 1 304 1 is_stmt 1 view -0
 1919              		.cfi_startproc
 1920              		@ args = 0, pretend = 0, frame = 0
 1921              		@ frame_needed = 0, uses_anonymous_args = 0
 304:Middlewares/ST/STM32_USB_Host_Library/Core/Src/usbh_ctlreq.c ****   if (phost->RequestState == CMD_SEND)
 1922              		.loc 1 304 1 is_stmt 0 view .LVU638
 1923 0000 08B5     		push	{r3, lr}
 1924              	.LCFI26:
 1925              		.cfi_def_cfa_offset 8
 1926              		.cfi_offset 3, -8
 1927              		.cfi_offset 14, -4
 305:Middlewares/ST/STM32_USB_Host_Library/Core/Src/usbh_ctlreq.c ****   {
 1928              		.loc 1 305 3 is_stmt 1 view .LVU639
 305:Middlewares/ST/STM32_USB_Host_Library/Core/Src/usbh_ctlreq.c ****   {
 1929              		.loc 1 305 12 is_stmt 0 view .LVU640
 1930 0002 8378     		ldrb	r3, [r0, #2]	@ zero_extendqisi2
 305:Middlewares/ST/STM32_USB_Host_Library/Core/Src/usbh_ctlreq.c ****   {
 1931              		.loc 1 305 6 view .LVU641
 1932 0004 012B     		cmp	r3, #1
 1933 0006 04D0     		beq	.L137
ARM GAS  C:\Users\stefa\AppData\Local\Temp\ccf1pQEx.s 			page 63


 1934              	.L135:
 316:Middlewares/ST/STM32_USB_Host_Library/Core/Src/usbh_ctlreq.c **** }
 1935              		.loc 1 316 3 is_stmt 1 view .LVU642
 316:Middlewares/ST/STM32_USB_Host_Library/Core/Src/usbh_ctlreq.c **** }
 1936              		.loc 1 316 10 is_stmt 0 view .LVU643
 1937 0008 0022     		movs	r2, #0
 1938 000a 1146     		mov	r1, r2
 1939              	.LVL166:
 316:Middlewares/ST/STM32_USB_Host_Library/Core/Src/usbh_ctlreq.c **** }
 1940              		.loc 1 316 10 view .LVU644
 1941 000c FFF7FEFF 		bl	USBH_CtlReq
 1942              	.LVL167:
 317:Middlewares/ST/STM32_USB_Host_Library/Core/Src/usbh_ctlreq.c **** 
 1943              		.loc 1 317 1 view .LVU645
 1944 0010 08BD     		pop	{r3, pc}
 1945              	.LVL168:
 1946              	.L137:
 307:Middlewares/ST/STM32_USB_Host_Library/Core/Src/usbh_ctlreq.c ****                                            | USB_REQ_TYPE_STANDARD;
 1947              		.loc 1 307 5 is_stmt 1 view .LVU646
 307:Middlewares/ST/STM32_USB_Host_Library/Core/Src/usbh_ctlreq.c ****                                            | USB_REQ_TYPE_STANDARD;
 1948              		.loc 1 307 42 is_stmt 0 view .LVU647
 1949 0012 0023     		movs	r3, #0
 1950 0014 0374     		strb	r3, [r0, #16]
 310:Middlewares/ST/STM32_USB_Host_Library/Core/Src/usbh_ctlreq.c ****     phost->Control.setup.b.wValue.w = wValue;
 1951              		.loc 1 310 5 is_stmt 1 view .LVU648
 310:Middlewares/ST/STM32_USB_Host_Library/Core/Src/usbh_ctlreq.c ****     phost->Control.setup.b.wValue.w = wValue;
 1952              		.loc 1 310 37 is_stmt 0 view .LVU649
 1953 0016 0322     		movs	r2, #3
 1954 0018 4274     		strb	r2, [r0, #17]
 311:Middlewares/ST/STM32_USB_Host_Library/Core/Src/usbh_ctlreq.c ****     phost->Control.setup.b.wIndex.w = 0U;
 1955              		.loc 1 311 5 is_stmt 1 view .LVU650
 311:Middlewares/ST/STM32_USB_Host_Library/Core/Src/usbh_ctlreq.c ****     phost->Control.setup.b.wIndex.w = 0U;
 1956              		.loc 1 311 37 is_stmt 0 view .LVU651
 1957 001a 4182     		strh	r1, [r0, #18]	@ movhi
 312:Middlewares/ST/STM32_USB_Host_Library/Core/Src/usbh_ctlreq.c ****     phost->Control.setup.b.wLength.w = 0U;
 1958              		.loc 1 312 5 is_stmt 1 view .LVU652
 312:Middlewares/ST/STM32_USB_Host_Library/Core/Src/usbh_ctlreq.c ****     phost->Control.setup.b.wLength.w = 0U;
 1959              		.loc 1 312 37 is_stmt 0 view .LVU653
 1960 001c 8382     		strh	r3, [r0, #20]	@ movhi
 313:Middlewares/ST/STM32_USB_Host_Library/Core/Src/usbh_ctlreq.c ****   }
 1961              		.loc 1 313 5 is_stmt 1 view .LVU654
 313:Middlewares/ST/STM32_USB_Host_Library/Core/Src/usbh_ctlreq.c ****   }
 1962              		.loc 1 313 38 is_stmt 0 view .LVU655
 1963 001e C382     		strh	r3, [r0, #22]	@ movhi
 1964 0020 F2E7     		b	.L135
 1965              		.cfi_endproc
 1966              	.LFE140:
 1968              		.section	.text.USBH_ClrFeature,"ax",%progbits
 1969              		.align	1
 1970              		.global	USBH_ClrFeature
 1971              		.syntax unified
 1972              		.thumb
 1973              		.thumb_func
 1975              	USBH_ClrFeature:
 1976              	.LVL169:
 1977              	.LFB141:
 329:Middlewares/ST/STM32_USB_Host_Library/Core/Src/usbh_ctlreq.c ****   if (phost->RequestState == CMD_SEND)
ARM GAS  C:\Users\stefa\AppData\Local\Temp\ccf1pQEx.s 			page 64


 1978              		.loc 1 329 1 is_stmt 1 view -0
 1979              		.cfi_startproc
 1980              		@ args = 0, pretend = 0, frame = 0
 1981              		@ frame_needed = 0, uses_anonymous_args = 0
 329:Middlewares/ST/STM32_USB_Host_Library/Core/Src/usbh_ctlreq.c ****   if (phost->RequestState == CMD_SEND)
 1982              		.loc 1 329 1 is_stmt 0 view .LVU657
 1983 0000 08B5     		push	{r3, lr}
 1984              	.LCFI27:
 1985              		.cfi_def_cfa_offset 8
 1986              		.cfi_offset 3, -8
 1987              		.cfi_offset 14, -4
 330:Middlewares/ST/STM32_USB_Host_Library/Core/Src/usbh_ctlreq.c ****   {
 1988              		.loc 1 330 3 is_stmt 1 view .LVU658
 330:Middlewares/ST/STM32_USB_Host_Library/Core/Src/usbh_ctlreq.c ****   {
 1989              		.loc 1 330 12 is_stmt 0 view .LVU659
 1990 0002 8378     		ldrb	r3, [r0, #2]	@ zero_extendqisi2
 330:Middlewares/ST/STM32_USB_Host_Library/Core/Src/usbh_ctlreq.c ****   {
 1991              		.loc 1 330 6 view .LVU660
 1992 0004 012B     		cmp	r3, #1
 1993 0006 04D0     		beq	.L141
 1994              	.L139:
 340:Middlewares/ST/STM32_USB_Host_Library/Core/Src/usbh_ctlreq.c **** }
 1995              		.loc 1 340 3 is_stmt 1 view .LVU661
 340:Middlewares/ST/STM32_USB_Host_Library/Core/Src/usbh_ctlreq.c **** }
 1996              		.loc 1 340 10 is_stmt 0 view .LVU662
 1997 0008 0022     		movs	r2, #0
 1998 000a 1146     		mov	r1, r2
 1999              	.LVL170:
